ARM GAS  C:\Users\DNIEL~1\AppData\Local\Temp\cc8JXkoo.s 			page 1


   1              		.syntax unified
   2              		.cpu cortex-m4
   3              		.fpu softvfp
   4              		.eabi_attribute 20, 1
   5              		.eabi_attribute 21, 1
   6              		.eabi_attribute 23, 3
   7              		.eabi_attribute 24, 1
   8              		.eabi_attribute 25, 1
   9              		.eabi_attribute 26, 1
  10              		.eabi_attribute 30, 2
  11              		.eabi_attribute 18, 4
  12              		.thumb
  13              		.file	"can_comm.c"
  14              		.section	.debug_abbrev,"",%progbits
  15              	.Ldebug_abbrev0:
  16              		.section	.debug_info,"",%progbits
  17              	.Ldebug_info0:
  18              		.section	.debug_line,"",%progbits
  19              	.Ldebug_line0:
  20 0000 3F040000 		.text
  20      0200EB02 
  20      00000201 
  20      FB0E0D00 
  20      01010101 
  21              	.Ltext0:
  22              		.cfi_sections	.debug_frame
  23              		.section	.text.can_rx,"ax",%progbits
  24              		.align	2
  25              		.p2align 4,,15
  26              		.thumb
  27              		.thumb_func
  28              		.type	can_rx, %function
  29              	can_rx:
  30              	.LFB118:
  31              		.file 1 "src/can_comm.c"
  32              		.loc 1 85 0
  33              		.cfi_startproc
  34              		@ args = 0, pretend = 0, frame = 16
  35              		@ frame_needed = 0, uses_anonymous_args = 0
  36              	.LVL0:
  37 0000 2DE9F04F 		push	{r4, r5, r6, r7, r8, r9, sl, fp, lr}
  38              	.LCFI0:
  39              		.cfi_def_cfa_offset 36
  40              		.loc 1 91 0
  41 0004 7E4D     		ldr	r5, .L61
  42              		.cfi_offset 14, -4
  43              		.cfi_offset 11, -8
  44              		.cfi_offset 10, -12
  45              		.cfi_offset 9, -16
  46              		.cfi_offset 8, -20
  47              		.cfi_offset 7, -24
  48              		.cfi_offset 6, -28
  49              		.cfi_offset 5, -32
  50              		.cfi_offset 4, -36
  51 0006 7F48     		ldr	r0, .L61+4
  52              	.LVL1:
  53 0008 AC69     		ldr	r4, [r5, #24]
ARM GAS  C:\Users\DNIEL~1\AppData\Local\Temp\cc8JXkoo.s 			page 2


  54              		.loc 1 87 0
  55 000a 7F4A     		ldr	r2, .L61+8
  56              		.loc 1 85 0
  57 000c 7F4B     		ldr	r3, .L61+12
  58              		.loc 1 91 0
  59 000e A061     		str	r0, [r4, #24]
  60              		.loc 1 85 0
  61 0010 85B0     		sub	sp, sp, #20
  62              	.LCFI1:
  63              		.cfi_def_cfa_offset 56
  64              		.loc 1 87 0
  65 0012 0021     		movs	r1, #0
  66 0014 1160     		str	r1, [r2, #0]
  67              		.loc 1 92 0
  68 0016 7E48     		ldr	r0, .L61+16
  69 0018 6946     		mov	r1, sp
  70 001a 0122     		movs	r2, #1
  71              		.loc 1 85 0
  72 001c 03F50054 		add	r4, r3, #8192
  73              		.loc 1 92 0
  74 0020 FFF7FEFF 		bl	chEvtRegisterMask
  75              		.loc 1 85 0
  76 0024 2546     		mov	r5, r4
  77 0026 0A34     		adds	r4, r4, #10
  78              	.L40:
  79              		.loc 1 93 0 discriminator 1
  80 0028 754F     		ldr	r7, .L61
  81 002a B969     		ldr	r1, [r7, #24]
  82 002c 91F81DC0 		ldrb	ip, [r1, #29]	@ zero_extendqisi2
  83 0030 1CF0040F 		tst	ip, #4
  84 0034 54D1     		bne	.L54
  85              	.L18:
  86              		.loc 1 94 0
  87 0036 4FF0FF30 		mov	r0, #-1
  88 003a 6421     		movs	r1, #100
  89 003c FFF7FEFF 		bl	chEvtWaitAnyTimeout
  90 0040 0028     		cmp	r0, #0
  91 0042 F1D0     		beq	.L40
  92              		.loc 1 96 0
  93 0044 7349     		ldr	r1, .L61+20
  94 0046 7448     		ldr	r0, .L61+24
  95 0048 724E     		ldr	r6, .L61+20
  96 004a 0022     		movs	r2, #0
  97 004c FFF7FEFF 		bl	canReceive
  98 0050 0146     		mov	r1, r0
  99 0052 0028     		cmp	r0, #0
 100 0054 E8D1     		bne	.L40
 101              	.L17:
 102              		.loc 1 98 0
 103 0056 B368     		ldr	r3, [r6, #8]
 104 0058 704F     		ldr	r7, .L61+28
 105 005a C3F31C00 		ubfx	r0, r3, #0, #29
 106 005e C0F30F23 		ubfx	r3, r0, #8, #16
 107 0062 3B80     		strh	r3, [r7, #0]	@ movhi
 108              		.loc 1 99 0
 109 0064 6E4F     		ldr	r7, .L61+32
 110              		.loc 1 101 0
ARM GAS  C:\Users\DNIEL~1\AppData\Local\Temp\cc8JXkoo.s 			page 3


 111 0066 A3F1100C 		sub	ip, r3, #16
 112              		.loc 1 99 0
 113 006a C0B2     		uxtb	r0, r0
 114              		.loc 1 101 0
 115 006c 1FFA8CF2 		uxth	r2, ip
 116              		.loc 1 99 0
 117 0070 3880     		strh	r0, [r7, #0]	@ movhi
 118              		.loc 1 104 0
 119 0072 A3F1200E 		sub	lr, r3, #32
 120 0076 6B4F     		ldr	r7, .L61+36
 121              		.loc 1 101 0
 122 0078 0F2A     		cmp	r2, #15
 123              		.loc 1 104 0
 124 007a 1FFA8EFC 		uxth	ip, lr
 125              		.loc 1 102 0
 126 007e 98BF     		it	ls
 127 0080 3970     		strbls	r1, [r7, #0]
 128              		.loc 1 104 0
 129 0082 BCF10F0F 		cmp	ip, #15
 130 0086 01D8     		bhi	.L6
 131              		.loc 1 105 0
 132 0088 0121     		movs	r1, #1
 133 008a 3970     		strb	r1, [r7, #0]
 134              	.L6:
 135              		.loc 1 107 0
 136 008c A3F13002 		sub	r2, r3, #48
 137 0090 1FFA82FE 		uxth	lr, r2
 138 0094 BEF10F0F 		cmp	lr, #15
 139 0098 01D8     		bhi	.L7
 140              		.loc 1 108 0
 141 009a 0221     		movs	r1, #2
 142 009c 3970     		strb	r1, [r7, #0]
 143              	.L7:
 144              		.loc 1 110 0
 145 009e A3F1400E 		sub	lr, r3, #64
 146 00a2 1FFA8EFC 		uxth	ip, lr
 147 00a6 BCF11F0F 		cmp	ip, #31
 148 00aa 08D8     		bhi	.L52
 149              		.loc 1 111 0
 150 00ac 0322     		movs	r2, #3
 151              		.loc 1 133 0
 152 00ae 0128     		cmp	r0, #1
 153              		.loc 1 111 0
 154 00b0 3A70     		strb	r2, [r7, #0]
 155              		.loc 1 133 0
 156 00b2 1DD0     		beq	.L55
 157              		.loc 1 147 0
 158 00b4 0228     		cmp	r0, #2
 159 00b6 65D0     		beq	.L56
 160              	.L14:
 161              		.loc 1 156 0
 162 00b8 534A     		ldr	r2, .L61+8
 163 00ba 0823     		movs	r3, #8
 164 00bc 1360     		str	r3, [r2, #0]
 165              	.L52:
 166              		.loc 1 157 0
 167 00be 0420     		movs	r0, #4
ARM GAS  C:\Users\DNIEL~1\AppData\Local\Temp\cc8JXkoo.s 			page 4


 168 00c0 3870     		strb	r0, [r7, #0]
 169              		.loc 1 96 0
 170 00c2 5449     		ldr	r1, .L61+20
 171 00c4 5448     		ldr	r0, .L61+24
 172 00c6 0022     		movs	r2, #0
 173 00c8 FFF7FEFF 		bl	canReceive
 174 00cc 0146     		mov	r1, r0
 175 00ce 0028     		cmp	r0, #0
 176 00d0 C1D0     		beq	.L17
 177              		.loc 1 93 0
 178 00d2 4B4F     		ldr	r7, .L61
 179 00d4 B969     		ldr	r1, [r7, #24]
 180 00d6 91F81DC0 		ldrb	ip, [r1, #29]	@ zero_extendqisi2
 181 00da 1CF0040F 		tst	ip, #4
 182 00de AAD0     		beq	.L18
 183              	.L54:
 184              		.loc 1 168 0
 185 00e0 4B48     		ldr	r0, .L61+16
 186 00e2 6946     		mov	r1, sp
 187 00e4 FFF7FEFF 		bl	chEvtUnregister
 188              		.loc 1 170 0
 189 00e8 0020     		movs	r0, #0
 190 00ea 05B0     		add	sp, sp, #20
 191 00ec BDE8F08F 		pop	{r4, r5, r6, r7, r8, r9, sl, fp, pc}
 192              	.L55:
 193              		.loc 1 135 0
 194 00f0 4D49     		ldr	r1, .L61+40
 195              		.loc 1 137 0
 196 00f2 484A     		ldr	r2, .L61+20
 197              		.loc 1 135 0
 198 00f4 51F80A1C 		ldr	r1, [r1, #-10]
 199              		.loc 1 137 0
 200 00f8 92F80CE0 		ldrb	lr, [r2, #12]	@ zero_extendqisi2
 201              		.loc 1 138 0
 202 00fc 92F80DC0 		ldrb	ip, [r2, #13]	@ zero_extendqisi2
 203              		.loc 1 139 0
 204 0100 92F80E80 		ldrb	r8, [r2, #14]	@ zero_extendqisi2
 205              		.loc 1 140 0
 206 0104 92F80F90 		ldrb	r9, [r2, #15]	@ zero_extendqisi2
 207              		.loc 1 141 0
 208 0108 B2F810A0 		ldrh	sl, [r2, #16]
 209              		.loc 1 142 0
 210 010c B2F812B0 		ldrh	fp, [r2, #18]
 211 0110 454A     		ldr	r2, .L61+40
 212              		.loc 1 135 0
 213 0112 9942     		cmp	r1, r3
 214 0114 5AD0     		beq	.L57
 215              	.L23:
 216              		.loc 1 142 0
 217 0116 454A     		ldr	r2, .L61+44
 218 0118 88B1     		cbz	r0, .L13
 219              		.loc 1 135 0
 220 011a 52F80A0C 		ldr	r0, [r2, #-10]
 221 011e 9842     		cmp	r0, r3
 222 0120 61D0     		beq	.L58
 223              	.L25:
 224              	.LVL2:
ARM GAS  C:\Users\DNIEL~1\AppData\Local\Temp\cc8JXkoo.s 			page 5


 225              		.loc 1 142 0
 226 0122 1032     		adds	r2, r2, #16
 227              		.loc 1 134 0
 228 0124 A242     		cmp	r2, r4
 229 0126 0AD1     		bne	.L13
 230 0128 C6E7     		b	.L14
 231              	.L12:
 232              		.loc 1 142 0
 233 012a 02F11001 		add	r1, r2, #16
 234              		.loc 1 135 0
 235 012e 51F80A0C 		ldr	r0, [r1, #-10]
 236 0132 9842     		cmp	r0, r3
 237 0134 19D0     		beq	.L59
 238              	.L28:
 239              		.loc 1 142 0
 240 0136 01F11002 		add	r2, r1, #16
 241              		.loc 1 134 0
 242 013a A242     		cmp	r2, r4
 243 013c BCD0     		beq	.L14
 244              	.L13:
 245              		.loc 1 135 0
 246 013e 52F80A0C 		ldr	r0, [r2, #-10]
 247 0142 9842     		cmp	r0, r3
 248 0144 F1D1     		bne	.L12
 249              		.loc 1 142 0
 250 0146 02F11001 		add	r1, r2, #16
 251              		.loc 1 137 0
 252 014a 02F806EC 		strb	lr, [r2, #-6]
 253              		.loc 1 135 0
 254 014e 51F80A0C 		ldr	r0, [r1, #-10]
 255              		.loc 1 138 0
 256 0152 02F805CC 		strb	ip, [r2, #-5]
 257              		.loc 1 135 0
 258 0156 9842     		cmp	r0, r3
 259              		.loc 1 139 0
 260 0158 02F8048C 		strb	r8, [r2, #-4]
 261              		.loc 1 140 0
 262 015c 02F8039C 		strb	r9, [r2, #-3]
 263              		.loc 1 141 0
 264 0160 A2F800A0 		strh	sl, [r2, #0]	@ movhi
 265              		.loc 1 142 0
 266 0164 A2F802B0 		strh	fp, [r2, #2]	@ movhi
 267              		.loc 1 135 0
 268 0168 E5D1     		bne	.L28
 269              	.L59:
 270              		.loc 1 137 0
 271 016a 01F806EC 		strb	lr, [r1, #-6]
 272              		.loc 1 138 0
 273 016e 01F805CC 		strb	ip, [r1, #-5]
 274              		.loc 1 139 0
 275 0172 01F8048C 		strb	r8, [r1, #-4]
 276              		.loc 1 140 0
 277 0176 01F8039C 		strb	r9, [r1, #-3]
 278              		.loc 1 141 0
 279 017a A2F810A0 		strh	sl, [r2, #16]	@ movhi
 280              		.loc 1 142 0
 281 017e A1F802B0 		strh	fp, [r1, #2]	@ movhi
ARM GAS  C:\Users\DNIEL~1\AppData\Local\Temp\cc8JXkoo.s 			page 6


 282 0182 D8E7     		b	.L28
 283              	.L56:
 284              		.loc 1 149 0
 285 0184 2148     		ldr	r0, .L61+12
 286              		.loc 1 151 0
 287 0186 2349     		ldr	r1, .L61+20
 288              		.loc 1 149 0
 289 0188 0268     		ldr	r2, [r0, #0]
 290              		.loc 1 152 0
 291 018a B1F80EE0 		ldrh	lr, [r1, #14]
 292              		.loc 1 151 0
 293 018e 087B     		ldrb	r0, [r1, #12]	@ zero_extendqisi2
 294              		.loc 1 152 0
 295 0190 1E49     		ldr	r1, .L61+12
 296              		.loc 1 149 0
 297 0192 9342     		cmp	r3, r2
 298 0194 16D0     		beq	.L60
 299              	.L30:
 300 0196 0121     		movs	r1, #1
 301              		.loc 1 152 0
 302 0198 254A     		ldr	r2, .L61+48
 303 019a 29B1     		cbz	r1, .L16
 304              		.loc 1 149 0
 305 019c 1168     		ldr	r1, [r2, #0]
 306 019e 8B42     		cmp	r3, r1
 307 01a0 0CD0     		beq	.L47
 308              	.L35:
 309              		.loc 1 152 0
 310 01a2 1032     		adds	r2, r2, #16
 311              		.loc 1 148 0
 312 01a4 AA42     		cmp	r2, r5
 313 01a6 87D0     		beq	.L14
 314              	.L16:
 315              		.loc 1 149 0
 316 01a8 1168     		ldr	r1, [r2, #0]
 317 01aa 8B42     		cmp	r3, r1
 318 01ac 1169     		ldr	r1, [r2, #16]
 319              		.loc 1 151 0
 320 01ae 04BF     		itt	eq
 321 01b0 1072     		strbeq	r0, [r2, #8]
 322              		.loc 1 152 0
 323 01b2 A2F80EE0 		strheq	lr, [r2, #14]	@ movhi
 324 01b6 1032     		adds	r2, r2, #16
 325              		.loc 1 149 0
 326 01b8 8B42     		cmp	r3, r1
 327 01ba F2D1     		bne	.L35
 328              	.L47:
 329              		.loc 1 151 0
 330 01bc 1072     		strb	r0, [r2, #8]
 331              		.loc 1 152 0
 332 01be A2F80EE0 		strh	lr, [r2, #14]	@ movhi
 333 01c2 EEE7     		b	.L35
 334              	.L60:
 335              		.loc 1 151 0
 336 01c4 0872     		strb	r0, [r1, #8]
 337              		.loc 1 152 0
 338 01c6 A1F80EE0 		strh	lr, [r1, #14]	@ movhi
ARM GAS  C:\Users\DNIEL~1\AppData\Local\Temp\cc8JXkoo.s 			page 7


 339 01ca E4E7     		b	.L30
 340              	.L57:
 341              		.loc 1 137 0
 342 01cc 02F806EC 		strb	lr, [r2, #-6]
 343              		.loc 1 138 0
 344 01d0 02F805CC 		strb	ip, [r2, #-5]
 345              		.loc 1 139 0
 346 01d4 02F8048C 		strb	r8, [r2, #-4]
 347              		.loc 1 140 0
 348 01d8 02F8039C 		strb	r9, [r2, #-3]
 349              		.loc 1 141 0
 350 01dc A2F800A0 		strh	sl, [r2, #0]	@ movhi
 351              		.loc 1 142 0
 352 01e0 A2F802B0 		strh	fp, [r2, #2]	@ movhi
 353 01e4 97E7     		b	.L23
 354              	.L58:
 355              		.loc 1 137 0
 356 01e6 02F806EC 		strb	lr, [r2, #-6]
 357              		.loc 1 138 0
 358 01ea 02F805CC 		strb	ip, [r2, #-5]
 359              		.loc 1 139 0
 360 01ee 02F8048C 		strb	r8, [r2, #-4]
 361              		.loc 1 140 0
 362 01f2 02F8039C 		strb	r9, [r2, #-3]
 363              		.loc 1 141 0
 364 01f6 A2F800A0 		strh	sl, [r2, #0]	@ movhi
 365              		.loc 1 142 0
 366 01fa A2F802B0 		strh	fp, [r2, #2]	@ movhi
 367 01fe 90E7     		b	.L25
 368              	.L62:
 369              		.align	2
 370              	.L61:
 371 0200 00000000 		.word	rlist
 372 0204 00000000 		.word	.LC0
 373 0208 00000000 		.word	.LANCHOR0
 374 020c 00000000 		.word	.LANCHOR5
 375 0210 20000000 		.word	CAND1+32
 376 0214 00000000 		.word	.LANCHOR1
 377 0218 00000000 		.word	CAND1
 378 021c 00000000 		.word	.LANCHOR2
 379 0220 00000000 		.word	.LANCHOR3
 380 0224 00000000 		.word	.LANCHOR4
 381 0228 0A000000 		.word	.LANCHOR5+10
 382 022c 1A000000 		.word	.LANCHOR5+26
 383 0230 10000000 		.word	.LANCHOR5+16
 384              		.cfi_endproc
 385              	.LFE118:
 386              		.size	can_rx, .-can_rx
 387 0234 AFF30080 		.section	.text.can_commInit,"ax",%progbits
 387      AFF30080 
 387      AFF30080 
 388              		.align	2
 389              		.p2align 4,,15
 390              		.global	can_commInit
 391              		.thumb
 392              		.thumb_func
 393              		.type	can_commInit, %function
ARM GAS  C:\Users\DNIEL~1\AppData\Local\Temp\cc8JXkoo.s 			page 8


 394              	can_commInit:
 395              	.LFB120:
 396              		.loc 1 209 0
 397              		.cfi_startproc
 398              		@ args = 0, pretend = 0, frame = 0
 399              		@ frame_needed = 0, uses_anonymous_args = 0
 400 0000 00B5     		push	{lr}
 401              	.LCFI2:
 402              		.cfi_def_cfa_offset 4
 403              		.loc 1 210 0
 404 0002 0848     		ldr	r0, .L64
 405 0004 0849     		ldr	r1, .L64+4
 406              		.loc 1 209 0
 407 0006 83B0     		sub	sp, sp, #12
 408              	.LCFI3:
 409              		.cfi_def_cfa_offset 16
 410              		.loc 1 210 0
 411              		.cfi_offset 14, -4
 412 0008 FFF7FEFF 		bl	canStart
 413              		.loc 1 211 0
 414 000c 0022     		movs	r2, #0
 415 000e 0092     		str	r2, [sp, #0]
 416 0010 064B     		ldr	r3, .L64+8
 417 0012 0748     		ldr	r0, .L64+12
 418 0014 4FF4D871 		mov	r1, #432
 419 0018 4722     		movs	r2, #71
 420 001a FFF7FEFF 		bl	chThdCreateStatic
 421              		.loc 1 213 0
 422 001e 03B0     		add	sp, sp, #12
 423 0020 00BD     		pop	{pc}
 424              	.L65:
 425 0022 00BF     		.align	2
 426              	.L64:
 427 0024 00000000 		.word	CAND1
 428 0028 00000000 		.word	.LANCHOR6
 429 002c 00000000 		.word	can_rx
 430 0030 00000000 		.word	.LANCHOR7
 431              		.cfi_endproc
 432              	.LFE120:
 433              		.size	can_commInit, .-can_commInit
 434 0034 AFF30080 		.section	.text.cmd_can_commvalues,"ax",%progbits
 434      AFF30080 
 434      AFF30080 
 435              		.align	2
 436              		.p2align 4,,15
 437              		.global	cmd_can_commvalues
 438              		.thumb
 439              		.thumb_func
 440              		.type	cmd_can_commvalues, %function
 441              	cmd_can_commvalues:
 442              	.LFB121:
 443              		.loc 1 215 0
 444              		.cfi_startproc
 445              		@ args = 0, pretend = 0, frame = 0
 446              		@ frame_needed = 0, uses_anonymous_args = 0
 447              	.LVL3:
 448 0000 38B5     		push	{r3, r4, r5, lr}
ARM GAS  C:\Users\DNIEL~1\AppData\Local\Temp\cc8JXkoo.s 			page 9


 449              	.LCFI4:
 450              		.cfi_def_cfa_offset 16
 451              		.loc 1 219 0
 452 0002 1749     		ldr	r1, .L69
 453              	.LVL4:
 454              		.loc 1 223 0
 455 0004 174D     		ldr	r5, .L69+4
 456              		.cfi_offset 14, -4
 457              		.cfi_offset 5, -8
 458              		.cfi_offset 4, -12
 459              		.cfi_offset 3, -16
 460              		.loc 1 215 0
 461 0006 0446     		mov	r4, r0
 462              		.loc 1 219 0
 463 0008 FFF7FEFF 		bl	chprintf
 464              	.LVL5:
 465              		.loc 1 220 0
 466 000c 2046     		mov	r0, r4
 467 000e 1649     		ldr	r1, .L69+8
 468 0010 FFF7FEFF 		bl	chprintf
 469              		.loc 1 221 0
 470 0014 1AE0     		b	.L67
 471              	.L68:
 472              		.loc 1 222 0
 473 0016 0022     		movs	r2, #0
 474 0018 1346     		mov	r3, r2
 475 001a 2046     		mov	r0, r4
 476 001c 1349     		ldr	r1, .L69+12
 477 001e FFF7FEFF 		bl	chprintf
 478              		.loc 1 223 0
 479 0022 6A68     		ldr	r2, [r5, #4]
 480 0024 1249     		ldr	r1, .L69+16
 481 0026 22F06042 		bic	r2, r2, #-536870912
 482 002a 2046     		mov	r0, r4
 483 002c FFF7FEFF 		bl	chprintf
 484              		.loc 1 224 0
 485 0030 2046     		mov	r0, r4
 486 0032 1049     		ldr	r1, .L69+20
 487 0034 AA68     		ldr	r2, [r5, #8]
 488 0036 FFF7FEFF 		bl	chprintf
 489              		.loc 1 225 0
 490 003a 2046     		mov	r0, r4
 491 003c 0E49     		ldr	r1, .L69+24
 492 003e EA68     		ldr	r2, [r5, #12]
 493 0040 FFF7FEFF 		bl	chprintf
 494              		.loc 1 227 0
 495 0044 4FF47A70 		mov	r0, #1000
 496 0048 FFF7FEFF 		bl	chThdSleep
 497              	.L67:
 498              		.loc 1 221 0 discriminator 1
 499 004c 2168     		ldr	r1, [r4, #0]
 500 004e 2046     		mov	r0, r4
 501 0050 4B69     		ldr	r3, [r1, #20]
 502 0052 0021     		movs	r1, #0
 503 0054 9847     		blx	r3
 504 0056 B0F1FF3F 		cmp	r0, #-1
 505 005a DCD0     		beq	.L68
ARM GAS  C:\Users\DNIEL~1\AppData\Local\Temp\cc8JXkoo.s 			page 10


 506              		.loc 1 229 0
 507 005c 38BD     		pop	{r3, r4, r5, pc}
 508              	.L70:
 509 005e 00BF     		.align	2
 510              	.L69:
 511 0060 0C000000 		.word	.LC1
 512 0064 00000000 		.word	.LANCHOR8
 513 0068 10000000 		.word	.LC2
 514 006c 18000000 		.word	.LC3
 515 0070 24000000 		.word	.LC4
 516 0074 34000000 		.word	.LC5
 517 0078 48000000 		.word	.LC6
 518              		.cfi_endproc
 519              	.LFE121:
 520              		.size	cmd_can_commvalues, .-cmd_can_commvalues
 521 007c AFF30080 		.section	.text.cmd_canmppttest,"ax",%progbits
 522              		.align	2
 523              		.p2align 4,,15
 524              		.global	cmd_canmppttest
 525              		.thumb
 526              		.thumb_func
 527              		.type	cmd_canmppttest, %function
 528              	cmd_canmppttest:
 529              	.LFB122:
 530              		.loc 1 231 0
 531              		.cfi_startproc
 532              		@ args = 0, pretend = 0, frame = 0
 533              		@ frame_needed = 0, uses_anonymous_args = 0
 534              	.LVL6:
 535 0000 F8B5     		push	{r3, r4, r5, r6, r7, lr}
 536              	.LCFI5:
 537              		.cfi_def_cfa_offset 24
 538              		.loc 1 235 0
 539 0002 3A49     		ldr	r1, .L74
 540              	.LVL7:
 541              		.loc 1 241 0
 542 0004 3A4E     		ldr	r6, .L74+4
 543              		.cfi_offset 14, -4
 544              		.cfi_offset 7, -8
 545              		.cfi_offset 6, -12
 546              		.cfi_offset 5, -16
 547              		.cfi_offset 4, -20
 548              		.cfi_offset 3, -24
 549              		.loc 1 249 0
 550 0006 3B4D     		ldr	r5, .L74+8
 551              		.loc 1 257 0
 552 0008 3B4F     		ldr	r7, .L74+12
 553              		.loc 1 231 0
 554 000a 0446     		mov	r4, r0
 555              		.loc 1 235 0
 556 000c FFF7FEFF 		bl	chprintf
 557              	.LVL8:
 558              		.loc 1 236 0
 559 0010 2046     		mov	r0, r4
 560 0012 3A49     		ldr	r1, .L74+16
 561 0014 FFF7FEFF 		bl	chprintf
 562              		.loc 1 237 0
ARM GAS  C:\Users\DNIEL~1\AppData\Local\Temp\cc8JXkoo.s 			page 11


 563 0018 5FE0     		b	.L72
 564              	.L73:
 565              		.loc 1 238 0
 566 001a 0022     		movs	r2, #0
 567 001c 1346     		mov	r3, r2
 568 001e 3849     		ldr	r1, .L74+20
 569 0020 2046     		mov	r0, r4
 570 0022 FFF7FEFF 		bl	chprintf
 571              		.loc 1 240 0
 572 0026 2046     		mov	r0, r4
 573 0028 3649     		ldr	r1, .L74+24
 574 002a FFF7FEFF 		bl	chprintf
 575              		.loc 1 241 0
 576 002e 7368     		ldr	r3, [r6, #4]
 577 0030 3549     		ldr	r1, .L74+28
 578 0032 23F06042 		bic	r2, r3, #-536870912
 579 0036 2046     		mov	r0, r4
 580 0038 FFF7FEFF 		bl	chprintf
 581              		.loc 1 242 0
 582 003c 2046     		mov	r0, r4
 583 003e 3349     		ldr	r1, .L74+32
 584 0040 B268     		ldr	r2, [r6, #8]
 585 0042 FFF7FEFF 		bl	chprintf
 586              		.loc 1 243 0
 587 0046 F268     		ldr	r2, [r6, #12]
 588 0048 3149     		ldr	r1, .L74+36
 589 004a 2046     		mov	r0, r4
 590 004c FFF7FEFF 		bl	chprintf
 591              		.loc 1 244 0
 592 0050 2046     		mov	r0, r4
 593 0052 3049     		ldr	r1, .L74+40
 594 0054 FFF7FEFF 		bl	chprintf
 595              		.loc 1 248 0
 596 0058 2046     		mov	r0, r4
 597 005a 2F49     		ldr	r1, .L74+44
 598 005c FFF7FEFF 		bl	chprintf
 599              		.loc 1 249 0
 600 0060 AA68     		ldr	r2, [r5, #8]
 601 0062 2E49     		ldr	r1, .L74+48
 602 0064 22F06042 		bic	r2, r2, #-536870912
 603 0068 2046     		mov	r0, r4
 604 006a FFF7FEFF 		bl	chprintf
 605              		.loc 1 250 0
 606 006e 2046     		mov	r0, r4
 607 0070 2B49     		ldr	r1, .L74+52
 608 0072 2A7B     		ldrb	r2, [r5, #12]	@ zero_extendqisi2
 609 0074 FFF7FEFF 		bl	chprintf
 610              		.loc 1 251 0
 611 0078 2046     		mov	r0, r4
 612 007a 2A49     		ldr	r1, .L74+56
 613 007c 6A7B     		ldrb	r2, [r5, #13]	@ zero_extendqisi2
 614 007e FFF7FEFF 		bl	chprintf
 615              		.loc 1 252 0
 616 0082 2046     		mov	r0, r4
 617 0084 2849     		ldr	r1, .L74+60
 618 0086 AA7B     		ldrb	r2, [r5, #14]	@ zero_extendqisi2
 619 0088 FFF7FEFF 		bl	chprintf
ARM GAS  C:\Users\DNIEL~1\AppData\Local\Temp\cc8JXkoo.s 			page 12


 620              		.loc 1 253 0
 621 008c 2046     		mov	r0, r4
 622 008e 2749     		ldr	r1, .L74+64
 623 0090 EA7B     		ldrb	r2, [r5, #15]	@ zero_extendqisi2
 624 0092 FFF7FEFF 		bl	chprintf
 625              		.loc 1 254 0
 626 0096 2046     		mov	r0, r4
 627 0098 2549     		ldr	r1, .L74+68
 628 009a 2A8A     		ldrh	r2, [r5, #16]
 629 009c FFF7FEFF 		bl	chprintf
 630              		.loc 1 255 0
 631 00a0 6A8A     		ldrh	r2, [r5, #18]
 632 00a2 2449     		ldr	r1, .L74+72
 633 00a4 2046     		mov	r0, r4
 634 00a6 FFF7FEFF 		bl	chprintf
 635              		.loc 1 256 0
 636 00aa 2046     		mov	r0, r4
 637 00ac 1949     		ldr	r1, .L74+40
 638 00ae FFF7FEFF 		bl	chprintf
 639              		.loc 1 257 0
 640 00b2 2046     		mov	r0, r4
 641 00b4 2049     		ldr	r1, .L74+76
 642 00b6 3A68     		ldr	r2, [r7, #0]
 643 00b8 FFF7FEFF 		bl	chprintf
 644              		.loc 1 258 0
 645 00bc 1F48     		ldr	r0, .L74+80
 646 00be 2049     		ldr	r1, .L74+84
 647 00c0 0288     		ldrh	r2, [r0, #0]
 648 00c2 2046     		mov	r0, r4
 649 00c4 FFF7FEFF 		bl	chprintf
 650              		.loc 1 259 0
 651 00c8 1E4B     		ldr	r3, .L74+88
 652 00ca 1F49     		ldr	r1, .L74+92
 653 00cc 1A88     		ldrh	r2, [r3, #0]
 654 00ce 2046     		mov	r0, r4
 655 00d0 FFF7FEFF 		bl	chprintf
 656              		.loc 1 261 0
 657 00d4 FA20     		movs	r0, #250
 658 00d6 FFF7FEFF 		bl	chThdSleep
 659              	.L72:
 660              		.loc 1 237 0 discriminator 1
 661 00da 2168     		ldr	r1, [r4, #0]
 662 00dc 2046     		mov	r0, r4
 663 00de 4A69     		ldr	r2, [r1, #20]
 664 00e0 0021     		movs	r1, #0
 665 00e2 9047     		blx	r2
 666 00e4 B0F1FF3F 		cmp	r0, #-1
 667 00e8 97D0     		beq	.L73
 668              		.loc 1 263 0
 669 00ea F8BD     		pop	{r3, r4, r5, r6, r7, pc}
 670              	.L75:
 671              		.align	2
 672              	.L74:
 673 00ec 0C000000 		.word	.LC1
 674 00f0 00000000 		.word	.LANCHOR8
 675 00f4 00000000 		.word	.LANCHOR1
 676 00f8 00000000 		.word	.LANCHOR0
ARM GAS  C:\Users\DNIEL~1\AppData\Local\Temp\cc8JXkoo.s 			page 13


 677 00fc 10000000 		.word	.LC2
 678 0100 18000000 		.word	.LC3
 679 0104 5C000000 		.word	.LC7
 680 0108 84000000 		.word	.LC8
 681 010c A4000000 		.word	.LC9
 682 0110 C4000000 		.word	.LC10
 683 0114 E4000000 		.word	.LC11
 684 0118 E8000000 		.word	.LC12
 685 011c 10010000 		.word	.LC13
 686 0120 30010000 		.word	.LC14
 687 0124 50010000 		.word	.LC15
 688 0128 70010000 		.word	.LC16
 689 012c 90010000 		.word	.LC17
 690 0130 B0010000 		.word	.LC18
 691 0134 D0010000 		.word	.LC19
 692 0138 F0010000 		.word	.LC20
 693 013c 00000000 		.word	.LANCHOR2
 694 0140 10020000 		.word	.LC21
 695 0144 00000000 		.word	.LANCHOR3
 696 0148 30020000 		.word	.LC22
 697              		.cfi_endproc
 698              	.LFE122:
 699              		.size	cmd_canmppttest, .-cmd_canmppttest
 700 014c AFF30080 		.section	.text.cmd_candata,"ax",%progbits
 701              		.align	2
 702              		.p2align 4,,15
 703              		.global	cmd_candata
 704              		.thumb
 705              		.thumb_func
 706              		.type	cmd_candata, %function
 707              	cmd_candata:
 708              	.LFB123:
 709              		.loc 1 265 0
 710              		.cfi_startproc
 711              		@ args = 0, pretend = 0, frame = 0
 712              		@ frame_needed = 0, uses_anonymous_args = 0
 713              	.LVL9:
 714 0000 2DE9F041 		push	{r4, r5, r6, r7, r8, lr}
 715              	.LCFI6:
 716              		.cfi_def_cfa_offset 24
 717              		.loc 1 265 0
 718 0004 0446     		mov	r4, r0
 719              		.cfi_offset 14, -4
 720              		.cfi_offset 8, -8
 721              		.cfi_offset 7, -12
 722              		.cfi_offset 6, -16
 723              		.cfi_offset 5, -20
 724              		.cfi_offset 4, -24
 725 0006 0D46     		mov	r5, r1
 726              		.loc 1 272 0
 727 0008 3449     		ldr	r1, .L81
 728              	.LVL10:
 729              		.loc 1 265 0
 730 000a 1646     		mov	r6, r2
 731              		.loc 1 272 0
 732 000c FFF7FEFF 		bl	chprintf
 733              	.LVL11:
ARM GAS  C:\Users\DNIEL~1\AppData\Local\Temp\cc8JXkoo.s 			page 14


 734              		.loc 1 273 0
 735 0010 2046     		mov	r0, r4
 736 0012 3349     		ldr	r1, .L81+4
 737 0014 FFF7FEFF 		bl	chprintf
 738              		.loc 1 274 0
 739 0018 2168     		ldr	r1, [r4, #0]
 740 001a 2046     		mov	r0, r4
 741 001c 4B69     		ldr	r3, [r1, #20]
 742 001e 0021     		movs	r1, #0
 743 0020 9847     		blx	r3
 744 0022 B0F1FF3F 		cmp	r0, #-1
 745 0026 01D0     		beq	.L79
 746 0028 BDE8F081 		pop	{r4, r5, r6, r7, r8, pc}
 747              	.L79:
 748              	.LBB2:
 749              		.loc 1 275 0
 750 002c 0022     		movs	r2, #0
 751 002e 2046     		mov	r0, r4
 752 0030 2C49     		ldr	r1, .L81+8
 753 0032 1346     		mov	r3, r2
 754 0034 FFF7FEFF 		bl	chprintf
 755              		.loc 1 277 0
 756 0038 022D     		cmp	r5, #2
 757 003a 04D1     		bne	.L78
 758              		.loc 1 277 0 is_stmt 0 discriminator 1
 759 003c 3068     		ldr	r0, [r6, #0]
 760 003e 2A49     		ldr	r1, .L81+12
 761 0040 FFF7FEFF 		bl	strcmp
 762 0044 28B1     		cbz	r0, .L80
 763              	.L78:
 764              		.loc 1 294 0 is_stmt 1
 765 0046 2949     		ldr	r1, .L81+16
 766 0048 2046     		mov	r0, r4
 767              	.LBE2:
 768              		.loc 1 300 0
 769 004a BDE8F041 		pop	{r4, r5, r6, r7, r8, lr}
 770              	.LBB3:
 771              		.loc 1 294 0
 772 004e FFF7FEBF 		b	chprintf
 773              	.L80:
 774              		.loc 1 279 0
 775 0052 7068     		ldr	r0, [r6, #4]
 776 0054 FFF7FEFF 		bl	atol
 777              	.LVL12:
 778              		.loc 1 281 0
 779 0058 05B2     		sxth	r5, r0
 780              	.LVL13:
 781 005a 2A46     		mov	r2, r5
 782 005c 2046     		mov	r0, r4
 783              	.LVL14:
 784 005e 2023     		movs	r3, #32
 785 0060 2349     		ldr	r1, .L81+20
 786 0062 FFF7FEFF 		bl	chprintf
 787              		.loc 1 282 0
 788 0066 2348     		ldr	r0, .L81+24
 789 0068 2349     		ldr	r1, .L81+28
 790 006a 2B01     		lsls	r3, r5, #4
ARM GAS  C:\Users\DNIEL~1\AppData\Local\Temp\cc8JXkoo.s 			page 15


 791 006c C618     		adds	r6, r0, r3
 792              	.LVL15:
 793 006e 2A46     		mov	r2, r5
 794 0070 C358     		ldr	r3, [r0, r3]
 795 0072 2046     		mov	r0, r4
 796 0074 FFF7FEFF 		bl	chprintf
 797              		.loc 1 283 0
 798 0078 2046     		mov	r0, r4
 799 007a 3379     		ldrb	r3, [r6, #4]	@ zero_extendqisi2
 800 007c 1F49     		ldr	r1, .L81+32
 801 007e 2A46     		mov	r2, r5
 802 0080 FFF7FEFF 		bl	chprintf
 803              		.loc 1 284 0
 804 0084 2046     		mov	r0, r4
 805 0086 7379     		ldrb	r3, [r6, #5]	@ zero_extendqisi2
 806 0088 1D49     		ldr	r1, .L81+36
 807 008a 2A46     		mov	r2, r5
 808 008c FFF7FEFF 		bl	chprintf
 809              		.loc 1 285 0
 810 0090 2046     		mov	r0, r4
 811 0092 B379     		ldrb	r3, [r6, #6]	@ zero_extendqisi2
 812 0094 1B49     		ldr	r1, .L81+40
 813 0096 2A46     		mov	r2, r5
 814 0098 FFF7FEFF 		bl	chprintf
 815              		.loc 1 286 0
 816 009c 2046     		mov	r0, r4
 817 009e F379     		ldrb	r3, [r6, #7]	@ zero_extendqisi2
 818 00a0 1949     		ldr	r1, .L81+44
 819 00a2 2A46     		mov	r2, r5
 820 00a4 FFF7FEFF 		bl	chprintf
 821              		.loc 1 287 0
 822 00a8 337A     		ldrb	r3, [r6, #8]	@ zero_extendqisi2
 823 00aa 1849     		ldr	r1, .L81+48
 824 00ac 2A46     		mov	r2, r5
 825 00ae 2046     		mov	r0, r4
 826 00b0 FFF7FEFF 		bl	chprintf
 827              		.loc 1 288 0
 828 00b4 2046     		mov	r0, r4
 829 00b6 7389     		ldrh	r3, [r6, #10]
 830 00b8 1549     		ldr	r1, .L81+52
 831 00ba 2A46     		mov	r2, r5
 832 00bc FFF7FEFF 		bl	chprintf
 833              		.loc 1 289 0
 834 00c0 2046     		mov	r0, r4
 835 00c2 B389     		ldrh	r3, [r6, #12]
 836 00c4 1349     		ldr	r1, .L81+56
 837 00c6 2A46     		mov	r2, r5
 838 00c8 FFF7FEFF 		bl	chprintf
 839              		.loc 1 290 0
 840 00cc 1249     		ldr	r1, .L81+60
 841 00ce F389     		ldrh	r3, [r6, #14]
 842 00d0 2046     		mov	r0, r4
 843 00d2 2A46     		mov	r2, r5
 844              	.LBE3:
 845              		.loc 1 300 0
 846 00d4 BDE8F041 		pop	{r4, r5, r6, r7, r8, lr}
 847              	.LBB4:
ARM GAS  C:\Users\DNIEL~1\AppData\Local\Temp\cc8JXkoo.s 			page 16


 848              		.loc 1 290 0
 849 00d8 FFF7FEBF 		b	chprintf
 850              	.L82:
 851              		.align	2
 852              	.L81:
 853 00dc 0C000000 		.word	.LC1
 854 00e0 10000000 		.word	.LC2
 855 00e4 18000000 		.word	.LC3
 856 00e8 50020000 		.word	.LC23
 857 00ec 14040000 		.word	.LC34
 858 00f0 54020000 		.word	.LC24
 859 00f4 00000000 		.word	.LANCHOR5
 860 00f8 88020000 		.word	.LC25
 861 00fc B4020000 		.word	.LC26
 862 0100 E0020000 		.word	.LC27
 863 0104 0C030000 		.word	.LC28
 864 0108 38030000 		.word	.LC29
 865 010c 64030000 		.word	.LC30
 866 0110 90030000 		.word	.LC31
 867 0114 BC030000 		.word	.LC32
 868 0118 E8030000 		.word	.LC33
 869              	.LBE4:
 870              		.cfi_endproc
 871              	.LFE123:
 872              		.size	cmd_candata, .-cmd_candata
 873              		.global	canstate
 874 011c AFF30080 		.section	.bss.id,"aw",%nobits
 875              		.align	1
 876              		.set	.LANCHOR2,. + 0
 877              		.type	id, %object
 878              		.size	id, 2
 879              	id:
 880 0000 0000     		.space	2
 881              		.section	.bss.txmsg,"aw",%nobits
 882              		.align	2
 883              		.set	.LANCHOR8,. + 0
 884              		.type	txmsg, %object
 885              		.size	txmsg, 16
 886              	txmsg:
 887 0000 00000000 		.space	16
 887      00000000 
 887      00000000 
 887      00000000 
 888              		.section	.bss.seged,"aw",%nobits
 889              		.align	2
 890              		.set	.LANCHOR0,. + 0
 891              		.type	seged, %object
 892              		.size	seged, 4
 893              	seged:
 894 0000 00000000 		.space	4
 895              		.section	.bss.can_rx_wa,"aw",%nobits
 896              		.align	3
 897              		.set	.LANCHOR7,. + 0
 898              		.type	can_rx_wa, %object
 899              		.size	can_rx_wa, 432
 900              	can_rx_wa:
 901 0000 00000000 		.space	432
ARM GAS  C:\Users\DNIEL~1\AppData\Local\Temp\cc8JXkoo.s 			page 17


 901      00000000 
 901      00000000 
 901      00000000 
 901      00000000 
 902              		.section	.data.lcitems,"aw",%progbits
 903              		.align	2
 904              		.set	.LANCHOR5,. + 0
 905              		.type	lcitems, %object
 906              		.size	lcitems, 512
 907              	lcitems:
 908 0000 40000000 		.word	64
 909 0004 00       		.byte	0
 910 0005 00       		.byte	0
 911 0006 00       		.byte	0
 912 0007 00       		.byte	0
 913 0008 00       		.byte	0
 914 0009 00       		.space	1
 915 000a 0000     		.short	0
 916 000c 0000     		.short	0
 917 000e 0000     		.short	0
 918 0010 41000000 		.word	65
 919 0014 00       		.byte	0
 920 0015 00       		.byte	0
 921 0016 00       		.byte	0
 922 0017 00       		.byte	0
 923 0018 00       		.byte	0
 924 0019 00       		.space	1
 925 001a 0000     		.short	0
 926 001c 0000     		.short	0
 927 001e 0000     		.short	0
 928 0020 42000000 		.word	66
 929 0024 00       		.byte	0
 930 0025 00       		.byte	0
 931 0026 00       		.byte	0
 932 0027 00       		.byte	0
 933 0028 00       		.byte	0
 934 0029 00       		.space	1
 935 002a 0000     		.short	0
 936 002c 0000     		.short	0
 937 002e 0000     		.short	0
 938 0030 43000000 		.word	67
 939 0034 00       		.byte	0
 940 0035 00       		.byte	0
 941 0036 00       		.byte	0
 942 0037 00       		.byte	0
 943 0038 00       		.byte	0
 944 0039 00       		.space	1
 945 003a 0000     		.short	0
 946 003c 0000     		.short	0
 947 003e 0000     		.short	0
 948 0040 44000000 		.word	68
 949 0044 00       		.byte	0
 950 0045 00       		.byte	0
 951 0046 00       		.byte	0
 952 0047 00       		.byte	0
 953 0048 00       		.byte	0
 954 0049 00       		.space	1
ARM GAS  C:\Users\DNIEL~1\AppData\Local\Temp\cc8JXkoo.s 			page 18


 955 004a 0000     		.short	0
 956 004c 0000     		.short	0
 957 004e 0000     		.short	0
 958 0050 45000000 		.word	69
 959 0054 00       		.byte	0
 960 0055 00       		.byte	0
 961 0056 00       		.byte	0
 962 0057 00       		.byte	0
 963 0058 00       		.byte	0
 964 0059 00       		.space	1
 965 005a 0000     		.short	0
 966 005c 0000     		.short	0
 967 005e 0000     		.short	0
 968 0060 46000000 		.word	70
 969 0064 00       		.byte	0
 970 0065 00       		.byte	0
 971 0066 00       		.byte	0
 972 0067 00       		.byte	0
 973 0068 00       		.byte	0
 974 0069 00       		.space	1
 975 006a 0000     		.short	0
 976 006c 0000     		.short	0
 977 006e 0000     		.short	0
 978 0070 47000000 		.word	71
 979 0074 00       		.byte	0
 980 0075 00       		.byte	0
 981 0076 00       		.byte	0
 982 0077 00       		.byte	0
 983 0078 00       		.byte	0
 984 0079 00       		.space	1
 985 007a 0000     		.short	0
 986 007c 0000     		.short	0
 987 007e 0000     		.short	0
 988 0080 48000000 		.word	72
 989 0084 00       		.byte	0
 990 0085 00       		.byte	0
 991 0086 00       		.byte	0
 992 0087 00       		.byte	0
 993 0088 00       		.byte	0
 994 0089 00       		.space	1
 995 008a 0000     		.short	0
 996 008c 0000     		.short	0
 997 008e 0000     		.short	0
 998 0090 49000000 		.word	73
 999 0094 00       		.byte	0
 1000 0095 00       		.byte	0
 1001 0096 00       		.byte	0
 1002 0097 00       		.byte	0
 1003 0098 00       		.byte	0
 1004 0099 00       		.space	1
 1005 009a 0000     		.short	0
 1006 009c 0000     		.short	0
 1007 009e 0000     		.short	0
 1008 00a0 4A000000 		.word	74
 1009 00a4 00       		.byte	0
 1010 00a5 00       		.byte	0
 1011 00a6 00       		.byte	0
ARM GAS  C:\Users\DNIEL~1\AppData\Local\Temp\cc8JXkoo.s 			page 19


 1012 00a7 00       		.byte	0
 1013 00a8 00       		.byte	0
 1014 00a9 00       		.space	1
 1015 00aa 0000     		.short	0
 1016 00ac 0000     		.short	0
 1017 00ae 0000     		.short	0
 1018 00b0 4B000000 		.word	75
 1019 00b4 00       		.byte	0
 1020 00b5 00       		.byte	0
 1021 00b6 00       		.byte	0
 1022 00b7 00       		.byte	0
 1023 00b8 00       		.byte	0
 1024 00b9 00       		.space	1
 1025 00ba 0000     		.short	0
 1026 00bc 0000     		.short	0
 1027 00be 0000     		.short	0
 1028 00c0 4C000000 		.word	76
 1029 00c4 00       		.byte	0
 1030 00c5 00       		.byte	0
 1031 00c6 00       		.byte	0
 1032 00c7 00       		.byte	0
 1033 00c8 00       		.byte	0
 1034 00c9 00       		.space	1
 1035 00ca 0000     		.short	0
 1036 00cc 0000     		.short	0
 1037 00ce 0000     		.short	0
 1038 00d0 4D000000 		.word	77
 1039 00d4 00       		.byte	0
 1040 00d5 00       		.byte	0
 1041 00d6 00       		.byte	0
 1042 00d7 00       		.byte	0
 1043 00d8 00       		.byte	0
 1044 00d9 00       		.space	1
 1045 00da 0000     		.short	0
 1046 00dc 0000     		.short	0
 1047 00de 0000     		.short	0
 1048 00e0 4E000000 		.word	78
 1049 00e4 00       		.byte	0
 1050 00e5 00       		.byte	0
 1051 00e6 00       		.byte	0
 1052 00e7 00       		.byte	0
 1053 00e8 00       		.byte	0
 1054 00e9 00       		.space	1
 1055 00ea 0000     		.short	0
 1056 00ec 0000     		.short	0
 1057 00ee 0000     		.short	0
 1058 00f0 4F000000 		.word	79
 1059 00f4 00       		.byte	0
 1060 00f5 00       		.byte	0
 1061 00f6 00       		.byte	0
 1062 00f7 00       		.byte	0
 1063 00f8 00       		.byte	0
 1064 00f9 00       		.space	1
 1065 00fa 0000     		.short	0
 1066 00fc 0000     		.short	0
 1067 00fe 0000     		.short	0
 1068 0100 50000000 		.word	80
ARM GAS  C:\Users\DNIEL~1\AppData\Local\Temp\cc8JXkoo.s 			page 20


 1069 0104 00       		.byte	0
 1070 0105 00       		.byte	0
 1071 0106 00       		.byte	0
 1072 0107 00       		.byte	0
 1073 0108 00       		.byte	0
 1074 0109 00       		.space	1
 1075 010a 0000     		.short	0
 1076 010c 0000     		.short	0
 1077 010e 0000     		.short	0
 1078 0110 51000000 		.word	81
 1079 0114 00       		.byte	0
 1080 0115 00       		.byte	0
 1081 0116 00       		.byte	0
 1082 0117 00       		.byte	0
 1083 0118 00       		.byte	0
 1084 0119 00       		.space	1
 1085 011a 0000     		.short	0
 1086 011c 0000     		.short	0
 1087 011e 0000     		.short	0
 1088 0120 52000000 		.word	82
 1089 0124 00       		.byte	0
 1090 0125 00       		.byte	0
 1091 0126 00       		.byte	0
 1092 0127 00       		.byte	0
 1093 0128 00       		.byte	0
 1094 0129 00       		.space	1
 1095 012a 0000     		.short	0
 1096 012c 0000     		.short	0
 1097 012e 0000     		.short	0
 1098 0130 53000000 		.word	83
 1099 0134 00       		.byte	0
 1100 0135 00       		.byte	0
 1101 0136 00       		.byte	0
 1102 0137 00       		.byte	0
 1103 0138 00       		.byte	0
 1104 0139 00       		.space	1
 1105 013a 0000     		.short	0
 1106 013c 0000     		.short	0
 1107 013e 0000     		.short	0
 1108 0140 54000000 		.word	84
 1109 0144 00       		.byte	0
 1110 0145 00       		.byte	0
 1111 0146 00       		.byte	0
 1112 0147 00       		.byte	0
 1113 0148 00       		.byte	0
 1114 0149 00       		.space	1
 1115 014a 0000     		.short	0
 1116 014c 0000     		.short	0
 1117 014e 0000     		.short	0
 1118 0150 55000000 		.word	85
 1119 0154 00       		.byte	0
 1120 0155 00       		.byte	0
 1121 0156 00       		.byte	0
 1122 0157 00       		.byte	0
 1123 0158 00       		.byte	0
 1124 0159 00       		.space	1
 1125 015a 0000     		.short	0
ARM GAS  C:\Users\DNIEL~1\AppData\Local\Temp\cc8JXkoo.s 			page 21


 1126 015c 0000     		.short	0
 1127 015e 0000     		.short	0
 1128 0160 56000000 		.word	86
 1129 0164 00       		.byte	0
 1130 0165 00       		.byte	0
 1131 0166 00       		.byte	0
 1132 0167 00       		.byte	0
 1133 0168 00       		.byte	0
 1134 0169 00       		.space	1
 1135 016a 0000     		.short	0
 1136 016c 0000     		.short	0
 1137 016e 0000     		.short	0
 1138 0170 57000000 		.word	87
 1139 0174 00       		.byte	0
 1140 0175 00       		.byte	0
 1141 0176 00       		.byte	0
 1142 0177 00       		.byte	0
 1143 0178 00       		.byte	0
 1144 0179 00       		.space	1
 1145 017a 0000     		.short	0
 1146 017c 0000     		.short	0
 1147 017e 0000     		.short	0
 1148 0180 58000000 		.word	88
 1149 0184 00       		.byte	0
 1150 0185 00       		.byte	0
 1151 0186 00       		.byte	0
 1152 0187 00       		.byte	0
 1153 0188 00       		.byte	0
 1154 0189 00       		.space	1
 1155 018a 0000     		.short	0
 1156 018c 0000     		.short	0
 1157 018e 0000     		.short	0
 1158 0190 59000000 		.word	89
 1159 0194 00       		.byte	0
 1160 0195 00       		.byte	0
 1161 0196 00       		.byte	0
 1162 0197 00       		.byte	0
 1163 0198 00       		.byte	0
 1164 0199 00       		.space	1
 1165 019a 0000     		.short	0
 1166 019c 0000     		.short	0
 1167 019e 0000     		.short	0
 1168 01a0 5A000000 		.word	90
 1169 01a4 00       		.byte	0
 1170 01a5 00       		.byte	0
 1171 01a6 00       		.byte	0
 1172 01a7 00       		.byte	0
 1173 01a8 00       		.byte	0
 1174 01a9 00       		.space	1
 1175 01aa 0000     		.short	0
 1176 01ac 0000     		.short	0
 1177 01ae 0000     		.short	0
 1178 01b0 5B000000 		.word	91
 1179 01b4 00       		.byte	0
 1180 01b5 00       		.byte	0
 1181 01b6 00       		.byte	0
 1182 01b7 00       		.byte	0
ARM GAS  C:\Users\DNIEL~1\AppData\Local\Temp\cc8JXkoo.s 			page 22


 1183 01b8 00       		.byte	0
 1184 01b9 00       		.space	1
 1185 01ba 0000     		.short	0
 1186 01bc 0000     		.short	0
 1187 01be 0000     		.short	0
 1188 01c0 5C000000 		.word	92
 1189 01c4 00       		.byte	0
 1190 01c5 00       		.byte	0
 1191 01c6 00       		.byte	0
 1192 01c7 00       		.byte	0
 1193 01c8 00       		.byte	0
 1194 01c9 00       		.space	1
 1195 01ca 0000     		.short	0
 1196 01cc 0000     		.short	0
 1197 01ce 0000     		.short	0
 1198 01d0 5D000000 		.word	93
 1199 01d4 00       		.byte	0
 1200 01d5 00       		.byte	0
 1201 01d6 00       		.byte	0
 1202 01d7 00       		.byte	0
 1203 01d8 00       		.byte	0
 1204 01d9 00       		.space	1
 1205 01da 0000     		.short	0
 1206 01dc 0000     		.short	0
 1207 01de 0000     		.short	0
 1208 01e0 5E000000 		.word	94
 1209 01e4 00       		.byte	0
 1210 01e5 00       		.byte	0
 1211 01e6 00       		.byte	0
 1212 01e7 00       		.byte	0
 1213 01e8 00       		.byte	0
 1214 01e9 00       		.space	1
 1215 01ea 0000     		.short	0
 1216 01ec 0000     		.short	0
 1217 01ee 0000     		.short	0
 1218 01f0 5F000000 		.word	95
 1219 01f4 00       		.byte	0
 1220 01f5 00       		.byte	0
 1221 01f6 00       		.byte	0
 1222 01f7 00       		.byte	0
 1223 01f8 00       		.byte	0
 1224 01f9 00       		.space	1
 1225 01fa 0000     		.short	0
 1226 01fc 0000     		.short	0
 1227 01fe 0000     		.short	0
 1228              		.section	.rodata.str1.4,"aMS",%progbits,1
 1229              		.align	2
 1230              	.LC0:
 1231 0000 72656365 		.ascii	"receiver\000"
 1231      69766572 
 1231      00
 1232 0009 000000   		.space	3
 1233              	.LC1:
 1234 000c 1B6300   		.ascii	"\033c\000"
 1235 000f 00       		.space	1
 1236              	.LC2:
 1237 0010 1B5B324A 		.ascii	"\033[2J\000"
ARM GAS  C:\Users\DNIEL~1\AppData\Local\Temp\cc8JXkoo.s 			page 23


 1237      00
 1238 0015 000000   		.space	3
 1239              	.LC3:
 1240 0018 1B5B2564 		.ascii	"\033[%d;%dH\000"
 1240      3B256448 
 1240      00
 1241 0021 000000   		.space	3
 1242              	.LC4:
 1243 0024 52582E45 		.ascii	"RX.EID : %x \015\012\000"
 1243      4944203A 
 1243      20257820 
 1243      0D0A00
 1244 0033 00       		.space	1
 1245              	.LC5:
 1246 0034 52582E44 		.ascii	"RX.DATA1 : %x \015\012\000"
 1246      41544131 
 1246      203A2025 
 1246      78200D0A 
 1246      00
 1247 0045 000000   		.space	3
 1248              	.LC6:
 1249 0048 52582E44 		.ascii	"RX.DATA2 : %x \015\012\000"
 1249      41544132 
 1249      203A2025 
 1249      78200D0A 
 1249      00
 1250 0059 000000   		.space	3
 1251              	.LC7:
 1252 005c 2D2D2D2D 		.ascii	"----------- CAN Transmit ------------\015\012\000"
 1252      2D2D2D2D 
 1252      2D2D2D20 
 1252      43414E20 
 1252      5472616E 
 1253              	.LC8:
 1254 0084 54582E45 		.ascii	"TX.EID              : %15x \015\012\000"
 1254      49442020 
 1254      20202020 
 1254      20202020 
 1254      20202020 
 1255 00a2 0000     		.space	2
 1256              	.LC9:
 1257 00a4 54582E44 		.ascii	"TX.DATA32_1         : %15x \015\012\000"
 1257      41544133 
 1257      325F3120 
 1257      20202020 
 1257      20202020 
 1258 00c2 0000     		.space	2
 1259              	.LC10:
 1260 00c4 54582E44 		.ascii	"TX.DATA32_2         : %15x \015\012\000"
 1260      41544133 
 1260      325F3220 
 1260      20202020 
 1260      20202020 
 1261 00e2 0000     		.space	2
 1262              	.LC11:
 1263 00e4 0D0A00   		.ascii	"\015\012\000"
 1264 00e7 00       		.space	1
ARM GAS  C:\Users\DNIEL~1\AppData\Local\Temp\cc8JXkoo.s 			page 24


 1265              	.LC12:
 1266 00e8 2D2D2D2D 		.ascii	"----------- CAN Receive -------------\015\012\000"
 1266      2D2D2D2D 
 1266      2D2D2D20 
 1266      43414E20 
 1266      52656365 
 1267              	.LC13:
 1268 0110 52582E45 		.ascii	"RX.EID              : %15x \015\012\000"
 1268      49442020 
 1268      20202020 
 1268      20202020 
 1268      20202020 
 1269 012e 0000     		.space	2
 1270              	.LC14:
 1271 0130 52582E44 		.ascii	"RX.DATA8_1 (NTC)    : %15d \015\012\000"
 1271      41544138 
 1271      5F312028 
 1271      4E544329 
 1271      20202020 
 1272 014e 0000     		.space	2
 1273              	.LC15:
 1274 0150 52582E44 		.ascii	"RX.DATA8_2 (IN_CUR) : %15d \015\012\000"
 1274      41544138 
 1274      5F322028 
 1274      494E5F43 
 1274      55522920 
 1275 016e 0000     		.space	2
 1276              	.LC16:
 1277 0170 52582E44 		.ascii	"RX.DATA8_3 (OUT_CUR): %15d \015\012\000"
 1277      41544138 
 1277      5F332028 
 1277      4F55545F 
 1277      43555229 
 1278 018e 0000     		.space	2
 1279              	.LC17:
 1280 0190 52582E44 		.ascii	"RX.DATA8_4 (EFF)    : %15d \015\012\000"
 1280      41544138 
 1280      5F342028 
 1280      45464629 
 1280      20202020 
 1281 01ae 0000     		.space	2
 1282              	.LC18:
 1283 01b0 52582E44 		.ascii	"RX.DATA8_5 (VIN)    : %15d \015\012\000"
 1283      41544138 
 1283      5F352028 
 1283      56494E29 
 1283      20202020 
 1284 01ce 0000     		.space	2
 1285              	.LC19:
 1286 01d0 52582E44 		.ascii	"RX.DATA8_5 (VOUT)   : %15d \015\012\000"
 1286      41544138 
 1286      5F352028 
 1286      564F5554 
 1286      29202020 
 1287 01ee 0000     		.space	2
 1288              	.LC20:
 1289 01f0 73656765 		.ascii	"seged               : %15d \015\012\000"
ARM GAS  C:\Users\DNIEL~1\AppData\Local\Temp\cc8JXkoo.s 			page 25


 1289      64202020 
 1289      20202020 
 1289      20202020 
 1289      20202020 
 1290 020e 0000     		.space	2
 1291              	.LC21:
 1292 0210 69642020 		.ascii	"id                  : %15x \015\012\000"
 1292      20202020 
 1292      20202020 
 1292      20202020 
 1292      20202020 
 1293 022e 0000     		.space	2
 1294              	.LC22:
 1295 0230 6D657373 		.ascii	"messages            : %15x \015\012\000"
 1295      61676573 
 1295      20202020 
 1295      20202020 
 1295      20202020 
 1296 024e 0000     		.space	2
 1297              	.LC23:
 1298 0250 6C6300   		.ascii	"lc\000"
 1299 0253 00       		.space	1
 1300              	.LC24:
 1301 0254 2D2D2D2D 		.ascii	"-------------- luxCControl %d/%d --------------\015"
 1301      2D2D2D2D 
 1301      2D2D2D2D 
 1301      2D2D206C 
 1301      75784343 
 1302 0284 0A00     		.ascii	"\012\000"
 1303 0286 0000     		.space	2
 1304              	.LC25:
 1305 0288 6C636974 		.ascii	"lcitems[%d].id         (ID)     : %15x \015\012\000"
 1305      656D735B 
 1305      25645D2E 
 1305      69642020 
 1305      20202020 
 1306 02b2 0000     		.space	2
 1307              	.LC26:
 1308 02b4 6C636974 		.ascii	"lcitems[%d].temp       (NTC)    : %15d \015\012\000"
 1308      656D735B 
 1308      25645D2E 
 1308      74656D70 
 1308      20202020 
 1309 02de 0000     		.space	2
 1310              	.LC27:
 1311 02e0 6C636974 		.ascii	"lcitems[%d].curr_in    (IN_CUR) : %15d \015\012\000"
 1311      656D735B 
 1311      25645D2E 
 1311      63757272 
 1311      5F696E20 
 1312 030a 0000     		.space	2
 1313              	.LC28:
 1314 030c 6C636974 		.ascii	"lcitems[%d].curr_out   (OUT_CUR): %15d \015\012\000"
 1314      656D735B 
 1314      25645D2E 
 1314      63757272 
 1314      5F6F7574 
ARM GAS  C:\Users\DNIEL~1\AppData\Local\Temp\cc8JXkoo.s 			page 26


 1315 0336 0000     		.space	2
 1316              	.LC29:
 1317 0338 6C636974 		.ascii	"lcitems[%d].efficiency (EFF)    : %15d \015\012\000"
 1317      656D735B 
 1317      25645D2E 
 1317      65666669 
 1317      6369656E 
 1318 0362 0000     		.space	2
 1319              	.LC30:
 1320 0364 6C636974 		.ascii	"lcitems[%d].status     (STATUS) : %15d \015\012\000"
 1320      656D735B 
 1320      25645D2E 
 1320      73746174 
 1320      75732020 
 1321 038e 0000     		.space	2
 1322              	.LC31:
 1323 0390 6C636974 		.ascii	"lcitems[%d].volt_in    (VIN)    : %15d \015\012\000"
 1323      656D735B 
 1323      25645D2E 
 1323      766F6C74 
 1323      5F696E20 
 1324 03ba 0000     		.space	2
 1325              	.LC32:
 1326 03bc 6C636974 		.ascii	"lcitems[%d].volt_out   (VOUT)   : %15d \015\012\000"
 1326      656D735B 
 1326      25645D2E 
 1326      766F6C74 
 1326      5F6F7574 
 1327 03e6 0000     		.space	2
 1328              	.LC33:
 1329 03e8 6C636974 		.ascii	"lcitems[%d].pwm        (PWM)    : %15d \015\012\000"
 1329      656D735B 
 1329      25645D2E 
 1329      70776D20 
 1329      20202020 
 1330 0412 0000     		.space	2
 1331              	.LC34:
 1332 0414 54686973 		.ascii	"This not good parameters!\015\012\000"
 1332      206E6F74 
 1332      20676F6F 
 1332      64207061 
 1332      72616D65 
 1333              		.section	.bss.canstate,"aw",%nobits
 1334              		.set	.LANCHOR4,. + 0
 1335              		.type	canstate, %object
 1336              		.size	canstate, 1
 1337              	canstate:
 1338 0000 00       		.space	1
 1339              		.section	.bss.messages,"aw",%nobits
 1340              		.align	1
 1341              		.set	.LANCHOR3,. + 0
 1342              		.type	messages, %object
 1343              		.size	messages, 2
 1344              	messages:
 1345 0000 0000     		.space	2
 1346              		.section	.bss.rxmsg,"aw",%nobits
 1347              		.align	2
ARM GAS  C:\Users\DNIEL~1\AppData\Local\Temp\cc8JXkoo.s 			page 27


 1348              		.set	.LANCHOR1,. + 0
 1349              		.type	rxmsg, %object
 1350              		.size	rxmsg, 20
 1351              	rxmsg:
 1352 0000 00000000 		.space	20
 1352      00000000 
 1352      00000000 
 1352      00000000 
 1352      00000000 
 1353              		.section	.rodata.cancfg,"a",%progbits
 1354              		.align	2
 1355              		.set	.LANCHOR6,. + 0
 1356              		.type	cancfg, %object
 1357              		.size	cancfg, 16
 1358              	cancfg:
 1359 0000 40000000 		.word	64
 1360 0004 06001800 		.word	1572870
 1361 0008 00000000 		.word	0
 1362 000c 00000000 		.word	0
 1363              		.text
 1364              	.Letext0:
 1365              		.section	.debug_loc,"",%progbits
 1366              	.Ldebug_loc0:
 1367              	.LLST0:
 1368 0000 00000000 		.4byte	.LFB118
 1369 0004 04000000 		.4byte	.LCFI0
 1370 0008 0200     		.2byte	0x2
 1371 000a 7D       		.byte	0x7d
 1372 000b 00       		.sleb128 0
 1373 000c 04000000 		.4byte	.LCFI0
 1374 0010 12000000 		.4byte	.LCFI1
 1375 0014 0200     		.2byte	0x2
 1376 0016 7D       		.byte	0x7d
 1377 0017 24       		.sleb128 36
 1378 0018 12000000 		.4byte	.LCFI1
 1379 001c 34020000 		.4byte	.LFE118
 1380 0020 0200     		.2byte	0x2
 1381 0022 7D       		.byte	0x7d
 1382 0023 38       		.sleb128 56
 1383 0024 00000000 		.4byte	0x0
 1384 0028 00000000 		.4byte	0x0
 1385              	.LLST1:
 1386 002c 00000000 		.4byte	.LVL0
 1387 0030 08000000 		.4byte	.LVL1
 1388 0034 0100     		.2byte	0x1
 1389 0036 50       		.byte	0x50
 1390 0037 00000000 		.4byte	0x0
 1391 003b 00000000 		.4byte	0x0
 1392              	.LLST2:
 1393 003f 00000000 		.4byte	.LFB120
 1394 0043 02000000 		.4byte	.LCFI2
 1395 0047 0200     		.2byte	0x2
 1396 0049 7D       		.byte	0x7d
 1397 004a 00       		.sleb128 0
 1398 004b 02000000 		.4byte	.LCFI2
 1399 004f 08000000 		.4byte	.LCFI3
 1400 0053 0200     		.2byte	0x2
ARM GAS  C:\Users\DNIEL~1\AppData\Local\Temp\cc8JXkoo.s 			page 28


 1401 0055 7D       		.byte	0x7d
 1402 0056 04       		.sleb128 4
 1403 0057 08000000 		.4byte	.LCFI3
 1404 005b 34000000 		.4byte	.LFE120
 1405 005f 0200     		.2byte	0x2
 1406 0061 7D       		.byte	0x7d
 1407 0062 10       		.sleb128 16
 1408 0063 00000000 		.4byte	0x0
 1409 0067 00000000 		.4byte	0x0
 1410              	.LLST3:
 1411 006b 00000000 		.4byte	.LFB121
 1412 006f 02000000 		.4byte	.LCFI4
 1413 0073 0200     		.2byte	0x2
 1414 0075 7D       		.byte	0x7d
 1415 0076 00       		.sleb128 0
 1416 0077 02000000 		.4byte	.LCFI4
 1417 007b 7C000000 		.4byte	.LFE121
 1418 007f 0200     		.2byte	0x2
 1419 0081 7D       		.byte	0x7d
 1420 0082 10       		.sleb128 16
 1421 0083 00000000 		.4byte	0x0
 1422 0087 00000000 		.4byte	0x0
 1423              	.LLST4:
 1424 008b 00000000 		.4byte	.LVL3
 1425 008f 0B000000 		.4byte	.LVL5-1
 1426 0093 0100     		.2byte	0x1
 1427 0095 50       		.byte	0x50
 1428 0096 0B000000 		.4byte	.LVL5-1
 1429 009a 7C000000 		.4byte	.LFE121
 1430 009e 0100     		.2byte	0x1
 1431 00a0 54       		.byte	0x54
 1432 00a1 00000000 		.4byte	0x0
 1433 00a5 00000000 		.4byte	0x0
 1434              	.LLST5:
 1435 00a9 00000000 		.4byte	.LVL3
 1436 00ad 04000000 		.4byte	.LVL4
 1437 00b1 0100     		.2byte	0x1
 1438 00b3 51       		.byte	0x51
 1439 00b4 00000000 		.4byte	0x0
 1440 00b8 00000000 		.4byte	0x0
 1441              	.LLST6:
 1442 00bc 00000000 		.4byte	.LVL3
 1443 00c0 0B000000 		.4byte	.LVL5-1
 1444 00c4 0100     		.2byte	0x1
 1445 00c6 52       		.byte	0x52
 1446 00c7 00000000 		.4byte	0x0
 1447 00cb 00000000 		.4byte	0x0
 1448              	.LLST7:
 1449 00cf 00000000 		.4byte	.LFB122
 1450 00d3 02000000 		.4byte	.LCFI5
 1451 00d7 0200     		.2byte	0x2
 1452 00d9 7D       		.byte	0x7d
 1453 00da 00       		.sleb128 0
 1454 00db 02000000 		.4byte	.LCFI5
 1455 00df 4C010000 		.4byte	.LFE122
 1456 00e3 0200     		.2byte	0x2
 1457 00e5 7D       		.byte	0x7d
ARM GAS  C:\Users\DNIEL~1\AppData\Local\Temp\cc8JXkoo.s 			page 29


 1458 00e6 18       		.sleb128 24
 1459 00e7 00000000 		.4byte	0x0
 1460 00eb 00000000 		.4byte	0x0
 1461              	.LLST8:
 1462 00ef 00000000 		.4byte	.LVL6
 1463 00f3 0F000000 		.4byte	.LVL8-1
 1464 00f7 0100     		.2byte	0x1
 1465 00f9 50       		.byte	0x50
 1466 00fa 0F000000 		.4byte	.LVL8-1
 1467 00fe 4C010000 		.4byte	.LFE122
 1468 0102 0100     		.2byte	0x1
 1469 0104 54       		.byte	0x54
 1470 0105 00000000 		.4byte	0x0
 1471 0109 00000000 		.4byte	0x0
 1472              	.LLST9:
 1473 010d 00000000 		.4byte	.LVL6
 1474 0111 04000000 		.4byte	.LVL7
 1475 0115 0100     		.2byte	0x1
 1476 0117 51       		.byte	0x51
 1477 0118 00000000 		.4byte	0x0
 1478 011c 00000000 		.4byte	0x0
 1479              	.LLST10:
 1480 0120 00000000 		.4byte	.LVL6
 1481 0124 0F000000 		.4byte	.LVL8-1
 1482 0128 0100     		.2byte	0x1
 1483 012a 52       		.byte	0x52
 1484 012b 00000000 		.4byte	0x0
 1485 012f 00000000 		.4byte	0x0
 1486              	.LLST11:
 1487 0133 00000000 		.4byte	.LFB123
 1488 0137 04000000 		.4byte	.LCFI6
 1489 013b 0200     		.2byte	0x2
 1490 013d 7D       		.byte	0x7d
 1491 013e 00       		.sleb128 0
 1492 013f 04000000 		.4byte	.LCFI6
 1493 0143 1C010000 		.4byte	.LFE123
 1494 0147 0200     		.2byte	0x2
 1495 0149 7D       		.byte	0x7d
 1496 014a 18       		.sleb128 24
 1497 014b 00000000 		.4byte	0x0
 1498 014f 00000000 		.4byte	0x0
 1499              	.LLST12:
 1500 0153 00000000 		.4byte	.LVL9
 1501 0157 0F000000 		.4byte	.LVL11-1
 1502 015b 0100     		.2byte	0x1
 1503 015d 50       		.byte	0x50
 1504 015e 0F000000 		.4byte	.LVL11-1
 1505 0162 1C010000 		.4byte	.LFE123
 1506 0166 0100     		.2byte	0x1
 1507 0168 54       		.byte	0x54
 1508 0169 00000000 		.4byte	0x0
 1509 016d 00000000 		.4byte	0x0
 1510              	.LLST13:
 1511 0171 00000000 		.4byte	.LVL9
 1512 0175 0A000000 		.4byte	.LVL10
 1513 0179 0100     		.2byte	0x1
 1514 017b 51       		.byte	0x51
ARM GAS  C:\Users\DNIEL~1\AppData\Local\Temp\cc8JXkoo.s 			page 30


 1515 017c 0A000000 		.4byte	.LVL10
 1516 0180 5A000000 		.4byte	.LVL13
 1517 0184 0100     		.2byte	0x1
 1518 0186 55       		.byte	0x55
 1519 0187 00000000 		.4byte	0x0
 1520 018b 00000000 		.4byte	0x0
 1521              	.LLST14:
 1522 018f 00000000 		.4byte	.LVL9
 1523 0193 0F000000 		.4byte	.LVL11-1
 1524 0197 0100     		.2byte	0x1
 1525 0199 52       		.byte	0x52
 1526 019a 0F000000 		.4byte	.LVL11-1
 1527 019e 6E000000 		.4byte	.LVL15
 1528 01a2 0100     		.2byte	0x1
 1529 01a4 56       		.byte	0x56
 1530 01a5 00000000 		.4byte	0x0
 1531 01a9 00000000 		.4byte	0x0
 1532              	.LLST15:
 1533 01ad 58000000 		.4byte	.LVL12
 1534 01b1 5E000000 		.4byte	.LVL14
 1535 01b5 0100     		.2byte	0x1
 1536 01b7 50       		.byte	0x50
 1537 01b8 5E000000 		.4byte	.LVL14
 1538 01bc 1C010000 		.4byte	.LFE123
 1539 01c0 0100     		.2byte	0x1
 1540 01c2 55       		.byte	0x55
 1541 01c3 00000000 		.4byte	0x0
 1542 01c7 00000000 		.4byte	0x0
 1543              		.file 2 "c:\\program files (x86)\\codesourcery\\sourcery g++ lite\\bin\\../lib/gcc/arm-none-eabi/4
 1544              		.file 3 "c:\\program files (x86)\\codesourcery\\sourcery g++ lite\\bin\\../lib/gcc/arm-none-eabi/4
 1545              		.file 4 "../../../ChibiOS/os/ports/GCC/ARMCMx/chtypes.h"
 1546              		.file 5 "../../../ChibiOS/os/kernel/include/chlists.h"
 1547              		.file 6 "../../../ChibiOS/os/kernel/include/chthreads.h"
 1548              		.file 7 "../../../ChibiOS/os/ports/GCC/ARMCMx/chcore_v7m.h"
 1549              		.file 8 "../../../ChibiOS/os/kernel/include/chschd.h"
 1550              		.file 9 "../../../ChibiOS/os/kernel/include/chsem.h"
 1551              		.file 10 "../../../ChibiOS/os/kernel/include/chmtx.h"
 1552              		.file 11 "../../../ChibiOS/os/kernel/include/chevents.h"
 1553              		.file 12 "../../../ChibiOS/os/kernel/include/chstreams.h"
 1554              		.file 13 "../../../ChibiOS/os/hal/platforms/STM32F4xx/stm32f4xx.h"
 1555              		.file 14 "../../../ChibiOS/os/hal/include/io_channel.h"
 1556              		.file 15 "../../../ChibiOS/os/hal/include/can.h"
 1557              		.file 16 "../../../ChibiOS/os/hal/platforms/STM32/can_lld.h"
 1558              		.file 17 "include/can_items.h"
 1559              		.file 18 "../../../ChibiOS/os/ports/common/ARMCMx/CMSIS/include/core_cm4.h"
 1560              		.file 19 "<built-in>"
 1561              		.section	.debug_info
 1562 0000 F7100000 		.4byte	0x10f7
 1563 0004 0200     		.2byte	0x2
 1564 0006 00000000 		.4byte	.Ldebug_abbrev0
 1565 000a 04       		.byte	0x4
 1566 000b 01       		.uleb128 0x1
 1567 000c F6000000 		.4byte	.LASF174
 1568 0010 01       		.byte	0x1
 1569 0011 74050000 		.4byte	.LASF175
 1570 0015 5A060000 		.4byte	.LASF176
 1571 0019 00000000 		.4byte	0x0
ARM GAS  C:\Users\DNIEL~1\AppData\Local\Temp\cc8JXkoo.s 			page 31


 1572 001d 00000000 		.4byte	0x0
 1573 0021 20000000 		.4byte	.Ldebug_ranges0+0x20
 1574 0025 00000000 		.4byte	.Ldebug_line0
 1575 0029 02       		.uleb128 0x2
 1576 002a 33000000 		.4byte	.LASF10
 1577 002e 02       		.byte	0x2
 1578 002f D3       		.byte	0xd3
 1579 0030 34000000 		.4byte	0x34
 1580 0034 03       		.uleb128 0x3
 1581 0035 04       		.byte	0x4
 1582 0036 07       		.byte	0x7
 1583 0037 04020000 		.4byte	.LASF0
 1584 003b 03       		.uleb128 0x3
 1585 003c 01       		.byte	0x1
 1586 003d 06       		.byte	0x6
 1587 003e CF000000 		.4byte	.LASF1
 1588 0042 03       		.uleb128 0x3
 1589 0043 01       		.byte	0x1
 1590 0044 08       		.byte	0x8
 1591 0045 14040000 		.4byte	.LASF2
 1592 0049 03       		.uleb128 0x3
 1593 004a 02       		.byte	0x2
 1594 004b 05       		.byte	0x5
 1595 004c 5B040000 		.4byte	.LASF3
 1596 0050 03       		.uleb128 0x3
 1597 0051 02       		.byte	0x2
 1598 0052 07       		.byte	0x7
 1599 0053 52020000 		.4byte	.LASF4
 1600 0057 04       		.uleb128 0x4
 1601 0058 04       		.byte	0x4
 1602 0059 05       		.byte	0x5
 1603 005a 696E7400 		.ascii	"int\000"
 1604 005e 03       		.uleb128 0x3
 1605 005f 08       		.byte	0x8
 1606 0060 05       		.byte	0x5
 1607 0061 C1000000 		.4byte	.LASF5
 1608 0065 03       		.uleb128 0x3
 1609 0066 08       		.byte	0x8
 1610 0067 07       		.byte	0x7
 1611 0068 71000000 		.4byte	.LASF6
 1612 006c 03       		.uleb128 0x3
 1613 006d 04       		.byte	0x4
 1614 006e 05       		.byte	0x5
 1615 006f 17010000 		.4byte	.LASF7
 1616 0073 05       		.uleb128 0x5
 1617 0074 04       		.byte	0x4
 1618 0075 03       		.uleb128 0x3
 1619 0076 04       		.byte	0x4
 1620 0077 07       		.byte	0x7
 1621 0078 00050000 		.4byte	.LASF8
 1622 007c 06       		.uleb128 0x6
 1623 007d 04       		.byte	0x4
 1624 007e 82000000 		.4byte	0x82
 1625 0082 03       		.uleb128 0x3
 1626 0083 01       		.byte	0x1
 1627 0084 08       		.byte	0x8
 1628 0085 12050000 		.4byte	.LASF9
ARM GAS  C:\Users\DNIEL~1\AppData\Local\Temp\cc8JXkoo.s 			page 32


 1629 0089 06       		.uleb128 0x6
 1630 008a 04       		.byte	0x4
 1631 008b 8F000000 		.4byte	0x8f
 1632 008f 07       		.uleb128 0x7
 1633 0090 82000000 		.4byte	0x82
 1634 0094 02       		.uleb128 0x2
 1635 0095 FF050000 		.4byte	.LASF11
 1636 0099 03       		.byte	0x3
 1637 009a 2A       		.byte	0x2a
 1638 009b 42000000 		.4byte	0x42
 1639 009f 02       		.uleb128 0x2
 1640 00a0 B9000000 		.4byte	.LASF12
 1641 00a4 03       		.byte	0x3
 1642 00a5 35       		.byte	0x35
 1643 00a6 49000000 		.4byte	0x49
 1644 00aa 02       		.uleb128 0x2
 1645 00ab 5F010000 		.4byte	.LASF13
 1646 00af 03       		.byte	0x3
 1647 00b0 36       		.byte	0x36
 1648 00b1 50000000 		.4byte	0x50
 1649 00b5 02       		.uleb128 0x2
 1650 00b6 0C040000 		.4byte	.LASF14
 1651 00ba 03       		.byte	0x3
 1652 00bb 4F       		.byte	0x4f
 1653 00bc 6C000000 		.4byte	0x6c
 1654 00c0 02       		.uleb128 0x2
 1655 00c1 99050000 		.4byte	.LASF15
 1656 00c5 03       		.byte	0x3
 1657 00c6 50       		.byte	0x50
 1658 00c7 75000000 		.4byte	0x75
 1659 00cb 02       		.uleb128 0x2
 1660 00cc 4C000000 		.4byte	.LASF16
 1661 00d0 03       		.byte	0x3
 1662 00d1 78       		.byte	0x78
 1663 00d2 65000000 		.4byte	0x65
 1664 00d6 02       		.uleb128 0x2
 1665 00d7 A1020000 		.4byte	.LASF17
 1666 00db 04       		.byte	0x4
 1667 00dc 28       		.byte	0x28
 1668 00dd 94000000 		.4byte	0x94
 1669 00e1 02       		.uleb128 0x2
 1670 00e2 30010000 		.4byte	.LASF18
 1671 00e6 04       		.byte	0x4
 1672 00e7 29       		.byte	0x29
 1673 00e8 94000000 		.4byte	0x94
 1674 00ec 02       		.uleb128 0x2
 1675 00ed B8030000 		.4byte	.LASF19
 1676 00f1 04       		.byte	0x4
 1677 00f2 2A       		.byte	0x2a
 1678 00f3 94000000 		.4byte	0x94
 1679 00f7 02       		.uleb128 0x2
 1680 00f8 02010000 		.4byte	.LASF20
 1681 00fc 04       		.byte	0x4
 1682 00fd 2B       		.byte	0x2b
 1683 00fe 94000000 		.4byte	0x94
 1684 0102 02       		.uleb128 0x2
 1685 0103 F9030000 		.4byte	.LASF21
ARM GAS  C:\Users\DNIEL~1\AppData\Local\Temp\cc8JXkoo.s 			page 33


 1686 0107 04       		.byte	0x4
 1687 0108 2C       		.byte	0x2c
 1688 0109 C0000000 		.4byte	0xc0
 1689 010d 02       		.uleb128 0x2
 1690 010e 8C020000 		.4byte	.LASF22
 1691 0112 04       		.byte	0x4
 1692 0113 2D       		.byte	0x2d
 1693 0114 B5000000 		.4byte	0xb5
 1694 0118 02       		.uleb128 0x2
 1695 0119 C5020000 		.4byte	.LASF23
 1696 011d 04       		.byte	0x4
 1697 011e 2F       		.byte	0x2f
 1698 011f C0000000 		.4byte	0xc0
 1699 0123 02       		.uleb128 0x2
 1700 0124 8D050000 		.4byte	.LASF24
 1701 0128 04       		.byte	0x4
 1702 0129 30       		.byte	0x30
 1703 012a C0000000 		.4byte	0xc0
 1704 012e 02       		.uleb128 0x2
 1705 012f 3E050000 		.4byte	.LASF25
 1706 0133 04       		.byte	0x4
 1707 0134 31       		.byte	0x31
 1708 0135 C0000000 		.4byte	0xc0
 1709 0139 02       		.uleb128 0x2
 1710 013a FE010000 		.4byte	.LASF26
 1711 013e 04       		.byte	0x4
 1712 013f 32       		.byte	0x32
 1713 0140 B5000000 		.4byte	0xb5
 1714 0144 02       		.uleb128 0x2
 1715 0145 B1040000 		.4byte	.LASF27
 1716 0149 05       		.byte	0x5
 1717 014a 23       		.byte	0x23
 1718 014b 4F010000 		.4byte	0x14f
 1719 014f 08       		.uleb128 0x8
 1720 0150 B1040000 		.4byte	.LASF27
 1721 0154 48       		.byte	0x48
 1722 0155 06       		.byte	0x6
 1723 0156 57       		.byte	0x57
 1724 0157 74020000 		.4byte	0x274
 1725 015b 09       		.uleb128 0x9
 1726 015c 85040000 		.4byte	.LASF28
 1727 0160 06       		.byte	0x6
 1728 0161 58       		.byte	0x58
 1729 0162 99020000 		.4byte	0x299
 1730 0166 02       		.byte	0x2
 1731 0167 23       		.byte	0x23
 1732 0168 00       		.uleb128 0x0
 1733 0169 09       		.uleb128 0x9
 1734 016a F2030000 		.4byte	.LASF29
 1735 016e 06       		.byte	0x6
 1736 016f 5A       		.byte	0x5a
 1737 0170 99020000 		.4byte	0x299
 1738 0174 02       		.byte	0x2
 1739 0175 23       		.byte	0x23
 1740 0176 04       		.uleb128 0x4
 1741 0177 09       		.uleb128 0x9
 1742 0178 AC000000 		.4byte	.LASF30
ARM GAS  C:\Users\DNIEL~1\AppData\Local\Temp\cc8JXkoo.s 			page 34


 1743 017c 06       		.byte	0x6
 1744 017d 5C       		.byte	0x5c
 1745 017e 02010000 		.4byte	0x102
 1746 0182 02       		.byte	0x2
 1747 0183 23       		.byte	0x23
 1748 0184 08       		.uleb128 0x8
 1749 0185 09       		.uleb128 0x9
 1750 0186 CF060000 		.4byte	.LASF31
 1751 018a 06       		.byte	0x6
 1752 018b 5D       		.byte	0x5d
 1753 018c 70030000 		.4byte	0x370
 1754 0190 02       		.byte	0x2
 1755 0191 23       		.byte	0x23
 1756 0192 0C       		.uleb128 0xc
 1757 0193 09       		.uleb128 0x9
 1758 0194 79010000 		.4byte	.LASF32
 1759 0198 06       		.byte	0x6
 1760 0199 5F       		.byte	0x5f
 1761 019a 99020000 		.4byte	0x299
 1762 019e 02       		.byte	0x2
 1763 019f 23       		.byte	0x23
 1764 01a0 10       		.uleb128 0x10
 1765 01a1 09       		.uleb128 0x9
 1766 01a2 3A030000 		.4byte	.LASF33
 1767 01a6 06       		.byte	0x6
 1768 01a7 60       		.byte	0x60
 1769 01a8 99020000 		.4byte	0x299
 1770 01ac 02       		.byte	0x2
 1771 01ad 23       		.byte	0x23
 1772 01ae 14       		.uleb128 0x14
 1773 01af 09       		.uleb128 0x9
 1774 01b0 B8050000 		.4byte	.LASF34
 1775 01b4 06       		.byte	0x6
 1776 01b5 67       		.byte	0x67
 1777 01b6 89000000 		.4byte	0x89
 1778 01ba 02       		.byte	0x2
 1779 01bb 23       		.byte	0x23
 1780 01bc 18       		.uleb128 0x18
 1781 01bd 09       		.uleb128 0x9
 1782 01be 65040000 		.4byte	.LASF35
 1783 01c2 06       		.byte	0x6
 1784 01c3 72       		.byte	0x72
 1785 01c4 E1000000 		.4byte	0xe1
 1786 01c8 02       		.byte	0x2
 1787 01c9 23       		.byte	0x23
 1788 01ca 1C       		.uleb128 0x1c
 1789 01cb 09       		.uleb128 0x9
 1790 01cc A4040000 		.4byte	.LASF36
 1791 01d0 06       		.byte	0x6
 1792 01d1 76       		.byte	0x76
 1793 01d2 D6000000 		.4byte	0xd6
 1794 01d6 02       		.byte	0x2
 1795 01d7 23       		.byte	0x23
 1796 01d8 1D       		.uleb128 0x1d
 1797 01d9 09       		.uleb128 0x9
 1798 01da 4F010000 		.4byte	.LASF37
 1799 01de 06       		.byte	0x6
ARM GAS  C:\Users\DNIEL~1\AppData\Local\Temp\cc8JXkoo.s 			page 35


 1800 01df 7B       		.byte	0x7b
 1801 01e0 EC000000 		.4byte	0xec
 1802 01e4 02       		.byte	0x2
 1803 01e5 23       		.byte	0x23
 1804 01e6 1E       		.uleb128 0x1e
 1805 01e7 09       		.uleb128 0x9
 1806 01e8 6D040000 		.4byte	.LASF38
 1807 01ec 06       		.byte	0x6
 1808 01ed 81       		.byte	0x81
 1809 01ee F7000000 		.4byte	0xf7
 1810 01f2 02       		.byte	0x2
 1811 01f3 23       		.byte	0x23
 1812 01f4 1F       		.uleb128 0x1f
 1813 01f5 09       		.uleb128 0x9
 1814 01f6 68010000 		.4byte	.LASF39
 1815 01fa 06       		.byte	0x6
 1816 01fb 88       		.byte	0x88
 1817 01fc 98030000 		.4byte	0x398
 1818 0200 02       		.byte	0x2
 1819 0201 23       		.byte	0x23
 1820 0202 20       		.uleb128 0x20
 1821 0203 0A       		.uleb128 0xa
 1822 0204 705F7500 		.ascii	"p_u\000"
 1823 0208 06       		.byte	0x6
 1824 0209 AD       		.byte	0xad
 1825 020a FD040000 		.4byte	0x4fd
 1826 020e 02       		.byte	0x2
 1827 020f 23       		.byte	0x23
 1828 0210 24       		.uleb128 0x24
 1829 0211 09       		.uleb128 0x9
 1830 0212 D5060000 		.4byte	.LASF40
 1831 0216 06       		.byte	0x6
 1832 0217 B2       		.byte	0xb2
 1833 0218 C1020000 		.4byte	0x2c1
 1834 021c 02       		.byte	0x2
 1835 021d 23       		.byte	0x23
 1836 021e 28       		.uleb128 0x28
 1837 021f 09       		.uleb128 0x9
 1838 0220 22020000 		.4byte	.LASF41
 1839 0224 06       		.byte	0x6
 1840 0225 B8       		.byte	0xb8
 1841 0226 9F020000 		.4byte	0x29f
 1842 022a 02       		.byte	0x2
 1843 022b 23       		.byte	0x23
 1844 022c 2C       		.uleb128 0x2c
 1845 022d 09       		.uleb128 0x9
 1846 022e 54060000 		.4byte	.LASF42
 1847 0232 06       		.byte	0x6
 1848 0233 BC       		.byte	0xbc
 1849 0234 0D010000 		.4byte	0x10d
 1850 0238 02       		.byte	0x2
 1851 0239 23       		.byte	0x23
 1852 023a 34       		.uleb128 0x34
 1853 023b 09       		.uleb128 0x9
 1854 023c C2040000 		.4byte	.LASF43
 1855 0240 06       		.byte	0x6
 1856 0241 C2       		.byte	0xc2
ARM GAS  C:\Users\DNIEL~1\AppData\Local\Temp\cc8JXkoo.s 			page 36


 1857 0242 18010000 		.4byte	0x118
 1858 0246 02       		.byte	0x2
 1859 0247 23       		.byte	0x23
 1860 0248 38       		.uleb128 0x38
 1861 0249 09       		.uleb128 0x9
 1862 024a 51040000 		.4byte	.LASF44
 1863 024e 06       		.byte	0x6
 1864 024f C9       		.byte	0xc9
 1865 0250 32050000 		.4byte	0x532
 1866 0254 02       		.byte	0x2
 1867 0255 23       		.byte	0x23
 1868 0256 3C       		.uleb128 0x3c
 1869 0257 09       		.uleb128 0x9
 1870 0258 48050000 		.4byte	.LASF45
 1871 025c 06       		.byte	0x6
 1872 025d CD       		.byte	0xcd
 1873 025e 02010000 		.4byte	0x102
 1874 0262 02       		.byte	0x2
 1875 0263 23       		.byte	0x23
 1876 0264 40       		.uleb128 0x40
 1877 0265 09       		.uleb128 0x9
 1878 0266 B8010000 		.4byte	.LASF46
 1879 026a 06       		.byte	0x6
 1880 026b D3       		.byte	0xd3
 1881 026c 73000000 		.4byte	0x73
 1882 0270 02       		.byte	0x2
 1883 0271 23       		.byte	0x23
 1884 0272 44       		.uleb128 0x44
 1885 0273 00       		.byte	0x0
 1886 0274 0B       		.uleb128 0xb
 1887 0275 08       		.byte	0x8
 1888 0276 05       		.byte	0x5
 1889 0277 5A       		.byte	0x5a
 1890 0278 99020000 		.4byte	0x299
 1891 027c 09       		.uleb128 0x9
 1892 027d 85040000 		.4byte	.LASF28
 1893 0281 05       		.byte	0x5
 1894 0282 5B       		.byte	0x5b
 1895 0283 99020000 		.4byte	0x299
 1896 0287 02       		.byte	0x2
 1897 0288 23       		.byte	0x23
 1898 0289 00       		.uleb128 0x0
 1899 028a 09       		.uleb128 0x9
 1900 028b F2030000 		.4byte	.LASF29
 1901 028f 05       		.byte	0x5
 1902 0290 5D       		.byte	0x5d
 1903 0291 99020000 		.4byte	0x299
 1904 0295 02       		.byte	0x2
 1905 0296 23       		.byte	0x23
 1906 0297 04       		.uleb128 0x4
 1907 0298 00       		.byte	0x0
 1908 0299 06       		.uleb128 0x6
 1909 029a 04       		.byte	0x4
 1910 029b 44010000 		.4byte	0x144
 1911 029f 02       		.uleb128 0x2
 1912 02a0 48030000 		.4byte	.LASF47
 1913 02a4 05       		.byte	0x5
ARM GAS  C:\Users\DNIEL~1\AppData\Local\Temp\cc8JXkoo.s 			page 37


 1914 02a5 5F       		.byte	0x5f
 1915 02a6 74020000 		.4byte	0x274
 1916 02aa 0B       		.uleb128 0xb
 1917 02ab 04       		.byte	0x4
 1918 02ac 05       		.byte	0x5
 1919 02ad 64       		.byte	0x64
 1920 02ae C1020000 		.4byte	0x2c1
 1921 02b2 09       		.uleb128 0x9
 1922 02b3 85040000 		.4byte	.LASF28
 1923 02b7 05       		.byte	0x5
 1924 02b8 66       		.byte	0x66
 1925 02b9 99020000 		.4byte	0x299
 1926 02bd 02       		.byte	0x2
 1927 02be 23       		.byte	0x23
 1928 02bf 00       		.uleb128 0x0
 1929 02c0 00       		.byte	0x0
 1930 02c1 02       		.uleb128 0x2
 1931 02c2 A9020000 		.4byte	.LASF48
 1932 02c6 05       		.byte	0x5
 1933 02c7 69       		.byte	0x69
 1934 02c8 AA020000 		.4byte	0x2aa
 1935 02cc 02       		.uleb128 0x2
 1936 02cd C0010000 		.4byte	.LASF49
 1937 02d1 07       		.byte	0x7
 1938 02d2 DE       		.byte	0xde
 1939 02d3 73000000 		.4byte	0x73
 1940 02d7 02       		.uleb128 0x2
 1941 02d8 E5020000 		.4byte	.LASF50
 1942 02dc 07       		.byte	0x7
 1943 02dd E4       		.byte	0xe4
 1944 02de CB000000 		.4byte	0xcb
 1945 02e2 0C       		.uleb128 0xc
 1946 02e3 6D050000 		.4byte	.LASF51
 1947 02e7 24       		.byte	0x24
 1948 02e8 07       		.byte	0x7
 1949 02e9 0501     		.2byte	0x105
 1950 02eb 70030000 		.4byte	0x370
 1951 02ef 0D       		.uleb128 0xd
 1952 02f0 723400   		.ascii	"r4\000"
 1953 02f3 07       		.byte	0x7
 1954 02f4 1801     		.2byte	0x118
 1955 02f6 CC020000 		.4byte	0x2cc
 1956 02fa 02       		.byte	0x2
 1957 02fb 23       		.byte	0x23
 1958 02fc 00       		.uleb128 0x0
 1959 02fd 0D       		.uleb128 0xd
 1960 02fe 723500   		.ascii	"r5\000"
 1961 0301 07       		.byte	0x7
 1962 0302 1901     		.2byte	0x119
 1963 0304 CC020000 		.4byte	0x2cc
 1964 0308 02       		.byte	0x2
 1965 0309 23       		.byte	0x23
 1966 030a 04       		.uleb128 0x4
 1967 030b 0D       		.uleb128 0xd
 1968 030c 723600   		.ascii	"r6\000"
 1969 030f 07       		.byte	0x7
 1970 0310 1A01     		.2byte	0x11a
ARM GAS  C:\Users\DNIEL~1\AppData\Local\Temp\cc8JXkoo.s 			page 38


 1971 0312 CC020000 		.4byte	0x2cc
 1972 0316 02       		.byte	0x2
 1973 0317 23       		.byte	0x23
 1974 0318 08       		.uleb128 0x8
 1975 0319 0D       		.uleb128 0xd
 1976 031a 723700   		.ascii	"r7\000"
 1977 031d 07       		.byte	0x7
 1978 031e 1B01     		.2byte	0x11b
 1979 0320 CC020000 		.4byte	0x2cc
 1980 0324 02       		.byte	0x2
 1981 0325 23       		.byte	0x23
 1982 0326 0C       		.uleb128 0xc
 1983 0327 0D       		.uleb128 0xd
 1984 0328 723800   		.ascii	"r8\000"
 1985 032b 07       		.byte	0x7
 1986 032c 1C01     		.2byte	0x11c
 1987 032e CC020000 		.4byte	0x2cc
 1988 0332 02       		.byte	0x2
 1989 0333 23       		.byte	0x23
 1990 0334 10       		.uleb128 0x10
 1991 0335 0D       		.uleb128 0xd
 1992 0336 723900   		.ascii	"r9\000"
 1993 0339 07       		.byte	0x7
 1994 033a 1D01     		.2byte	0x11d
 1995 033c CC020000 		.4byte	0x2cc
 1996 0340 02       		.byte	0x2
 1997 0341 23       		.byte	0x23
 1998 0342 14       		.uleb128 0x14
 1999 0343 0D       		.uleb128 0xd
 2000 0344 72313000 		.ascii	"r10\000"
 2001 0348 07       		.byte	0x7
 2002 0349 1E01     		.2byte	0x11e
 2003 034b CC020000 		.4byte	0x2cc
 2004 034f 02       		.byte	0x2
 2005 0350 23       		.byte	0x23
 2006 0351 18       		.uleb128 0x18
 2007 0352 0D       		.uleb128 0xd
 2008 0353 72313100 		.ascii	"r11\000"
 2009 0357 07       		.byte	0x7
 2010 0358 1F01     		.2byte	0x11f
 2011 035a CC020000 		.4byte	0x2cc
 2012 035e 02       		.byte	0x2
 2013 035f 23       		.byte	0x23
 2014 0360 1C       		.uleb128 0x1c
 2015 0361 0D       		.uleb128 0xd
 2016 0362 6C7200   		.ascii	"lr\000"
 2017 0365 07       		.byte	0x7
 2018 0366 2001     		.2byte	0x120
 2019 0368 CC020000 		.4byte	0x2cc
 2020 036c 02       		.byte	0x2
 2021 036d 23       		.byte	0x23
 2022 036e 20       		.uleb128 0x20
 2023 036f 00       		.byte	0x0
 2024 0370 0C       		.uleb128 0xc
 2025 0371 60050000 		.4byte	.LASF52
 2026 0375 04       		.byte	0x4
 2027 0376 07       		.byte	0x7
ARM GAS  C:\Users\DNIEL~1\AppData\Local\Temp\cc8JXkoo.s 			page 39


 2028 0377 2A01     		.2byte	0x12a
 2029 0379 8D030000 		.4byte	0x38d
 2030 037d 0D       		.uleb128 0xd
 2031 037e 72313300 		.ascii	"r13\000"
 2032 0382 07       		.byte	0x7
 2033 0383 2B01     		.2byte	0x12b
 2034 0385 8D030000 		.4byte	0x38d
 2035 0389 02       		.byte	0x2
 2036 038a 23       		.byte	0x23
 2037 038b 00       		.uleb128 0x0
 2038 038c 00       		.byte	0x0
 2039 038d 06       		.uleb128 0x6
 2040 038e 04       		.byte	0x4
 2041 038f E2020000 		.4byte	0x2e2
 2042 0393 0E       		.uleb128 0xe
 2043 0394 C0000000 		.4byte	0xc0
 2044 0398 0E       		.uleb128 0xe
 2045 0399 2E010000 		.4byte	0x12e
 2046 039d 0B       		.uleb128 0xb
 2047 039e 1C       		.byte	0x1c
 2048 039f 08       		.byte	0x8
 2049 03a0 57       		.byte	0x57
 2050 03a1 FA030000 		.4byte	0x3fa
 2051 03a5 09       		.uleb128 0x9
 2052 03a6 E2040000 		.4byte	.LASF53
 2053 03aa 08       		.byte	0x8
 2054 03ab 58       		.byte	0x58
 2055 03ac 9F020000 		.4byte	0x29f
 2056 03b0 02       		.byte	0x2
 2057 03b1 23       		.byte	0x23
 2058 03b2 00       		.uleb128 0x0
 2059 03b3 09       		.uleb128 0x9
 2060 03b4 77040000 		.4byte	.LASF54
 2061 03b8 08       		.byte	0x8
 2062 03b9 59       		.byte	0x59
 2063 03ba 02010000 		.4byte	0x102
 2064 03be 02       		.byte	0x2
 2065 03bf 23       		.byte	0x23
 2066 03c0 08       		.uleb128 0x8
 2067 03c1 09       		.uleb128 0x9
 2068 03c2 42030000 		.4byte	.LASF55
 2069 03c6 08       		.byte	0x8
 2070 03c7 5B       		.byte	0x5b
 2071 03c8 70030000 		.4byte	0x370
 2072 03cc 02       		.byte	0x2
 2073 03cd 23       		.byte	0x23
 2074 03ce 0C       		.uleb128 0xc
 2075 03cf 09       		.uleb128 0x9
 2076 03d0 B0010000 		.4byte	.LASF56
 2077 03d4 08       		.byte	0x8
 2078 03d5 5E       		.byte	0x5e
 2079 03d6 99020000 		.4byte	0x299
 2080 03da 02       		.byte	0x2
 2081 03db 23       		.byte	0x23
 2082 03dc 10       		.uleb128 0x10
 2083 03dd 09       		.uleb128 0x9
 2084 03de 64030000 		.4byte	.LASF57
ARM GAS  C:\Users\DNIEL~1\AppData\Local\Temp\cc8JXkoo.s 			page 40


 2085 03e2 08       		.byte	0x8
 2086 03e3 5F       		.byte	0x5f
 2087 03e4 99020000 		.4byte	0x299
 2088 03e8 02       		.byte	0x2
 2089 03e9 23       		.byte	0x23
 2090 03ea 14       		.uleb128 0x14
 2091 03eb 09       		.uleb128 0x9
 2092 03ec 5A030000 		.4byte	.LASF58
 2093 03f0 08       		.byte	0x8
 2094 03f1 62       		.byte	0x62
 2095 03f2 99020000 		.4byte	0x299
 2096 03f6 02       		.byte	0x2
 2097 03f7 23       		.byte	0x23
 2098 03f8 18       		.uleb128 0x18
 2099 03f9 00       		.byte	0x0
 2100 03fa 02       		.uleb128 0x2
 2101 03fb CE050000 		.4byte	.LASF59
 2102 03ff 08       		.byte	0x8
 2103 0400 64       		.byte	0x64
 2104 0401 9D030000 		.4byte	0x39d
 2105 0405 08       		.uleb128 0x8
 2106 0406 83050000 		.4byte	.LASF60
 2107 040a 0C       		.byte	0xc
 2108 040b 09       		.byte	0x9
 2109 040c 25       		.byte	0x25
 2110 040d 2E040000 		.4byte	0x42e
 2111 0411 09       		.uleb128 0x9
 2112 0412 81010000 		.4byte	.LASF61
 2113 0416 09       		.byte	0x9
 2114 0417 26       		.byte	0x26
 2115 0418 9F020000 		.4byte	0x29f
 2116 041c 02       		.byte	0x2
 2117 041d 23       		.byte	0x23
 2118 041e 00       		.uleb128 0x0
 2119 041f 09       		.uleb128 0x9
 2120 0420 42020000 		.4byte	.LASF62
 2121 0424 09       		.byte	0x9
 2122 0425 28       		.byte	0x28
 2123 0426 39010000 		.4byte	0x139
 2124 042a 02       		.byte	0x2
 2125 042b 23       		.byte	0x23
 2126 042c 08       		.uleb128 0x8
 2127 042d 00       		.byte	0x0
 2128 042e 02       		.uleb128 0x2
 2129 042f 83050000 		.4byte	.LASF60
 2130 0433 09       		.byte	0x9
 2131 0434 29       		.byte	0x29
 2132 0435 05040000 		.4byte	0x405
 2133 0439 08       		.uleb128 0x8
 2134 043a D1020000 		.4byte	.LASF63
 2135 043e 10       		.byte	0x10
 2136 043f 0A       		.byte	0xa
 2137 0440 25       		.byte	0x25
 2138 0441 70040000 		.4byte	0x470
 2139 0445 09       		.uleb128 0x9
 2140 0446 E8000000 		.4byte	.LASF64
 2141 044a 0A       		.byte	0xa
ARM GAS  C:\Users\DNIEL~1\AppData\Local\Temp\cc8JXkoo.s 			page 41


 2142 044b 26       		.byte	0x26
 2143 044c 9F020000 		.4byte	0x29f
 2144 0450 02       		.byte	0x2
 2145 0451 23       		.byte	0x23
 2146 0452 00       		.uleb128 0x0
 2147 0453 09       		.uleb128 0x9
 2148 0454 BF060000 		.4byte	.LASF65
 2149 0458 0A       		.byte	0xa
 2150 0459 28       		.byte	0x28
 2151 045a 99020000 		.4byte	0x299
 2152 045e 02       		.byte	0x2
 2153 045f 23       		.byte	0x23
 2154 0460 08       		.uleb128 0x8
 2155 0461 09       		.uleb128 0x9
 2156 0462 37050000 		.4byte	.LASF66
 2157 0466 0A       		.byte	0xa
 2158 0467 2A       		.byte	0x2a
 2159 0468 70040000 		.4byte	0x470
 2160 046c 02       		.byte	0x2
 2161 046d 23       		.byte	0x23
 2162 046e 0C       		.uleb128 0xc
 2163 046f 00       		.byte	0x0
 2164 0470 06       		.uleb128 0x6
 2165 0471 04       		.byte	0x4
 2166 0472 39040000 		.4byte	0x439
 2167 0476 02       		.uleb128 0x2
 2168 0477 D1020000 		.4byte	.LASF63
 2169 047b 0A       		.byte	0xa
 2170 047c 2C       		.byte	0x2c
 2171 047d 39040000 		.4byte	0x439
 2172 0481 02       		.uleb128 0x2
 2173 0482 1C060000 		.4byte	.LASF67
 2174 0486 0B       		.byte	0xb
 2175 0487 25       		.byte	0x25
 2176 0488 8C040000 		.4byte	0x48c
 2177 048c 08       		.uleb128 0x8
 2178 048d 1C060000 		.4byte	.LASF67
 2179 0491 10       		.byte	0x10
 2180 0492 0B       		.byte	0xb
 2181 0493 2A       		.byte	0x2a
 2182 0494 D1040000 		.4byte	0x4d1
 2183 0498 09       		.uleb128 0x9
 2184 0499 92020000 		.4byte	.LASF68
 2185 049d 0B       		.byte	0xb
 2186 049e 2B       		.byte	0x2b
 2187 049f D1040000 		.4byte	0x4d1
 2188 04a3 02       		.byte	0x2
 2189 04a4 23       		.byte	0x23
 2190 04a5 00       		.uleb128 0x0
 2191 04a6 09       		.uleb128 0x9
 2192 04a7 2F040000 		.4byte	.LASF69
 2193 04ab 0B       		.byte	0xb
 2194 04ac 2E       		.byte	0x2e
 2195 04ad 99020000 		.4byte	0x299
 2196 04b1 02       		.byte	0x2
 2197 04b2 23       		.byte	0x23
 2198 04b3 04       		.uleb128 0x4
ARM GAS  C:\Users\DNIEL~1\AppData\Local\Temp\cc8JXkoo.s 			page 42


 2199 04b4 09       		.uleb128 0x9
 2200 04b5 6C030000 		.4byte	.LASF70
 2201 04b9 0B       		.byte	0xb
 2202 04ba 30       		.byte	0x30
 2203 04bb 18010000 		.4byte	0x118
 2204 04bf 02       		.byte	0x2
 2205 04c0 23       		.byte	0x23
 2206 04c1 08       		.uleb128 0x8
 2207 04c2 09       		.uleb128 0x9
 2208 04c3 48040000 		.4byte	.LASF71
 2209 04c7 0B       		.byte	0xb
 2210 04c8 33       		.byte	0x33
 2211 04c9 23010000 		.4byte	0x123
 2212 04cd 02       		.byte	0x2
 2213 04ce 23       		.byte	0x23
 2214 04cf 0C       		.uleb128 0xc
 2215 04d0 00       		.byte	0x0
 2216 04d1 06       		.uleb128 0x6
 2217 04d2 04       		.byte	0x4
 2218 04d3 81040000 		.4byte	0x481
 2219 04d7 08       		.uleb128 0x8
 2220 04d8 D3010000 		.4byte	.LASF72
 2221 04dc 04       		.byte	0x4
 2222 04dd 0B       		.byte	0xb
 2223 04de 3A       		.byte	0x3a
 2224 04df F2040000 		.4byte	0x4f2
 2225 04e3 09       		.uleb128 0x9
 2226 04e4 BF050000 		.4byte	.LASF73
 2227 04e8 0B       		.byte	0xb
 2228 04e9 3B       		.byte	0x3b
 2229 04ea D1040000 		.4byte	0x4d1
 2230 04ee 02       		.byte	0x2
 2231 04ef 23       		.byte	0x23
 2232 04f0 00       		.uleb128 0x0
 2233 04f1 00       		.byte	0x0
 2234 04f2 02       		.uleb128 0x2
 2235 04f3 D3010000 		.4byte	.LASF72
 2236 04f7 0B       		.byte	0xb
 2237 04f8 3E       		.byte	0x3e
 2238 04f9 D7040000 		.4byte	0x4d7
 2239 04fd 0F       		.uleb128 0xf
 2240 04fe 04       		.byte	0x4
 2241 04ff 06       		.byte	0x6
 2242 0500 8F       		.byte	0x8f
 2243 0501 32050000 		.4byte	0x532
 2244 0505 10       		.uleb128 0x10
 2245 0506 45000000 		.4byte	.LASF74
 2246 050a 06       		.byte	0x6
 2247 050b 96       		.byte	0x96
 2248 050c 0D010000 		.4byte	0x10d
 2249 0510 10       		.uleb128 0x10
 2250 0511 97000000 		.4byte	.LASF75
 2251 0515 06       		.byte	0x6
 2252 0516 9D       		.byte	0x9d
 2253 0517 0D010000 		.4byte	0x10d
 2254 051b 10       		.uleb128 0x10
 2255 051c 2A060000 		.4byte	.LASF76
ARM GAS  C:\Users\DNIEL~1\AppData\Local\Temp\cc8JXkoo.s 			page 43


 2256 0520 06       		.byte	0x6
 2257 0521 A4       		.byte	0xa4
 2258 0522 73000000 		.4byte	0x73
 2259 0526 10       		.uleb128 0x10
 2260 0527 7E040000 		.4byte	.LASF77
 2261 052b 06       		.byte	0x6
 2262 052c AB       		.byte	0xab
 2263 052d 18010000 		.4byte	0x118
 2264 0531 00       		.byte	0x0
 2265 0532 06       		.uleb128 0x6
 2266 0533 04       		.byte	0x4
 2267 0534 76040000 		.4byte	0x476
 2268 0538 06       		.uleb128 0x6
 2269 0539 04       		.byte	0x4
 2270 053a 3E050000 		.4byte	0x53e
 2271 053e 11       		.uleb128 0x11
 2272 053f 01       		.byte	0x1
 2273 0540 0D010000 		.4byte	0x10d
 2274 0544 4E050000 		.4byte	0x54e
 2275 0548 12       		.uleb128 0x12
 2276 0549 73000000 		.4byte	0x73
 2277 054d 00       		.byte	0x0
 2278 054e 06       		.uleb128 0x6
 2279 054f 04       		.byte	0x4
 2280 0550 94000000 		.4byte	0x94
 2281 0554 08       		.uleb128 0x8
 2282 0555 8C040000 		.4byte	.LASF78
 2283 0559 10       		.byte	0x10
 2284 055a 0C       		.byte	0xc
 2285 055b 41       		.byte	0x41
 2286 055c 99050000 		.4byte	0x599
 2287 0560 09       		.uleb128 0x9
 2288 0561 F0020000 		.4byte	.LASF79
 2289 0565 0C       		.byte	0xc
 2290 0566 42       		.byte	0x42
 2291 0567 BE050000 		.4byte	0x5be
 2292 056b 02       		.byte	0x2
 2293 056c 23       		.byte	0x23
 2294 056d 00       		.uleb128 0x0
 2295 056e 09       		.uleb128 0x9
 2296 056f 9A030000 		.4byte	.LASF80
 2297 0573 0C       		.byte	0xc
 2298 0574 42       		.byte	0x42
 2299 0575 DE050000 		.4byte	0x5de
 2300 0579 02       		.byte	0x2
 2301 057a 23       		.byte	0x23
 2302 057b 04       		.uleb128 0x4
 2303 057c 0A       		.uleb128 0xa
 2304 057d 70757400 		.ascii	"put\000"
 2305 0581 0C       		.byte	0xc
 2306 0582 42       		.byte	0x42
 2307 0583 F9050000 		.4byte	0x5f9
 2308 0587 02       		.byte	0x2
 2309 0588 23       		.byte	0x23
 2310 0589 08       		.uleb128 0x8
 2311 058a 0A       		.uleb128 0xa
 2312 058b 67657400 		.ascii	"get\000"
ARM GAS  C:\Users\DNIEL~1\AppData\Local\Temp\cc8JXkoo.s 			page 44


 2313 058f 0C       		.byte	0xc
 2314 0590 42       		.byte	0x42
 2315 0591 38050000 		.4byte	0x538
 2316 0595 02       		.byte	0x2
 2317 0596 23       		.byte	0x23
 2318 0597 0C       		.uleb128 0xc
 2319 0598 00       		.byte	0x0
 2320 0599 11       		.uleb128 0x11
 2321 059a 01       		.byte	0x1
 2322 059b 29000000 		.4byte	0x29
 2323 059f B3050000 		.4byte	0x5b3
 2324 05a3 12       		.uleb128 0x12
 2325 05a4 73000000 		.4byte	0x73
 2326 05a8 12       		.uleb128 0x12
 2327 05a9 B3050000 		.4byte	0x5b3
 2328 05ad 12       		.uleb128 0x12
 2329 05ae 29000000 		.4byte	0x29
 2330 05b2 00       		.byte	0x0
 2331 05b3 06       		.uleb128 0x6
 2332 05b4 04       		.byte	0x4
 2333 05b5 B9050000 		.4byte	0x5b9
 2334 05b9 07       		.uleb128 0x7
 2335 05ba 94000000 		.4byte	0x94
 2336 05be 06       		.uleb128 0x6
 2337 05bf 04       		.byte	0x4
 2338 05c0 99050000 		.4byte	0x599
 2339 05c4 11       		.uleb128 0x11
 2340 05c5 01       		.byte	0x1
 2341 05c6 29000000 		.4byte	0x29
 2342 05ca DE050000 		.4byte	0x5de
 2343 05ce 12       		.uleb128 0x12
 2344 05cf 73000000 		.4byte	0x73
 2345 05d3 12       		.uleb128 0x12
 2346 05d4 4E050000 		.4byte	0x54e
 2347 05d8 12       		.uleb128 0x12
 2348 05d9 29000000 		.4byte	0x29
 2349 05dd 00       		.byte	0x0
 2350 05de 06       		.uleb128 0x6
 2351 05df 04       		.byte	0x4
 2352 05e0 C4050000 		.4byte	0x5c4
 2353 05e4 11       		.uleb128 0x11
 2354 05e5 01       		.byte	0x1
 2355 05e6 0D010000 		.4byte	0x10d
 2356 05ea F9050000 		.4byte	0x5f9
 2357 05ee 12       		.uleb128 0x12
 2358 05ef 73000000 		.4byte	0x73
 2359 05f3 12       		.uleb128 0x12
 2360 05f4 94000000 		.4byte	0x94
 2361 05f8 00       		.byte	0x0
 2362 05f9 06       		.uleb128 0x6
 2363 05fa 04       		.byte	0x4
 2364 05fb E4050000 		.4byte	0x5e4
 2365 05ff 0B       		.uleb128 0xb
 2366 0600 04       		.byte	0x4
 2367 0601 0C       		.byte	0xc
 2368 0602 4A       		.byte	0x4a
 2369 0603 16060000 		.4byte	0x616
ARM GAS  C:\Users\DNIEL~1\AppData\Local\Temp\cc8JXkoo.s 			page 45


 2370 0607 0A       		.uleb128 0xa
 2371 0608 766D7400 		.ascii	"vmt\000"
 2372 060c 0C       		.byte	0xc
 2373 060d 4C       		.byte	0x4c
 2374 060e 16060000 		.4byte	0x616
 2375 0612 02       		.byte	0x2
 2376 0613 23       		.byte	0x23
 2377 0614 00       		.uleb128 0x0
 2378 0615 00       		.byte	0x0
 2379 0616 06       		.uleb128 0x6
 2380 0617 04       		.byte	0x4
 2381 0618 1C060000 		.4byte	0x61c
 2382 061c 07       		.uleb128 0x7
 2383 061d 54050000 		.4byte	0x554
 2384 0621 02       		.uleb128 0x2
 2385 0622 DF010000 		.4byte	.LASF81
 2386 0626 0C       		.byte	0xc
 2387 0627 4E       		.byte	0x4e
 2388 0628 FF050000 		.4byte	0x5ff
 2389 062c 13       		.uleb128 0x13
 2390 062d C0000000 		.4byte	0xc0
 2391 0631 3C060000 		.4byte	0x63c
 2392 0635 14       		.uleb128 0x14
 2393 0636 34000000 		.4byte	0x34
 2394 063a 07       		.byte	0x7
 2395 063b 00       		.byte	0x0
 2396 063c 13       		.uleb128 0x13
 2397 063d C0000000 		.4byte	0xc0
 2398 0641 4C060000 		.4byte	0x64c
 2399 0645 14       		.uleb128 0x14
 2400 0646 34000000 		.4byte	0x34
 2401 064a 01       		.byte	0x1
 2402 064b 00       		.byte	0x0
 2403 064c 0E       		.uleb128 0xe
 2404 064d B5000000 		.4byte	0xb5
 2405 0651 15       		.uleb128 0x15
 2406 0652 10       		.byte	0x10
 2407 0653 0D       		.byte	0xd
 2408 0654 5101     		.2byte	0x151
 2409 0656 97060000 		.4byte	0x697
 2410 065a 0D       		.uleb128 0xd
 2411 065b 54495200 		.ascii	"TIR\000"
 2412 065f 0D       		.byte	0xd
 2413 0660 5301     		.2byte	0x153
 2414 0662 93030000 		.4byte	0x393
 2415 0666 02       		.byte	0x2
 2416 0667 23       		.byte	0x23
 2417 0668 00       		.uleb128 0x0
 2418 0669 16       		.uleb128 0x16
 2419 066a CE010000 		.4byte	.LASF82
 2420 066e 0D       		.byte	0xd
 2421 066f 5401     		.2byte	0x154
 2422 0671 93030000 		.4byte	0x393
 2423 0675 02       		.byte	0x2
 2424 0676 23       		.byte	0x23
 2425 0677 04       		.uleb128 0x4
 2426 0678 16       		.uleb128 0x16
ARM GAS  C:\Users\DNIEL~1\AppData\Local\Temp\cc8JXkoo.s 			page 46


 2427 0679 12010000 		.4byte	.LASF83
 2428 067d 0D       		.byte	0xd
 2429 067e 5501     		.2byte	0x155
 2430 0680 93030000 		.4byte	0x393
 2431 0684 02       		.byte	0x2
 2432 0685 23       		.byte	0x23
 2433 0686 08       		.uleb128 0x8
 2434 0687 16       		.uleb128 0x16
 2435 0688 55030000 		.4byte	.LASF84
 2436 068c 0D       		.byte	0xd
 2437 068d 5601     		.2byte	0x156
 2438 068f 93030000 		.4byte	0x393
 2439 0693 02       		.byte	0x2
 2440 0694 23       		.byte	0x23
 2441 0695 0C       		.uleb128 0xc
 2442 0696 00       		.byte	0x0
 2443 0697 17       		.uleb128 0x17
 2444 0698 39010000 		.4byte	.LASF85
 2445 069c 0D       		.byte	0xd
 2446 069d 5701     		.2byte	0x157
 2447 069f 51060000 		.4byte	0x651
 2448 06a3 15       		.uleb128 0x15
 2449 06a4 10       		.byte	0x10
 2450 06a5 0D       		.byte	0xd
 2451 06a6 5D01     		.2byte	0x15d
 2452 06a8 E9060000 		.4byte	0x6e9
 2453 06ac 0D       		.uleb128 0xd
 2454 06ad 52495200 		.ascii	"RIR\000"
 2455 06b1 0D       		.byte	0xd
 2456 06b2 5F01     		.2byte	0x15f
 2457 06b4 93030000 		.4byte	0x393
 2458 06b8 02       		.byte	0x2
 2459 06b9 23       		.byte	0x23
 2460 06ba 00       		.uleb128 0x0
 2461 06bb 16       		.uleb128 0x16
 2462 06bc 2D020000 		.4byte	.LASF86
 2463 06c0 0D       		.byte	0xd
 2464 06c1 6001     		.2byte	0x160
 2465 06c3 93030000 		.4byte	0x393
 2466 06c7 02       		.byte	0x2
 2467 06c8 23       		.byte	0x23
 2468 06c9 04       		.uleb128 0x4
 2469 06ca 16       		.uleb128 0x16
 2470 06cb B5060000 		.4byte	.LASF87
 2471 06cf 0D       		.byte	0xd
 2472 06d0 6101     		.2byte	0x161
 2473 06d2 93030000 		.4byte	0x393
 2474 06d6 02       		.byte	0x2
 2475 06d7 23       		.byte	0x23
 2476 06d8 08       		.uleb128 0x8
 2477 06d9 16       		.uleb128 0x16
 2478 06da 29050000 		.4byte	.LASF88
 2479 06de 0D       		.byte	0xd
 2480 06df 6201     		.2byte	0x162
 2481 06e1 93030000 		.4byte	0x393
 2482 06e5 02       		.byte	0x2
 2483 06e6 23       		.byte	0x23
ARM GAS  C:\Users\DNIEL~1\AppData\Local\Temp\cc8JXkoo.s 			page 47


 2484 06e7 0C       		.uleb128 0xc
 2485 06e8 00       		.byte	0x0
 2486 06e9 17       		.uleb128 0x17
 2487 06ea D8050000 		.4byte	.LASF89
 2488 06ee 0D       		.byte	0xd
 2489 06ef 6301     		.2byte	0x163
 2490 06f1 A3060000 		.4byte	0x6a3
 2491 06f5 15       		.uleb128 0x15
 2492 06f6 08       		.byte	0x8
 2493 06f7 0D       		.byte	0xd
 2494 06f8 6901     		.2byte	0x169
 2495 06fa 1D070000 		.4byte	0x71d
 2496 06fe 0D       		.uleb128 0xd
 2497 06ff 46523100 		.ascii	"FR1\000"
 2498 0703 0D       		.byte	0xd
 2499 0704 6B01     		.2byte	0x16b
 2500 0706 93030000 		.4byte	0x393
 2501 070a 02       		.byte	0x2
 2502 070b 23       		.byte	0x23
 2503 070c 00       		.uleb128 0x0
 2504 070d 0D       		.uleb128 0xd
 2505 070e 46523200 		.ascii	"FR2\000"
 2506 0712 0D       		.byte	0xd
 2507 0713 6C01     		.2byte	0x16c
 2508 0715 93030000 		.4byte	0x393
 2509 0719 02       		.byte	0x2
 2510 071a 23       		.byte	0x23
 2511 071b 04       		.uleb128 0x4
 2512 071c 00       		.byte	0x0
 2513 071d 17       		.uleb128 0x17
 2514 071e 71020000 		.4byte	.LASF90
 2515 0722 0D       		.byte	0xd
 2516 0723 6D01     		.2byte	0x16d
 2517 0725 F5060000 		.4byte	0x6f5
 2518 0729 18       		.uleb128 0x18
 2519 072a 2003     		.2byte	0x320
 2520 072c 0D       		.byte	0xd
 2521 072d 7301     		.2byte	0x173
 2522 072f 8B080000 		.4byte	0x88b
 2523 0733 0D       		.uleb128 0xd
 2524 0734 4D435200 		.ascii	"MCR\000"
 2525 0738 0D       		.byte	0xd
 2526 0739 7501     		.2byte	0x175
 2527 073b 93030000 		.4byte	0x393
 2528 073f 02       		.byte	0x2
 2529 0740 23       		.byte	0x23
 2530 0741 00       		.uleb128 0x0
 2531 0742 0D       		.uleb128 0xd
 2532 0743 4D535200 		.ascii	"MSR\000"
 2533 0747 0D       		.byte	0xd
 2534 0748 7601     		.2byte	0x176
 2535 074a 93030000 		.4byte	0x393
 2536 074e 02       		.byte	0x2
 2537 074f 23       		.byte	0x23
 2538 0750 04       		.uleb128 0x4
 2539 0751 0D       		.uleb128 0xd
 2540 0752 54535200 		.ascii	"TSR\000"
ARM GAS  C:\Users\DNIEL~1\AppData\Local\Temp\cc8JXkoo.s 			page 48


 2541 0756 0D       		.byte	0xd
 2542 0757 7701     		.2byte	0x177
 2543 0759 93030000 		.4byte	0x393
 2544 075d 02       		.byte	0x2
 2545 075e 23       		.byte	0x23
 2546 075f 08       		.uleb128 0x8
 2547 0760 16       		.uleb128 0x16
 2548 0761 9E010000 		.4byte	.LASF91
 2549 0765 0D       		.byte	0xd
 2550 0766 7801     		.2byte	0x178
 2551 0768 93030000 		.4byte	0x393
 2552 076c 02       		.byte	0x2
 2553 076d 23       		.byte	0x23
 2554 076e 0C       		.uleb128 0xc
 2555 076f 16       		.uleb128 0x16
 2556 0770 65020000 		.4byte	.LASF92
 2557 0774 0D       		.byte	0xd
 2558 0775 7901     		.2byte	0x179
 2559 0777 93030000 		.4byte	0x393
 2560 077b 02       		.byte	0x2
 2561 077c 23       		.byte	0x23
 2562 077d 10       		.uleb128 0x10
 2563 077e 0D       		.uleb128 0xd
 2564 077f 49455200 		.ascii	"IER\000"
 2565 0783 0D       		.byte	0xd
 2566 0784 7A01     		.2byte	0x17a
 2567 0786 93030000 		.4byte	0x393
 2568 078a 02       		.byte	0x2
 2569 078b 23       		.byte	0x23
 2570 078c 14       		.uleb128 0x14
 2571 078d 0D       		.uleb128 0xd
 2572 078e 45535200 		.ascii	"ESR\000"
 2573 0792 0D       		.byte	0xd
 2574 0793 7B01     		.2byte	0x17b
 2575 0795 93030000 		.4byte	0x393
 2576 0799 02       		.byte	0x2
 2577 079a 23       		.byte	0x23
 2578 079b 18       		.uleb128 0x18
 2579 079c 0D       		.uleb128 0xd
 2580 079d 42545200 		.ascii	"BTR\000"
 2581 07a1 0D       		.byte	0xd
 2582 07a2 7C01     		.2byte	0x17c
 2583 07a4 93030000 		.4byte	0x393
 2584 07a8 02       		.byte	0x2
 2585 07a9 23       		.byte	0x23
 2586 07aa 1C       		.uleb128 0x1c
 2587 07ab 16       		.uleb128 0x16
 2588 07ac C0030000 		.4byte	.LASF93
 2589 07b0 0D       		.byte	0xd
 2590 07b1 7D01     		.2byte	0x17d
 2591 07b3 8B080000 		.4byte	0x88b
 2592 07b7 02       		.byte	0x2
 2593 07b8 23       		.byte	0x23
 2594 07b9 20       		.uleb128 0x20
 2595 07ba 16       		.uleb128 0x16
 2596 07bb 17020000 		.4byte	.LASF94
 2597 07bf 0D       		.byte	0xd
ARM GAS  C:\Users\DNIEL~1\AppData\Local\Temp\cc8JXkoo.s 			page 49


 2598 07c0 7E01     		.2byte	0x17e
 2599 07c2 9B080000 		.4byte	0x89b
 2600 07c6 03       		.byte	0x3
 2601 07c7 23       		.byte	0x23
 2602 07c8 8003     		.uleb128 0x180
 2603 07ca 16       		.uleb128 0x16
 2604 07cb 53050000 		.4byte	.LASF95
 2605 07cf 0D       		.byte	0xd
 2606 07d0 7F01     		.2byte	0x17f
 2607 07d2 AB080000 		.4byte	0x8ab
 2608 07d6 03       		.byte	0x3
 2609 07d7 23       		.byte	0x23
 2610 07d8 B003     		.uleb128 0x1b0
 2611 07da 16       		.uleb128 0x16
 2612 07db CA030000 		.4byte	.LASF96
 2613 07df 0D       		.byte	0xd
 2614 07e0 8001     		.2byte	0x180
 2615 07e2 BB080000 		.4byte	0x8bb
 2616 07e6 03       		.byte	0x3
 2617 07e7 23       		.byte	0x23
 2618 07e8 D003     		.uleb128 0x1d0
 2619 07ea 0D       		.uleb128 0xd
 2620 07eb 464D5200 		.ascii	"FMR\000"
 2621 07ef 0D       		.byte	0xd
 2622 07f0 8101     		.2byte	0x181
 2623 07f2 93030000 		.4byte	0x393
 2624 07f6 03       		.byte	0x3
 2625 07f7 23       		.byte	0x23
 2626 07f8 8004     		.uleb128 0x200
 2627 07fa 16       		.uleb128 0x16
 2628 07fb AC040000 		.4byte	.LASF97
 2629 07ff 0D       		.byte	0xd
 2630 0800 8201     		.2byte	0x182
 2631 0802 93030000 		.4byte	0x393
 2632 0806 03       		.byte	0x3
 2633 0807 23       		.byte	0x23
 2634 0808 8404     		.uleb128 0x204
 2635 080a 16       		.uleb128 0x16
 2636 080b D4030000 		.4byte	.LASF98
 2637 080f 0D       		.byte	0xd
 2638 0810 8301     		.2byte	0x183
 2639 0812 C0000000 		.4byte	0xc0
 2640 0816 03       		.byte	0x3
 2641 0817 23       		.byte	0x23
 2642 0818 8804     		.uleb128 0x208
 2643 081a 16       		.uleb128 0x16
 2644 081b A0000000 		.4byte	.LASF99
 2645 081f 0D       		.byte	0xd
 2646 0820 8401     		.2byte	0x184
 2647 0822 93030000 		.4byte	0x393
 2648 0826 03       		.byte	0x3
 2649 0827 23       		.byte	0x23
 2650 0828 8C04     		.uleb128 0x20c
 2651 082a 16       		.uleb128 0x16
 2652 082b DE030000 		.4byte	.LASF100
 2653 082f 0D       		.byte	0xd
 2654 0830 8501     		.2byte	0x185
ARM GAS  C:\Users\DNIEL~1\AppData\Local\Temp\cc8JXkoo.s 			page 50


 2655 0832 C0000000 		.4byte	0xc0
 2656 0836 03       		.byte	0x3
 2657 0837 23       		.byte	0x23
 2658 0838 9004     		.uleb128 0x210
 2659 083a 16       		.uleb128 0x16
 2660 083b 94030000 		.4byte	.LASF101
 2661 083f 0D       		.byte	0xd
 2662 0840 8601     		.2byte	0x186
 2663 0842 93030000 		.4byte	0x393
 2664 0846 03       		.byte	0x3
 2665 0847 23       		.byte	0x23
 2666 0848 9404     		.uleb128 0x214
 2667 084a 16       		.uleb128 0x16
 2668 084b E8030000 		.4byte	.LASF102
 2669 084f 0D       		.byte	0xd
 2670 0850 8701     		.2byte	0x187
 2671 0852 C0000000 		.4byte	0xc0
 2672 0856 03       		.byte	0x3
 2673 0857 23       		.byte	0x23
 2674 0858 9804     		.uleb128 0x218
 2675 085a 16       		.uleb128 0x16
 2676 085b FB020000 		.4byte	.LASF103
 2677 085f 0D       		.byte	0xd
 2678 0860 8801     		.2byte	0x188
 2679 0862 93030000 		.4byte	0x393
 2680 0866 03       		.byte	0x3
 2681 0867 23       		.byte	0x23
 2682 0868 9C04     		.uleb128 0x21c
 2683 086a 16       		.uleb128 0x16
 2684 086b CD040000 		.4byte	.LASF104
 2685 086f 0D       		.byte	0xd
 2686 0870 8901     		.2byte	0x189
 2687 0872 2C060000 		.4byte	0x62c
 2688 0876 03       		.byte	0x3
 2689 0877 23       		.byte	0x23
 2690 0878 A004     		.uleb128 0x220
 2691 087a 16       		.uleb128 0x16
 2692 087b B5020000 		.4byte	.LASF105
 2693 087f 0D       		.byte	0xd
 2694 0880 8A01     		.2byte	0x18a
 2695 0882 CB080000 		.4byte	0x8cb
 2696 0886 03       		.byte	0x3
 2697 0887 23       		.byte	0x23
 2698 0888 C004     		.uleb128 0x240
 2699 088a 00       		.byte	0x0
 2700 088b 13       		.uleb128 0x13
 2701 088c C0000000 		.4byte	0xc0
 2702 0890 9B080000 		.4byte	0x89b
 2703 0894 14       		.uleb128 0x14
 2704 0895 34000000 		.4byte	0x34
 2705 0899 57       		.byte	0x57
 2706 089a 00       		.byte	0x0
 2707 089b 13       		.uleb128 0x13
 2708 089c 97060000 		.4byte	0x697
 2709 08a0 AB080000 		.4byte	0x8ab
 2710 08a4 14       		.uleb128 0x14
 2711 08a5 34000000 		.4byte	0x34
ARM GAS  C:\Users\DNIEL~1\AppData\Local\Temp\cc8JXkoo.s 			page 51


 2712 08a9 02       		.byte	0x2
 2713 08aa 00       		.byte	0x0
 2714 08ab 13       		.uleb128 0x13
 2715 08ac E9060000 		.4byte	0x6e9
 2716 08b0 BB080000 		.4byte	0x8bb
 2717 08b4 14       		.uleb128 0x14
 2718 08b5 34000000 		.4byte	0x34
 2719 08b9 01       		.byte	0x1
 2720 08ba 00       		.byte	0x0
 2721 08bb 13       		.uleb128 0x13
 2722 08bc C0000000 		.4byte	0xc0
 2723 08c0 CB080000 		.4byte	0x8cb
 2724 08c4 14       		.uleb128 0x14
 2725 08c5 34000000 		.4byte	0x34
 2726 08c9 0B       		.byte	0xb
 2727 08ca 00       		.byte	0x0
 2728 08cb 13       		.uleb128 0x13
 2729 08cc 1D070000 		.4byte	0x71d
 2730 08d0 DB080000 		.4byte	0x8db
 2731 08d4 14       		.uleb128 0x14
 2732 08d5 34000000 		.4byte	0x34
 2733 08d9 1B       		.byte	0x1b
 2734 08da 00       		.byte	0x0
 2735 08db 17       		.uleb128 0x17
 2736 08dc 5F000000 		.4byte	.LASF106
 2737 08e0 0D       		.byte	0xd
 2738 08e1 8B01     		.2byte	0x18b
 2739 08e3 29070000 		.4byte	0x729
 2740 08e7 08       		.uleb128 0x8
 2741 08e8 88000000 		.4byte	.LASF107
 2742 08ec 20       		.byte	0x20
 2743 08ed 0E       		.byte	0xe
 2744 08ee 46       		.byte	0x46
 2745 08ef 64090000 		.4byte	0x964
 2746 08f3 09       		.uleb128 0x9
 2747 08f4 F0020000 		.4byte	.LASF79
 2748 08f8 0E       		.byte	0xe
 2749 08f9 47       		.byte	0x47
 2750 08fa BE050000 		.4byte	0x5be
 2751 08fe 02       		.byte	0x2
 2752 08ff 23       		.byte	0x23
 2753 0900 00       		.uleb128 0x0
 2754 0901 09       		.uleb128 0x9
 2755 0902 9A030000 		.4byte	.LASF80
 2756 0906 0E       		.byte	0xe
 2757 0907 47       		.byte	0x47
 2758 0908 DE050000 		.4byte	0x5de
 2759 090c 02       		.byte	0x2
 2760 090d 23       		.byte	0x23
 2761 090e 04       		.uleb128 0x4
 2762 090f 0A       		.uleb128 0xa
 2763 0910 70757400 		.ascii	"put\000"
 2764 0914 0E       		.byte	0xe
 2765 0915 47       		.byte	0x47
 2766 0916 F9050000 		.4byte	0x5f9
 2767 091a 02       		.byte	0x2
 2768 091b 23       		.byte	0x23
ARM GAS  C:\Users\DNIEL~1\AppData\Local\Temp\cc8JXkoo.s 			page 52


 2769 091c 08       		.uleb128 0x8
 2770 091d 0A       		.uleb128 0xa
 2771 091e 67657400 		.ascii	"get\000"
 2772 0922 0E       		.byte	0xe
 2773 0923 47       		.byte	0x47
 2774 0924 38050000 		.4byte	0x538
 2775 0928 02       		.byte	0x2
 2776 0929 23       		.byte	0x23
 2777 092a 0C       		.uleb128 0xc
 2778 092b 09       		.uleb128 0x9
 2779 092c F6020000 		.4byte	.LASF108
 2780 0930 0E       		.byte	0xe
 2781 0931 47       		.byte	0x47
 2782 0932 7E090000 		.4byte	0x97e
 2783 0936 02       		.byte	0x2
 2784 0937 23       		.byte	0x23
 2785 0938 10       		.uleb128 0x10
 2786 0939 09       		.uleb128 0x9
 2787 093a 3D020000 		.4byte	.LASF109
 2788 093e 0E       		.byte	0xe
 2789 093f 47       		.byte	0x47
 2790 0940 99090000 		.4byte	0x999
 2791 0944 02       		.byte	0x2
 2792 0945 23       		.byte	0x23
 2793 0946 14       		.uleb128 0x14
 2794 0947 09       		.uleb128 0x9
 2795 0948 9A020000 		.4byte	.LASF110
 2796 094c 0E       		.byte	0xe
 2797 094d 47       		.byte	0x47
 2798 094e BE090000 		.4byte	0x9be
 2799 0952 02       		.byte	0x2
 2800 0953 23       		.byte	0x23
 2801 0954 18       		.uleb128 0x18
 2802 0955 09       		.uleb128 0x9
 2803 0956 B3000000 		.4byte	.LASF111
 2804 095a 0E       		.byte	0xe
 2805 095b 47       		.byte	0x47
 2806 095c E3090000 		.4byte	0x9e3
 2807 0960 02       		.byte	0x2
 2808 0961 23       		.byte	0x23
 2809 0962 1C       		.uleb128 0x1c
 2810 0963 00       		.byte	0x0
 2811 0964 11       		.uleb128 0x11
 2812 0965 01       		.byte	0x1
 2813 0966 0D010000 		.4byte	0x10d
 2814 096a 7E090000 		.4byte	0x97e
 2815 096e 12       		.uleb128 0x12
 2816 096f 73000000 		.4byte	0x73
 2817 0973 12       		.uleb128 0x12
 2818 0974 94000000 		.4byte	0x94
 2819 0978 12       		.uleb128 0x12
 2820 0979 2E010000 		.4byte	0x12e
 2821 097d 00       		.byte	0x0
 2822 097e 06       		.uleb128 0x6
 2823 097f 04       		.byte	0x4
 2824 0980 64090000 		.4byte	0x964
 2825 0984 11       		.uleb128 0x11
ARM GAS  C:\Users\DNIEL~1\AppData\Local\Temp\cc8JXkoo.s 			page 53


 2826 0985 01       		.byte	0x1
 2827 0986 0D010000 		.4byte	0x10d
 2828 098a 99090000 		.4byte	0x999
 2829 098e 12       		.uleb128 0x12
 2830 098f 73000000 		.4byte	0x73
 2831 0993 12       		.uleb128 0x12
 2832 0994 2E010000 		.4byte	0x12e
 2833 0998 00       		.byte	0x0
 2834 0999 06       		.uleb128 0x6
 2835 099a 04       		.byte	0x4
 2836 099b 84090000 		.4byte	0x984
 2837 099f 11       		.uleb128 0x11
 2838 09a0 01       		.byte	0x1
 2839 09a1 29000000 		.4byte	0x29
 2840 09a5 BE090000 		.4byte	0x9be
 2841 09a9 12       		.uleb128 0x12
 2842 09aa 73000000 		.4byte	0x73
 2843 09ae 12       		.uleb128 0x12
 2844 09af B3050000 		.4byte	0x5b3
 2845 09b3 12       		.uleb128 0x12
 2846 09b4 29000000 		.4byte	0x29
 2847 09b8 12       		.uleb128 0x12
 2848 09b9 2E010000 		.4byte	0x12e
 2849 09bd 00       		.byte	0x0
 2850 09be 06       		.uleb128 0x6
 2851 09bf 04       		.byte	0x4
 2852 09c0 9F090000 		.4byte	0x99f
 2853 09c4 11       		.uleb128 0x11
 2854 09c5 01       		.byte	0x1
 2855 09c6 29000000 		.4byte	0x29
 2856 09ca E3090000 		.4byte	0x9e3
 2857 09ce 12       		.uleb128 0x12
 2858 09cf 73000000 		.4byte	0x73
 2859 09d3 12       		.uleb128 0x12
 2860 09d4 4E050000 		.4byte	0x54e
 2861 09d8 12       		.uleb128 0x12
 2862 09d9 29000000 		.4byte	0x29
 2863 09dd 12       		.uleb128 0x12
 2864 09de 2E010000 		.4byte	0x12e
 2865 09e2 00       		.byte	0x0
 2866 09e3 06       		.uleb128 0x6
 2867 09e4 04       		.byte	0x4
 2868 09e5 C4090000 		.4byte	0x9c4
 2869 09e9 0B       		.uleb128 0xb
 2870 09ea 04       		.byte	0x4
 2871 09eb 0E       		.byte	0xe
 2872 09ec 51       		.byte	0x51
 2873 09ed 000A0000 		.4byte	0xa00
 2874 09f1 0A       		.uleb128 0xa
 2875 09f2 766D7400 		.ascii	"vmt\000"
 2876 09f6 0E       		.byte	0xe
 2877 09f7 53       		.byte	0x53
 2878 09f8 000A0000 		.4byte	0xa00
 2879 09fc 02       		.byte	0x2
 2880 09fd 23       		.byte	0x23
 2881 09fe 00       		.uleb128 0x0
 2882 09ff 00       		.byte	0x0
ARM GAS  C:\Users\DNIEL~1\AppData\Local\Temp\cc8JXkoo.s 			page 54


 2883 0a00 06       		.uleb128 0x6
 2884 0a01 04       		.byte	0x4
 2885 0a02 060A0000 		.4byte	0xa06
 2886 0a06 07       		.uleb128 0x7
 2887 0a07 E7080000 		.4byte	0x8e7
 2888 0a0b 02       		.uleb128 0x2
 2889 0a0c A9060000 		.4byte	.LASF112
 2890 0a10 0E       		.byte	0xe
 2891 0a11 55       		.byte	0x55
 2892 0a12 E9090000 		.4byte	0x9e9
 2893 0a16 19       		.uleb128 0x19
 2894 0a17 01       		.byte	0x1
 2895 0a18 0F       		.byte	0xf
 2896 0a19 62       		.byte	0x62
 2897 0a1a 3D0A0000 		.4byte	0xa3d
 2898 0a1e 1A       		.uleb128 0x1a
 2899 0a1f 01040000 		.4byte	.LASF113
 2900 0a23 00       		.sleb128 0
 2901 0a24 1A       		.uleb128 0x1a
 2902 0a25 8B030000 		.4byte	.LASF114
 2903 0a29 01       		.sleb128 1
 2904 0a2a 1A       		.uleb128 0x1a
 2905 0a2b DB000000 		.4byte	.LASF115
 2906 0a2f 02       		.sleb128 2
 2907 0a30 1A       		.uleb128 0x1a
 2908 0a31 94010000 		.4byte	.LASF116
 2909 0a35 03       		.sleb128 3
 2910 0a36 1A       		.uleb128 0x1a
 2911 0a37 10030000 		.4byte	.LASF117
 2912 0a3b 04       		.sleb128 4
 2913 0a3c 00       		.byte	0x0
 2914 0a3d 02       		.uleb128 0x2
 2915 0a3e 80030000 		.4byte	.LASF118
 2916 0a42 0F       		.byte	0xf
 2917 0a43 68       		.byte	0x68
 2918 0a44 160A0000 		.4byte	0xa16
 2919 0a48 0B       		.uleb128 0xb
 2920 0a49 01       		.byte	0x1
 2921 0a4a 10       		.byte	0x10
 2922 0a4b 78       		.byte	0x78
 2923 0a4c 840A0000 		.4byte	0xa84
 2924 0a50 1B       		.uleb128 0x1b
 2925 0a51 444C4300 		.ascii	"DLC\000"
 2926 0a55 10       		.byte	0x10
 2927 0a56 79       		.byte	0x79
 2928 0a57 94000000 		.4byte	0x94
 2929 0a5b 01       		.byte	0x1
 2930 0a5c 04       		.byte	0x4
 2931 0a5d 04       		.byte	0x4
 2932 0a5e 02       		.byte	0x2
 2933 0a5f 23       		.byte	0x23
 2934 0a60 00       		.uleb128 0x0
 2935 0a61 1B       		.uleb128 0x1b
 2936 0a62 52545200 		.ascii	"RTR\000"
 2937 0a66 10       		.byte	0x10
 2938 0a67 7A       		.byte	0x7a
 2939 0a68 94000000 		.4byte	0x94
ARM GAS  C:\Users\DNIEL~1\AppData\Local\Temp\cc8JXkoo.s 			page 55


 2940 0a6c 01       		.byte	0x1
 2941 0a6d 01       		.byte	0x1
 2942 0a6e 03       		.byte	0x3
 2943 0a6f 02       		.byte	0x2
 2944 0a70 23       		.byte	0x23
 2945 0a71 00       		.uleb128 0x0
 2946 0a72 1B       		.uleb128 0x1b
 2947 0a73 49444500 		.ascii	"IDE\000"
 2948 0a77 10       		.byte	0x10
 2949 0a78 7B       		.byte	0x7b
 2950 0a79 94000000 		.4byte	0x94
 2951 0a7d 01       		.byte	0x1
 2952 0a7e 01       		.byte	0x1
 2953 0a7f 02       		.byte	0x2
 2954 0a80 02       		.byte	0x2
 2955 0a81 23       		.byte	0x23
 2956 0a82 00       		.uleb128 0x0
 2957 0a83 00       		.byte	0x0
 2958 0a84 0B       		.uleb128 0xb
 2959 0a85 04       		.byte	0x4
 2960 0a86 10       		.byte	0x10
 2961 0a87 7E       		.byte	0x7e
 2962 0a88 9E0A0000 		.4byte	0xa9e
 2963 0a8c 1B       		.uleb128 0x1b
 2964 0a8d 53494400 		.ascii	"SID\000"
 2965 0a91 10       		.byte	0x10
 2966 0a92 7F       		.byte	0x7f
 2967 0a93 C0000000 		.4byte	0xc0
 2968 0a97 04       		.byte	0x4
 2969 0a98 0B       		.byte	0xb
 2970 0a99 15       		.byte	0x15
 2971 0a9a 02       		.byte	0x2
 2972 0a9b 23       		.byte	0x23
 2973 0a9c 00       		.uleb128 0x0
 2974 0a9d 00       		.byte	0x0
 2975 0a9e 0B       		.uleb128 0xb
 2976 0a9f 04       		.byte	0x4
 2977 0aa0 10       		.byte	0x10
 2978 0aa1 81       		.byte	0x81
 2979 0aa2 B80A0000 		.4byte	0xab8
 2980 0aa6 1B       		.uleb128 0x1b
 2981 0aa7 45494400 		.ascii	"EID\000"
 2982 0aab 10       		.byte	0x10
 2983 0aac 82       		.byte	0x82
 2984 0aad C0000000 		.4byte	0xc0
 2985 0ab1 04       		.byte	0x4
 2986 0ab2 1D       		.byte	0x1d
 2987 0ab3 03       		.byte	0x3
 2988 0ab4 02       		.byte	0x2
 2989 0ab5 23       		.byte	0x23
 2990 0ab6 00       		.uleb128 0x0
 2991 0ab7 00       		.byte	0x0
 2992 0ab8 0F       		.uleb128 0xf
 2993 0ab9 04       		.byte	0x4
 2994 0aba 10       		.byte	0x10
 2995 0abb 7D       		.byte	0x7d
 2996 0abc CB0A0000 		.4byte	0xacb
ARM GAS  C:\Users\DNIEL~1\AppData\Local\Temp\cc8JXkoo.s 			page 56


 2997 0ac0 1C       		.uleb128 0x1c
 2998 0ac1 840A0000 		.4byte	0xa84
 2999 0ac5 1C       		.uleb128 0x1c
 3000 0ac6 9E0A0000 		.4byte	0xa9e
 3001 0aca 00       		.byte	0x0
 3002 0acb 0F       		.uleb128 0xf
 3003 0acc 08       		.byte	0x8
 3004 0acd 10       		.byte	0x10
 3005 0ace 85       		.byte	0x85
 3006 0acf F50A0000 		.4byte	0xaf5
 3007 0ad3 10       		.uleb128 0x10
 3008 0ad4 21030000 		.4byte	.LASF119
 3009 0ad8 10       		.byte	0x10
 3010 0ad9 86       		.byte	0x86
 3011 0ada F50A0000 		.4byte	0xaf5
 3012 0ade 10       		.uleb128 0x10
 3013 0adf A2050000 		.4byte	.LASF120
 3014 0ae3 10       		.byte	0x10
 3015 0ae4 87       		.byte	0x87
 3016 0ae5 050B0000 		.4byte	0xb05
 3017 0ae9 10       		.uleb128 0x10
 3018 0aea A5000000 		.4byte	.LASF121
 3019 0aee 10       		.byte	0x10
 3020 0aef 88       		.byte	0x88
 3021 0af0 3C060000 		.4byte	0x63c
 3022 0af4 00       		.byte	0x0
 3023 0af5 13       		.uleb128 0x13
 3024 0af6 94000000 		.4byte	0x94
 3025 0afa 050B0000 		.4byte	0xb05
 3026 0afe 14       		.uleb128 0x14
 3027 0aff 34000000 		.4byte	0x34
 3028 0b03 07       		.byte	0x7
 3029 0b04 00       		.byte	0x0
 3030 0b05 13       		.uleb128 0x13
 3031 0b06 AA000000 		.4byte	0xaa
 3032 0b0a 150B0000 		.4byte	0xb15
 3033 0b0e 14       		.uleb128 0x14
 3034 0b0f 34000000 		.4byte	0x34
 3035 0b13 03       		.byte	0x3
 3036 0b14 00       		.byte	0x0
 3037 0b15 0B       		.uleb128 0xb
 3038 0b16 10       		.byte	0x10
 3039 0b17 10       		.byte	0x10
 3040 0b18 77       		.byte	0x77
 3041 0b19 360B0000 		.4byte	0xb36
 3042 0b1d 1D       		.uleb128 0x1d
 3043 0b1e 480A0000 		.4byte	0xa48
 3044 0b22 02       		.byte	0x2
 3045 0b23 23       		.byte	0x23
 3046 0b24 00       		.uleb128 0x0
 3047 0b25 1D       		.uleb128 0x1d
 3048 0b26 B80A0000 		.4byte	0xab8
 3049 0b2a 02       		.byte	0x2
 3050 0b2b 23       		.byte	0x23
 3051 0b2c 04       		.uleb128 0x4
 3052 0b2d 1D       		.uleb128 0x1d
 3053 0b2e CB0A0000 		.4byte	0xacb
ARM GAS  C:\Users\DNIEL~1\AppData\Local\Temp\cc8JXkoo.s 			page 57


 3054 0b32 02       		.byte	0x2
 3055 0b33 23       		.byte	0x23
 3056 0b34 08       		.uleb128 0x8
 3057 0b35 00       		.byte	0x0
 3058 0b36 02       		.uleb128 0x2
 3059 0b37 32020000 		.4byte	.LASF122
 3060 0b3b 10       		.byte	0x10
 3061 0b3c 8A       		.byte	0x8a
 3062 0b3d 150B0000 		.4byte	0xb15
 3063 0b41 0B       		.uleb128 0xb
 3064 0b42 04       		.byte	0x4
 3065 0b43 10       		.byte	0x10
 3066 0b44 92       		.byte	0x92
 3067 0b45 660B0000 		.4byte	0xb66
 3068 0b49 0A       		.uleb128 0xa
 3069 0b4a 464D4900 		.ascii	"FMI\000"
 3070 0b4e 10       		.byte	0x10
 3071 0b4f 93       		.byte	0x93
 3072 0b50 94000000 		.4byte	0x94
 3073 0b54 02       		.byte	0x2
 3074 0b55 23       		.byte	0x23
 3075 0b56 00       		.uleb128 0x0
 3076 0b57 09       		.uleb128 0x9
 3077 0b58 C9010000 		.4byte	.LASF123
 3078 0b5c 10       		.byte	0x10
 3079 0b5d 94       		.byte	0x94
 3080 0b5e AA000000 		.4byte	0xaa
 3081 0b62 02       		.byte	0x2
 3082 0b63 23       		.byte	0x23
 3083 0b64 02       		.uleb128 0x2
 3084 0b65 00       		.byte	0x0
 3085 0b66 0B       		.uleb128 0xb
 3086 0b67 01       		.byte	0x1
 3087 0b68 10       		.byte	0x10
 3088 0b69 96       		.byte	0x96
 3089 0b6a A20B0000 		.4byte	0xba2
 3090 0b6e 1B       		.uleb128 0x1b
 3091 0b6f 444C4300 		.ascii	"DLC\000"
 3092 0b73 10       		.byte	0x10
 3093 0b74 97       		.byte	0x97
 3094 0b75 94000000 		.4byte	0x94
 3095 0b79 01       		.byte	0x1
 3096 0b7a 04       		.byte	0x4
 3097 0b7b 04       		.byte	0x4
 3098 0b7c 02       		.byte	0x2
 3099 0b7d 23       		.byte	0x23
 3100 0b7e 00       		.uleb128 0x0
 3101 0b7f 1B       		.uleb128 0x1b
 3102 0b80 52545200 		.ascii	"RTR\000"
 3103 0b84 10       		.byte	0x10
 3104 0b85 98       		.byte	0x98
 3105 0b86 94000000 		.4byte	0x94
 3106 0b8a 01       		.byte	0x1
 3107 0b8b 01       		.byte	0x1
 3108 0b8c 03       		.byte	0x3
 3109 0b8d 02       		.byte	0x2
 3110 0b8e 23       		.byte	0x23
ARM GAS  C:\Users\DNIEL~1\AppData\Local\Temp\cc8JXkoo.s 			page 58


 3111 0b8f 00       		.uleb128 0x0
 3112 0b90 1B       		.uleb128 0x1b
 3113 0b91 49444500 		.ascii	"IDE\000"
 3114 0b95 10       		.byte	0x10
 3115 0b96 99       		.byte	0x99
 3116 0b97 94000000 		.4byte	0x94
 3117 0b9b 01       		.byte	0x1
 3118 0b9c 01       		.byte	0x1
 3119 0b9d 02       		.byte	0x2
 3120 0b9e 02       		.byte	0x2
 3121 0b9f 23       		.byte	0x23
 3122 0ba0 00       		.uleb128 0x0
 3123 0ba1 00       		.byte	0x0
 3124 0ba2 0B       		.uleb128 0xb
 3125 0ba3 04       		.byte	0x4
 3126 0ba4 10       		.byte	0x10
 3127 0ba5 9C       		.byte	0x9c
 3128 0ba6 BC0B0000 		.4byte	0xbbc
 3129 0baa 1B       		.uleb128 0x1b
 3130 0bab 53494400 		.ascii	"SID\000"
 3131 0baf 10       		.byte	0x10
 3132 0bb0 9D       		.byte	0x9d
 3133 0bb1 C0000000 		.4byte	0xc0
 3134 0bb5 04       		.byte	0x4
 3135 0bb6 0B       		.byte	0xb
 3136 0bb7 15       		.byte	0x15
 3137 0bb8 02       		.byte	0x2
 3138 0bb9 23       		.byte	0x23
 3139 0bba 00       		.uleb128 0x0
 3140 0bbb 00       		.byte	0x0
 3141 0bbc 0B       		.uleb128 0xb
 3142 0bbd 04       		.byte	0x4
 3143 0bbe 10       		.byte	0x10
 3144 0bbf 9F       		.byte	0x9f
 3145 0bc0 D60B0000 		.4byte	0xbd6
 3146 0bc4 1B       		.uleb128 0x1b
 3147 0bc5 45494400 		.ascii	"EID\000"
 3148 0bc9 10       		.byte	0x10
 3149 0bca A0       		.byte	0xa0
 3150 0bcb C0000000 		.4byte	0xc0
 3151 0bcf 04       		.byte	0x4
 3152 0bd0 1D       		.byte	0x1d
 3153 0bd1 03       		.byte	0x3
 3154 0bd2 02       		.byte	0x2
 3155 0bd3 23       		.byte	0x23
 3156 0bd4 00       		.uleb128 0x0
 3157 0bd5 00       		.byte	0x0
 3158 0bd6 0F       		.uleb128 0xf
 3159 0bd7 04       		.byte	0x4
 3160 0bd8 10       		.byte	0x10
 3161 0bd9 9B       		.byte	0x9b
 3162 0bda E90B0000 		.4byte	0xbe9
 3163 0bde 1C       		.uleb128 0x1c
 3164 0bdf A20B0000 		.4byte	0xba2
 3165 0be3 1C       		.uleb128 0x1c
 3166 0be4 BC0B0000 		.4byte	0xbbc
 3167 0be8 00       		.byte	0x0
ARM GAS  C:\Users\DNIEL~1\AppData\Local\Temp\cc8JXkoo.s 			page 59


 3168 0be9 0F       		.uleb128 0xf
 3169 0bea 08       		.byte	0x8
 3170 0beb 10       		.byte	0x10
 3171 0bec A3       		.byte	0xa3
 3172 0bed 130C0000 		.4byte	0xc13
 3173 0bf1 10       		.uleb128 0x10
 3174 0bf2 21030000 		.4byte	.LASF119
 3175 0bf6 10       		.byte	0x10
 3176 0bf7 A4       		.byte	0xa4
 3177 0bf8 F50A0000 		.4byte	0xaf5
 3178 0bfc 10       		.uleb128 0x10
 3179 0bfd A2050000 		.4byte	.LASF120
 3180 0c01 10       		.byte	0x10
 3181 0c02 A5       		.byte	0xa5
 3182 0c03 050B0000 		.4byte	0xb05
 3183 0c07 10       		.uleb128 0x10
 3184 0c08 A5000000 		.4byte	.LASF121
 3185 0c0c 10       		.byte	0x10
 3186 0c0d A6       		.byte	0xa6
 3187 0c0e 3C060000 		.4byte	0x63c
 3188 0c12 00       		.byte	0x0
 3189 0c13 0B       		.uleb128 0xb
 3190 0c14 14       		.byte	0x14
 3191 0c15 10       		.byte	0x10
 3192 0c16 91       		.byte	0x91
 3193 0c17 3C0C0000 		.4byte	0xc3c
 3194 0c1b 1D       		.uleb128 0x1d
 3195 0c1c 410B0000 		.4byte	0xb41
 3196 0c20 02       		.byte	0x2
 3197 0c21 23       		.byte	0x23
 3198 0c22 00       		.uleb128 0x0
 3199 0c23 1D       		.uleb128 0x1d
 3200 0c24 660B0000 		.4byte	0xb66
 3201 0c28 02       		.byte	0x2
 3202 0c29 23       		.byte	0x23
 3203 0c2a 04       		.uleb128 0x4
 3204 0c2b 1D       		.uleb128 0x1d
 3205 0c2c D60B0000 		.4byte	0xbd6
 3206 0c30 02       		.byte	0x2
 3207 0c31 23       		.byte	0x23
 3208 0c32 08       		.uleb128 0x8
 3209 0c33 1D       		.uleb128 0x1d
 3210 0c34 E90B0000 		.4byte	0xbe9
 3211 0c38 02       		.byte	0x2
 3212 0c39 23       		.byte	0x23
 3213 0c3a 0C       		.uleb128 0xc
 3214 0c3b 00       		.byte	0x0
 3215 0c3c 02       		.uleb128 0x2
 3216 0c3d 3A000000 		.4byte	.LASF124
 3217 0c41 10       		.byte	0x10
 3218 0c42 A8       		.byte	0xa8
 3219 0c43 130C0000 		.4byte	0xc13
 3220 0c47 0B       		.uleb128 0xb
 3221 0c48 0C       		.byte	0xc
 3222 0c49 10       		.byte	0x10
 3223 0c4a AE       		.byte	0xae
 3224 0c4b 9F0C0000 		.4byte	0xc9f
ARM GAS  C:\Users\DNIEL~1\AppData\Local\Temp\cc8JXkoo.s 			page 60


 3225 0c4f 1E       		.uleb128 0x1e
 3226 0c50 17050000 		.4byte	.LASF125
 3227 0c54 10       		.byte	0x10
 3228 0c55 B4       		.byte	0xb4
 3229 0c56 C0000000 		.4byte	0xc0
 3230 0c5a 04       		.byte	0x4
 3231 0c5b 01       		.byte	0x1
 3232 0c5c 1F       		.byte	0x1f
 3233 0c5d 02       		.byte	0x2
 3234 0c5e 23       		.byte	0x23
 3235 0c5f 00       		.uleb128 0x0
 3236 0c60 1E       		.uleb128 0x1e
 3237 0c61 1A000000 		.4byte	.LASF126
 3238 0c65 10       		.byte	0x10
 3239 0c66 BA       		.byte	0xba
 3240 0c67 C0000000 		.4byte	0xc0
 3241 0c6b 04       		.byte	0x4
 3242 0c6c 01       		.byte	0x1
 3243 0c6d 1E       		.byte	0x1e
 3244 0c6e 02       		.byte	0x2
 3245 0c6f 23       		.byte	0x23
 3246 0c70 00       		.uleb128 0x0
 3247 0c71 1E       		.uleb128 0x1e
 3248 0c72 D7040000 		.4byte	.LASF127
 3249 0c76 10       		.byte	0x10
 3250 0c77 C0       		.byte	0xc0
 3251 0c78 C0000000 		.4byte	0xc0
 3252 0c7c 04       		.byte	0x4
 3253 0c7d 01       		.byte	0x1
 3254 0c7e 1D       		.byte	0x1d
 3255 0c7f 02       		.byte	0x2
 3256 0c80 23       		.byte	0x23
 3257 0c81 00       		.uleb128 0x0
 3258 0c82 09       		.uleb128 0x9
 3259 0c83 6F010000 		.4byte	.LASF128
 3260 0c87 10       		.byte	0x10
 3261 0c88 C4       		.byte	0xc4
 3262 0c89 C0000000 		.4byte	0xc0
 3263 0c8d 02       		.byte	0x2
 3264 0c8e 23       		.byte	0x23
 3265 0c8f 04       		.uleb128 0x4
 3266 0c90 09       		.uleb128 0x9
 3267 0c91 48020000 		.4byte	.LASF129
 3268 0c95 10       		.byte	0x10
 3269 0c96 C8       		.byte	0xc8
 3270 0c97 C0000000 		.4byte	0xc0
 3271 0c9b 02       		.byte	0x2
 3272 0c9c 23       		.byte	0x23
 3273 0c9d 08       		.uleb128 0x8
 3274 0c9e 00       		.byte	0x0
 3275 0c9f 02       		.uleb128 0x2
 3276 0ca0 42060000 		.4byte	.LASF130
 3277 0ca4 10       		.byte	0x10
 3278 0ca5 C9       		.byte	0xc9
 3279 0ca6 470C0000 		.4byte	0xc47
 3280 0caa 0B       		.uleb128 0xb
 3281 0cab 10       		.byte	0x10
ARM GAS  C:\Users\DNIEL~1\AppData\Local\Temp\cc8JXkoo.s 			page 61


 3282 0cac 10       		.byte	0x10
 3283 0cad CE       		.byte	0xce
 3284 0cae EB0C0000 		.4byte	0xceb
 3285 0cb2 0A       		.uleb128 0xa
 3286 0cb3 6D637200 		.ascii	"mcr\000"
 3287 0cb7 10       		.byte	0x10
 3288 0cb8 D4       		.byte	0xd4
 3289 0cb9 C0000000 		.4byte	0xc0
 3290 0cbd 02       		.byte	0x2
 3291 0cbe 23       		.byte	0x23
 3292 0cbf 00       		.uleb128 0x0
 3293 0cc0 0A       		.uleb128 0xa
 3294 0cc1 62747200 		.ascii	"btr\000"
 3295 0cc5 10       		.byte	0x10
 3296 0cc6 DA       		.byte	0xda
 3297 0cc7 C0000000 		.4byte	0xc0
 3298 0ccb 02       		.byte	0x2
 3299 0ccc 23       		.byte	0x23
 3300 0ccd 04       		.uleb128 0x4
 3301 0cce 0A       		.uleb128 0xa
 3302 0ccf 6E756D00 		.ascii	"num\000"
 3303 0cd3 10       		.byte	0x10
 3304 0cd4 E0       		.byte	0xe0
 3305 0cd5 C0000000 		.4byte	0xc0
 3306 0cd9 02       		.byte	0x2
 3307 0cda 23       		.byte	0x23
 3308 0cdb 08       		.uleb128 0x8
 3309 0cdc 09       		.uleb128 0x9
 3310 0cdd C7060000 		.4byte	.LASF131
 3311 0ce1 10       		.byte	0x10
 3312 0ce2 E6       		.byte	0xe6
 3313 0ce3 EB0C0000 		.4byte	0xceb
 3314 0ce7 02       		.byte	0x2
 3315 0ce8 23       		.byte	0x23
 3316 0ce9 0C       		.uleb128 0xc
 3317 0cea 00       		.byte	0x0
 3318 0ceb 06       		.uleb128 0x6
 3319 0cec 04       		.byte	0x4
 3320 0ced F10C0000 		.4byte	0xcf1
 3321 0cf1 07       		.uleb128 0x7
 3322 0cf2 9F0C0000 		.4byte	0xc9f
 3323 0cf6 02       		.uleb128 0x2
 3324 0cf7 55000000 		.4byte	.LASF132
 3325 0cfb 10       		.byte	0x10
 3326 0cfc E7       		.byte	0xe7
 3327 0cfd AA0C0000 		.4byte	0xcaa
 3328 0d01 0B       		.uleb128 0xb
 3329 0d02 38       		.byte	0x38
 3330 0d03 10       		.byte	0x10
 3331 0d04 EC       		.byte	0xec
 3332 0d05 9C0D0000 		.4byte	0xd9c
 3333 0d09 09       		.uleb128 0x9
 3334 0d0a 0C010000 		.4byte	.LASF133
 3335 0d0e 10       		.byte	0x10
 3336 0d0f F0       		.byte	0xf0
 3337 0d10 3D0A0000 		.4byte	0xa3d
 3338 0d14 02       		.byte	0x2
ARM GAS  C:\Users\DNIEL~1\AppData\Local\Temp\cc8JXkoo.s 			page 62


 3339 0d15 23       		.byte	0x23
 3340 0d16 00       		.uleb128 0x0
 3341 0d17 09       		.uleb128 0x9
 3342 0d18 1C050000 		.4byte	.LASF134
 3343 0d1c 10       		.byte	0x10
 3344 0d1d F4       		.byte	0xf4
 3345 0d1e 9C0D0000 		.4byte	0xd9c
 3346 0d22 02       		.byte	0x2
 3347 0d23 23       		.byte	0x23
 3348 0d24 04       		.uleb128 0x4
 3349 0d25 09       		.uleb128 0x9
 3350 0d26 F0000000 		.4byte	.LASF135
 3351 0d2a 10       		.byte	0x10
 3352 0d2b F8       		.byte	0xf8
 3353 0d2c 2E040000 		.4byte	0x42e
 3354 0d30 02       		.byte	0x2
 3355 0d31 23       		.byte	0x23
 3356 0d32 08       		.uleb128 0x8
 3357 0d33 09       		.uleb128 0x9
 3358 0d34 07060000 		.4byte	.LASF136
 3359 0d38 10       		.byte	0x10
 3360 0d39 FC       		.byte	0xfc
 3361 0d3a 2E040000 		.4byte	0x42e
 3362 0d3e 02       		.byte	0x2
 3363 0d3f 23       		.byte	0x23
 3364 0d40 14       		.uleb128 0x14
 3365 0d41 16       		.uleb128 0x16
 3366 0d42 A3010000 		.4byte	.LASF137
 3367 0d46 10       		.byte	0x10
 3368 0d47 0601     		.2byte	0x106
 3369 0d49 F2040000 		.4byte	0x4f2
 3370 0d4d 02       		.byte	0x2
 3371 0d4e 23       		.byte	0x23
 3372 0d4f 20       		.uleb128 0x20
 3373 0d50 16       		.uleb128 0x16
 3374 0d51 EA040000 		.4byte	.LASF138
 3375 0d55 10       		.byte	0x10
 3376 0d56 0A01     		.2byte	0x10a
 3377 0d58 F2040000 		.4byte	0x4f2
 3378 0d5c 02       		.byte	0x2
 3379 0d5d 23       		.byte	0x23
 3380 0d5e 24       		.uleb128 0x24
 3381 0d5f 16       		.uleb128 0x16
 3382 0d60 9F030000 		.4byte	.LASF139
 3383 0d64 10       		.byte	0x10
 3384 0d65 0E01     		.2byte	0x10e
 3385 0d67 F2040000 		.4byte	0x4f2
 3386 0d6b 02       		.byte	0x2
 3387 0d6c 23       		.byte	0x23
 3388 0d6d 28       		.uleb128 0x28
 3389 0d6e 16       		.uleb128 0x16
 3390 0d6f 74030000 		.4byte	.LASF140
 3391 0d73 10       		.byte	0x10
 3392 0d74 1301     		.2byte	0x113
 3393 0d76 F2040000 		.4byte	0x4f2
 3394 0d7a 02       		.byte	0x2
 3395 0d7b 23       		.byte	0x23
ARM GAS  C:\Users\DNIEL~1\AppData\Local\Temp\cc8JXkoo.s 			page 63


 3396 0d7c 2C       		.uleb128 0x2c
 3397 0d7d 16       		.uleb128 0x16
 3398 0d7e 22040000 		.4byte	.LASF141
 3399 0d82 10       		.byte	0x10
 3400 0d83 1701     		.2byte	0x117
 3401 0d85 F2040000 		.4byte	0x4f2
 3402 0d89 02       		.byte	0x2
 3403 0d8a 23       		.byte	0x23
 3404 0d8b 30       		.uleb128 0x30
 3405 0d8c 0D       		.uleb128 0xd
 3406 0d8d 63616E00 		.ascii	"can\000"
 3407 0d91 10       		.byte	0x10
 3408 0d92 1D01     		.2byte	0x11d
 3409 0d94 A70D0000 		.4byte	0xda7
 3410 0d98 02       		.byte	0x2
 3411 0d99 23       		.byte	0x23
 3412 0d9a 34       		.uleb128 0x34
 3413 0d9b 00       		.byte	0x0
 3414 0d9c 06       		.uleb128 0x6
 3415 0d9d 04       		.byte	0x4
 3416 0d9e A20D0000 		.4byte	0xda2
 3417 0da2 07       		.uleb128 0x7
 3418 0da3 F60C0000 		.4byte	0xcf6
 3419 0da7 06       		.uleb128 0x6
 3420 0da8 04       		.byte	0x4
 3421 0da9 DB080000 		.4byte	0x8db
 3422 0dad 17       		.uleb128 0x17
 3423 0dae 27030000 		.4byte	.LASF142
 3424 0db2 10       		.byte	0x10
 3425 0db3 1E01     		.2byte	0x11e
 3426 0db5 010D0000 		.4byte	0xd01
 3427 0db9 06       		.uleb128 0x6
 3428 0dba 04       		.byte	0x4
 3429 0dbb 21060000 		.4byte	0x621
 3430 0dbf 06       		.uleb128 0x6
 3431 0dc0 04       		.byte	0x4
 3432 0dc1 7C000000 		.4byte	0x7c
 3433 0dc5 08       		.uleb128 0x8
 3434 0dc6 A9050000 		.4byte	.LASF143
 3435 0dca 10       		.byte	0x10
 3436 0dcb 11       		.byte	0x11
 3437 0dcc 06       		.byte	0x6
 3438 0dcd 4F0E0000 		.4byte	0xe4f
 3439 0dd1 0A       		.uleb128 0xa
 3440 0dd2 696400   		.ascii	"id\000"
 3441 0dd5 11       		.byte	0x11
 3442 0dd6 08       		.byte	0x8
 3443 0dd7 C0000000 		.4byte	0xc0
 3444 0ddb 02       		.byte	0x2
 3445 0ddc 23       		.byte	0x23
 3446 0ddd 00       		.uleb128 0x0
 3447 0dde 09       		.uleb128 0x9
 3448 0ddf 68050000 		.4byte	.LASF144
 3449 0de3 11       		.byte	0x11
 3450 0de4 09       		.byte	0x9
 3451 0de5 94000000 		.4byte	0x94
 3452 0de9 02       		.byte	0x2
ARM GAS  C:\Users\DNIEL~1\AppData\Local\Temp\cc8JXkoo.s 			page 64


 3453 0dea 23       		.byte	0x23
 3454 0deb 04       		.uleb128 0x4
 3455 0dec 09       		.uleb128 0x9
 3456 0ded DF060000 		.4byte	.LASF145
 3457 0df1 11       		.byte	0x11
 3458 0df2 0A       		.byte	0xa
 3459 0df3 94000000 		.4byte	0x94
 3460 0df7 02       		.byte	0x2
 3461 0df8 23       		.byte	0x23
 3462 0df9 05       		.uleb128 0x5
 3463 0dfa 09       		.uleb128 0x9
 3464 0dfb F0050000 		.4byte	.LASF146
 3465 0dff 11       		.byte	0x11
 3466 0e00 0B       		.byte	0xb
 3467 0e01 94000000 		.4byte	0x94
 3468 0e05 02       		.byte	0x2
 3469 0e06 23       		.byte	0x23
 3470 0e07 06       		.uleb128 0x6
 3471 0e08 09       		.uleb128 0x9
 3472 0e09 0F000000 		.4byte	.LASF147
 3473 0e0d 11       		.byte	0x11
 3474 0e0e 0C       		.byte	0xc
 3475 0e0f 94000000 		.4byte	0x94
 3476 0e13 02       		.byte	0x2
 3477 0e14 23       		.byte	0x23
 3478 0e15 07       		.uleb128 0x7
 3479 0e16 09       		.uleb128 0x9
 3480 0e17 C7050000 		.4byte	.LASF148
 3481 0e1b 11       		.byte	0x11
 3482 0e1c 0D       		.byte	0xd
 3483 0e1d 94000000 		.4byte	0x94
 3484 0e21 02       		.byte	0x2
 3485 0e22 23       		.byte	0x23
 3486 0e23 08       		.uleb128 0x8
 3487 0e24 09       		.uleb128 0x9
 3488 0e25 F8040000 		.4byte	.LASF149
 3489 0e29 11       		.byte	0x11
 3490 0e2a 0E       		.byte	0xe
 3491 0e2b AA000000 		.4byte	0xaa
 3492 0e2f 02       		.byte	0x2
 3493 0e30 23       		.byte	0x23
 3494 0e31 0A       		.uleb128 0xa
 3495 0e32 09       		.uleb128 0x9
 3496 0e33 06000000 		.4byte	.LASF150
 3497 0e37 11       		.byte	0x11
 3498 0e38 0F       		.byte	0xf
 3499 0e39 AA000000 		.4byte	0xaa
 3500 0e3d 02       		.byte	0x2
 3501 0e3e 23       		.byte	0x23
 3502 0e3f 0C       		.uleb128 0xc
 3503 0e40 0A       		.uleb128 0xa
 3504 0e41 70776D00 		.ascii	"pwm\000"
 3505 0e45 11       		.byte	0x11
 3506 0e46 10       		.byte	0x10
 3507 0e47 AA000000 		.4byte	0xaa
 3508 0e4b 02       		.byte	0x2
 3509 0e4c 23       		.byte	0x23
ARM GAS  C:\Users\DNIEL~1\AppData\Local\Temp\cc8JXkoo.s 			page 65


 3510 0e4d 0E       		.uleb128 0xe
 3511 0e4e 00       		.byte	0x0
 3512 0e4f 1F       		.uleb128 0x1f
 3513 0e50 00030000 		.4byte	.LASF177
 3514 0e54 01       		.byte	0x1
 3515 0e55 01       		.byte	0x1
 3516 0e56 22       		.byte	0x22
 3517 0e57 800E0000 		.4byte	0xe80
 3518 0e5b 1A       		.uleb128 0x1a
 3519 0e5c 09030000 		.4byte	.LASF151
 3520 0e60 00       		.sleb128 0
 3521 0e61 1A       		.uleb128 0x1a
 3522 0e62 0D060000 		.4byte	.LASF152
 3523 0e66 01       		.sleb128 1
 3524 0e67 1A       		.uleb128 0x1a
 3525 0e68 14060000 		.4byte	.LASF153
 3526 0e6c 02       		.sleb128 2
 3527 0e6d 1A       		.uleb128 0x1a
 3528 0e6e 6A020000 		.4byte	.LASF154
 3529 0e72 03       		.sleb128 3
 3530 0e73 1A       		.uleb128 0x1a
 3531 0e74 31030000 		.4byte	.LASF155
 3532 0e78 04       		.sleb128 4
 3533 0e79 1A       		.uleb128 0x1a
 3534 0e7a 89010000 		.4byte	.LASF156
 3535 0e7e 05       		.sleb128 5
 3536 0e7f 00       		.byte	0x0
 3537 0e80 20       		.uleb128 0x20
 3538 0e81 D7020000 		.4byte	.LASF178
 3539 0e85 01       		.byte	0x1
 3540 0e86 55       		.byte	0x55
 3541 0e87 01       		.byte	0x1
 3542 0e88 0D010000 		.4byte	0x10d
 3543 0e8c 00000000 		.4byte	.LFB118
 3544 0e90 34020000 		.4byte	.LFE118
 3545 0e94 00000000 		.4byte	.LLST0
 3546 0e98 C00E0000 		.4byte	0xec0
 3547 0e9c 21       		.uleb128 0x21
 3548 0e9d 7000     		.ascii	"p\000"
 3549 0e9f 01       		.byte	0x1
 3550 0ea0 55       		.byte	0x55
 3551 0ea1 73000000 		.4byte	0x73
 3552 0ea5 2C000000 		.4byte	.LLST1
 3553 0ea9 22       		.uleb128 0x22
 3554 0eaa 656C00   		.ascii	"el\000"
 3555 0ead 01       		.byte	0x1
 3556 0eae 56       		.byte	0x56
 3557 0eaf 81040000 		.4byte	0x481
 3558 0eb3 02       		.byte	0x2
 3559 0eb4 91       		.byte	0x91
 3560 0eb5 48       		.sleb128 -56
 3561 0eb6 23       		.uleb128 0x23
 3562 0eb7 6900     		.ascii	"i\000"
 3563 0eb9 01       		.byte	0x1
 3564 0eba 58       		.byte	0x58
 3565 0ebb 57000000 		.4byte	0x57
 3566 0ebf 00       		.byte	0x0
ARM GAS  C:\Users\DNIEL~1\AppData\Local\Temp\cc8JXkoo.s 			page 66


 3567 0ec0 24       		.uleb128 0x24
 3568 0ec1 01       		.byte	0x1
 3569 0ec2 AB030000 		.4byte	.LASF179
 3570 0ec6 01       		.byte	0x1
 3571 0ec7 D1       		.byte	0xd1
 3572 0ec8 01       		.byte	0x1
 3573 0ec9 00000000 		.4byte	.LFB120
 3574 0ecd 34000000 		.4byte	.LFE120
 3575 0ed1 3F000000 		.4byte	.LLST2
 3576 0ed5 25       		.uleb128 0x25
 3577 0ed6 01       		.byte	0x1
 3578 0ed7 20000000 		.4byte	.LASF159
 3579 0edb 01       		.byte	0x1
 3580 0edc D7       		.byte	0xd7
 3581 0edd 01       		.byte	0x1
 3582 0ede 00000000 		.4byte	.LFB121
 3583 0ee2 7C000000 		.4byte	.LFE121
 3584 0ee6 6B000000 		.4byte	.LLST3
 3585 0eea 1C0F0000 		.4byte	0xf1c
 3586 0eee 21       		.uleb128 0x21
 3587 0eef 63687000 		.ascii	"chp\000"
 3588 0ef3 01       		.byte	0x1
 3589 0ef4 D7       		.byte	0xd7
 3590 0ef5 B90D0000 		.4byte	0xdb9
 3591 0ef9 8B000000 		.4byte	.LLST4
 3592 0efd 26       		.uleb128 0x26
 3593 0efe 3D060000 		.4byte	.LASF157
 3594 0f02 01       		.byte	0x1
 3595 0f03 D7       		.byte	0xd7
 3596 0f04 57000000 		.4byte	0x57
 3597 0f08 A9000000 		.4byte	.LLST5
 3598 0f0c 26       		.uleb128 0x26
 3599 0f0d BA060000 		.4byte	.LASF158
 3600 0f11 01       		.byte	0x1
 3601 0f12 D7       		.byte	0xd7
 3602 0f13 BF0D0000 		.4byte	0xdbf
 3603 0f17 BC000000 		.4byte	.LLST6
 3604 0f1b 00       		.byte	0x0
 3605 0f1c 25       		.uleb128 0x25
 3606 0f1d 01       		.byte	0x1
 3607 0f1e 20010000 		.4byte	.LASF160
 3608 0f22 01       		.byte	0x1
 3609 0f23 E7       		.byte	0xe7
 3610 0f24 01       		.byte	0x1
 3611 0f25 00000000 		.4byte	.LFB122
 3612 0f29 4C010000 		.4byte	.LFE122
 3613 0f2d CF000000 		.4byte	.LLST7
 3614 0f31 630F0000 		.4byte	0xf63
 3615 0f35 21       		.uleb128 0x21
 3616 0f36 63687000 		.ascii	"chp\000"
 3617 0f3a 01       		.byte	0x1
 3618 0f3b E7       		.byte	0xe7
 3619 0f3c B90D0000 		.4byte	0xdb9
 3620 0f40 EF000000 		.4byte	.LLST8
 3621 0f44 26       		.uleb128 0x26
 3622 0f45 3D060000 		.4byte	.LASF157
 3623 0f49 01       		.byte	0x1
ARM GAS  C:\Users\DNIEL~1\AppData\Local\Temp\cc8JXkoo.s 			page 67


 3624 0f4a E7       		.byte	0xe7
 3625 0f4b 57000000 		.4byte	0x57
 3626 0f4f 0D010000 		.4byte	.LLST9
 3627 0f53 26       		.uleb128 0x26
 3628 0f54 BA060000 		.4byte	.LASF158
 3629 0f58 01       		.byte	0x1
 3630 0f59 E7       		.byte	0xe7
 3631 0f5a BF0D0000 		.4byte	0xdbf
 3632 0f5e 20010000 		.4byte	.LLST10
 3633 0f62 00       		.byte	0x0
 3634 0f63 27       		.uleb128 0x27
 3635 0f64 01       		.byte	0x1
 3636 0f65 31060000 		.4byte	.LASF161
 3637 0f69 01       		.byte	0x1
 3638 0f6a 0901     		.2byte	0x109
 3639 0f6c 01       		.byte	0x1
 3640 0f6d 00000000 		.4byte	.LFB123
 3641 0f71 1C010000 		.4byte	.LFE123
 3642 0f75 33010000 		.4byte	.LLST11
 3643 0f79 D20F0000 		.4byte	0xfd2
 3644 0f7d 28       		.uleb128 0x28
 3645 0f7e 63687000 		.ascii	"chp\000"
 3646 0f82 01       		.byte	0x1
 3647 0f83 0901     		.2byte	0x109
 3648 0f85 B90D0000 		.4byte	0xdb9
 3649 0f89 53010000 		.4byte	.LLST12
 3650 0f8d 29       		.uleb128 0x29
 3651 0f8e 3D060000 		.4byte	.LASF157
 3652 0f92 01       		.byte	0x1
 3653 0f93 0901     		.2byte	0x109
 3654 0f95 57000000 		.4byte	0x57
 3655 0f99 71010000 		.4byte	.LLST13
 3656 0f9d 29       		.uleb128 0x29
 3657 0f9e BA060000 		.4byte	.LASF158
 3658 0fa2 01       		.byte	0x1
 3659 0fa3 0901     		.2byte	0x109
 3660 0fa5 BF0D0000 		.4byte	0xdbf
 3661 0fa9 8F010000 		.4byte	.LLST14
 3662 0fad 2A       		.uleb128 0x2a
 3663 0fae 646200   		.ascii	"db\000"
 3664 0fb1 01       		.byte	0x1
 3665 0fb2 0E01     		.2byte	0x10e
 3666 0fb4 9F000000 		.4byte	0x9f
 3667 0fb8 AD010000 		.4byte	.LLST15
 3668 0fbc 2B       		.uleb128 0x2b
 3669 0fbd 00000000 		.4byte	.Ldebug_ranges0+0x0
 3670 0fc1 2C       		.uleb128 0x2c
 3671 0fc2 01       		.byte	0x1
 3672 0fc3 DE020000 		.4byte	.LASF180
 3673 0fc7 13       		.byte	0x13
 3674 0fc8 00       		.byte	0x0
 3675 0fc9 57000000 		.4byte	0x57
 3676 0fcd 01       		.byte	0x1
 3677 0fce 2D       		.uleb128 0x2d
 3678 0fcf 00       		.byte	0x0
 3679 0fd0 00       		.byte	0x0
 3680 0fd1 00       		.byte	0x0
ARM GAS  C:\Users\DNIEL~1\AppData\Local\Temp\cc8JXkoo.s 			page 68


 3681 0fd2 2E       		.uleb128 0x2e
 3682 0fd3 F9050000 		.4byte	.LASF162
 3683 0fd7 08       		.byte	0x8
 3684 0fd8 68       		.byte	0x68
 3685 0fd9 FA030000 		.4byte	0x3fa
 3686 0fdd 01       		.byte	0x1
 3687 0fde 01       		.byte	0x1
 3688 0fdf 2F       		.uleb128 0x2f
 3689 0fe0 3B040000 		.4byte	.LASF163
 3690 0fe4 12       		.byte	0x12
 3691 0fe5 9806     		.2byte	0x698
 3692 0fe7 4C060000 		.4byte	0x64c
 3693 0feb 01       		.byte	0x1
 3694 0fec 01       		.byte	0x1
 3695 0fed 2F       		.uleb128 0x2f
 3696 0fee 11020000 		.4byte	.LASF164
 3697 0ff2 10       		.byte	0x10
 3698 0ff3 2901     		.2byte	0x129
 3699 0ff5 AD0D0000 		.4byte	0xdad
 3700 0ff9 01       		.byte	0x1
 3701 0ffa 01       		.byte	0x1
 3702 0ffb 13       		.uleb128 0x13
 3703 0ffc C50D0000 		.4byte	0xdc5
 3704 1000 0B100000 		.4byte	0x100b
 3705 1004 14       		.uleb128 0x14
 3706 1005 34000000 		.4byte	0x34
 3707 1009 1F       		.byte	0x1f
 3708 100a 00       		.byte	0x0
 3709 100b 30       		.uleb128 0x30
 3710 100c 4C060000 		.4byte	.LASF165
 3711 1010 11       		.byte	0x11
 3712 1011 13       		.byte	0x13
 3713 1012 FB0F0000 		.4byte	0xffb
 3714 1016 05       		.byte	0x5
 3715 1017 03       		.byte	0x3
 3716 1018 00000000 		.4byte	lcitems
 3717 101c 2E       		.uleb128 0x2e
 3718 101d 2E050000 		.4byte	.LASF166
 3719 1021 01       		.byte	0x1
 3720 1022 2A       		.byte	0x2a
 3721 1023 4F0E0000 		.4byte	0xe4f
 3722 1027 01       		.byte	0x1
 3723 1028 01       		.byte	0x1
 3724 1029 30       		.uleb128 0x30
 3725 102a 6B000000 		.4byte	.LASF167
 3726 102e 01       		.byte	0x1
 3727 102f 2C       		.byte	0x2c
 3728 1030 3A100000 		.4byte	0x103a
 3729 1034 05       		.byte	0x5
 3730 1035 03       		.byte	0x3
 3731 1036 00000000 		.4byte	txmsg
 3732 103a 07       		.uleb128 0x7
 3733 103b 360B0000 		.4byte	0xb36
 3734 103f 30       		.uleb128 0x30
 3735 1040 00000000 		.4byte	.LASF168
 3736 1044 01       		.byte	0x1
 3737 1045 2D       		.byte	0x2d
ARM GAS  C:\Users\DNIEL~1\AppData\Local\Temp\cc8JXkoo.s 			page 69


 3738 1046 3C0C0000 		.4byte	0xc3c
 3739 104a 05       		.byte	0x5
 3740 104b 03       		.byte	0x3
 3741 104c 00000000 		.4byte	rxmsg
 3742 1050 30       		.uleb128 0x30
 3743 1051 1A030000 		.4byte	.LASF169
 3744 1055 01       		.byte	0x1
 3745 1056 45       		.byte	0x45
 3746 1057 A20D0000 		.4byte	0xda2
 3747 105b 05       		.byte	0x5
 3748 105c 03       		.byte	0x3
 3749 105d 00000000 		.4byte	cancfg
 3750 1061 30       		.uleb128 0x30
 3751 1062 23050000 		.4byte	.LASF170
 3752 1066 01       		.byte	0x1
 3753 1067 4D       		.byte	0x4d
 3754 1068 57000000 		.4byte	0x57
 3755 106c 05       		.byte	0x5
 3756 106d 03       		.byte	0x3
 3757 106e 00000000 		.4byte	seged
 3758 1072 22       		.uleb128 0x22
 3759 1073 696400   		.ascii	"id\000"
 3760 1076 01       		.byte	0x1
 3761 1077 4E       		.byte	0x4e
 3762 1078 AA000000 		.4byte	0xaa
 3763 107c 05       		.byte	0x5
 3764 107d 03       		.byte	0x3
 3765 107e 00000000 		.4byte	id
 3766 1082 30       		.uleb128 0x30
 3767 1083 56010000 		.4byte	.LASF171
 3768 1087 01       		.byte	0x1
 3769 1088 4F       		.byte	0x4f
 3770 1089 AA000000 		.4byte	0xaa
 3771 108d 05       		.byte	0x5
 3772 108e 03       		.byte	0x3
 3773 108f 00000000 		.4byte	messages
 3774 1093 13       		.uleb128 0x13
 3775 1094 D7020000 		.4byte	0x2d7
 3776 1098 A3100000 		.4byte	0x10a3
 3777 109c 14       		.uleb128 0x14
 3778 109d 34000000 		.4byte	0x34
 3779 10a1 35       		.byte	0x35
 3780 10a2 00       		.byte	0x0
 3781 10a3 30       		.uleb128 0x30
 3782 10a4 F4010000 		.4byte	.LASF172
 3783 10a8 01       		.byte	0x1
 3784 10a9 54       		.byte	0x54
 3785 10aa 93100000 		.4byte	0x1093
 3786 10ae 05       		.byte	0x5
 3787 10af 03       		.byte	0x3
 3788 10b0 00000000 		.4byte	can_rx_wa
 3789 10b4 31       		.uleb128 0x31
 3790 10b5 B8040000 		.4byte	.LASF173
 3791 10b9 01       		.byte	0x1
 3792 10ba AF       		.byte	0xaf
 3793 10bb 93100000 		.4byte	0x1093
 3794 10bf 2E       		.uleb128 0x2e
ARM GAS  C:\Users\DNIEL~1\AppData\Local\Temp\cc8JXkoo.s 			page 70


 3795 10c0 F9050000 		.4byte	.LASF162
 3796 10c4 08       		.byte	0x8
 3797 10c5 68       		.byte	0x68
 3798 10c6 FA030000 		.4byte	0x3fa
 3799 10ca 01       		.byte	0x1
 3800 10cb 01       		.byte	0x1
 3801 10cc 2F       		.uleb128 0x2f
 3802 10cd 3B040000 		.4byte	.LASF163
 3803 10d1 12       		.byte	0x12
 3804 10d2 9806     		.2byte	0x698
 3805 10d4 4C060000 		.4byte	0x64c
 3806 10d8 01       		.byte	0x1
 3807 10d9 01       		.byte	0x1
 3808 10da 2F       		.uleb128 0x2f
 3809 10db 11020000 		.4byte	.LASF164
 3810 10df 10       		.byte	0x10
 3811 10e0 2901     		.2byte	0x129
 3812 10e2 AD0D0000 		.4byte	0xdad
 3813 10e6 01       		.byte	0x1
 3814 10e7 01       		.byte	0x1
 3815 10e8 32       		.uleb128 0x32
 3816 10e9 2E050000 		.4byte	.LASF166
 3817 10ed 01       		.byte	0x1
 3818 10ee 2A       		.byte	0x2a
 3819 10ef 4F0E0000 		.4byte	0xe4f
 3820 10f3 01       		.byte	0x1
 3821 10f4 05       		.byte	0x5
 3822 10f5 03       		.byte	0x3
 3823 10f6 00000000 		.4byte	canstate
 3824 10fa 00       		.byte	0x0
 3825              		.section	.debug_abbrev
 3826 0000 01       		.uleb128 0x1
 3827 0001 11       		.uleb128 0x11
 3828 0002 01       		.byte	0x1
 3829 0003 25       		.uleb128 0x25
 3830 0004 0E       		.uleb128 0xe
 3831 0005 13       		.uleb128 0x13
 3832 0006 0B       		.uleb128 0xb
 3833 0007 03       		.uleb128 0x3
 3834 0008 0E       		.uleb128 0xe
 3835 0009 1B       		.uleb128 0x1b
 3836 000a 0E       		.uleb128 0xe
 3837 000b 11       		.uleb128 0x11
 3838 000c 01       		.uleb128 0x1
 3839 000d 52       		.uleb128 0x52
 3840 000e 01       		.uleb128 0x1
 3841 000f 55       		.uleb128 0x55
 3842 0010 06       		.uleb128 0x6
 3843 0011 10       		.uleb128 0x10
 3844 0012 06       		.uleb128 0x6
 3845 0013 00       		.byte	0x0
 3846 0014 00       		.byte	0x0
 3847 0015 02       		.uleb128 0x2
 3848 0016 16       		.uleb128 0x16
 3849 0017 00       		.byte	0x0
 3850 0018 03       		.uleb128 0x3
 3851 0019 0E       		.uleb128 0xe
ARM GAS  C:\Users\DNIEL~1\AppData\Local\Temp\cc8JXkoo.s 			page 71


 3852 001a 3A       		.uleb128 0x3a
 3853 001b 0B       		.uleb128 0xb
 3854 001c 3B       		.uleb128 0x3b
 3855 001d 0B       		.uleb128 0xb
 3856 001e 49       		.uleb128 0x49
 3857 001f 13       		.uleb128 0x13
 3858 0020 00       		.byte	0x0
 3859 0021 00       		.byte	0x0
 3860 0022 03       		.uleb128 0x3
 3861 0023 24       		.uleb128 0x24
 3862 0024 00       		.byte	0x0
 3863 0025 0B       		.uleb128 0xb
 3864 0026 0B       		.uleb128 0xb
 3865 0027 3E       		.uleb128 0x3e
 3866 0028 0B       		.uleb128 0xb
 3867 0029 03       		.uleb128 0x3
 3868 002a 0E       		.uleb128 0xe
 3869 002b 00       		.byte	0x0
 3870 002c 00       		.byte	0x0
 3871 002d 04       		.uleb128 0x4
 3872 002e 24       		.uleb128 0x24
 3873 002f 00       		.byte	0x0
 3874 0030 0B       		.uleb128 0xb
 3875 0031 0B       		.uleb128 0xb
 3876 0032 3E       		.uleb128 0x3e
 3877 0033 0B       		.uleb128 0xb
 3878 0034 03       		.uleb128 0x3
 3879 0035 08       		.uleb128 0x8
 3880 0036 00       		.byte	0x0
 3881 0037 00       		.byte	0x0
 3882 0038 05       		.uleb128 0x5
 3883 0039 0F       		.uleb128 0xf
 3884 003a 00       		.byte	0x0
 3885 003b 0B       		.uleb128 0xb
 3886 003c 0B       		.uleb128 0xb
 3887 003d 00       		.byte	0x0
 3888 003e 00       		.byte	0x0
 3889 003f 06       		.uleb128 0x6
 3890 0040 0F       		.uleb128 0xf
 3891 0041 00       		.byte	0x0
 3892 0042 0B       		.uleb128 0xb
 3893 0043 0B       		.uleb128 0xb
 3894 0044 49       		.uleb128 0x49
 3895 0045 13       		.uleb128 0x13
 3896 0046 00       		.byte	0x0
 3897 0047 00       		.byte	0x0
 3898 0048 07       		.uleb128 0x7
 3899 0049 26       		.uleb128 0x26
 3900 004a 00       		.byte	0x0
 3901 004b 49       		.uleb128 0x49
 3902 004c 13       		.uleb128 0x13
 3903 004d 00       		.byte	0x0
 3904 004e 00       		.byte	0x0
 3905 004f 08       		.uleb128 0x8
 3906 0050 13       		.uleb128 0x13
 3907 0051 01       		.byte	0x1
 3908 0052 03       		.uleb128 0x3
ARM GAS  C:\Users\DNIEL~1\AppData\Local\Temp\cc8JXkoo.s 			page 72


 3909 0053 0E       		.uleb128 0xe
 3910 0054 0B       		.uleb128 0xb
 3911 0055 0B       		.uleb128 0xb
 3912 0056 3A       		.uleb128 0x3a
 3913 0057 0B       		.uleb128 0xb
 3914 0058 3B       		.uleb128 0x3b
 3915 0059 0B       		.uleb128 0xb
 3916 005a 01       		.uleb128 0x1
 3917 005b 13       		.uleb128 0x13
 3918 005c 00       		.byte	0x0
 3919 005d 00       		.byte	0x0
 3920 005e 09       		.uleb128 0x9
 3921 005f 0D       		.uleb128 0xd
 3922 0060 00       		.byte	0x0
 3923 0061 03       		.uleb128 0x3
 3924 0062 0E       		.uleb128 0xe
 3925 0063 3A       		.uleb128 0x3a
 3926 0064 0B       		.uleb128 0xb
 3927 0065 3B       		.uleb128 0x3b
 3928 0066 0B       		.uleb128 0xb
 3929 0067 49       		.uleb128 0x49
 3930 0068 13       		.uleb128 0x13
 3931 0069 38       		.uleb128 0x38
 3932 006a 0A       		.uleb128 0xa
 3933 006b 00       		.byte	0x0
 3934 006c 00       		.byte	0x0
 3935 006d 0A       		.uleb128 0xa
 3936 006e 0D       		.uleb128 0xd
 3937 006f 00       		.byte	0x0
 3938 0070 03       		.uleb128 0x3
 3939 0071 08       		.uleb128 0x8
 3940 0072 3A       		.uleb128 0x3a
 3941 0073 0B       		.uleb128 0xb
 3942 0074 3B       		.uleb128 0x3b
 3943 0075 0B       		.uleb128 0xb
 3944 0076 49       		.uleb128 0x49
 3945 0077 13       		.uleb128 0x13
 3946 0078 38       		.uleb128 0x38
 3947 0079 0A       		.uleb128 0xa
 3948 007a 00       		.byte	0x0
 3949 007b 00       		.byte	0x0
 3950 007c 0B       		.uleb128 0xb
 3951 007d 13       		.uleb128 0x13
 3952 007e 01       		.byte	0x1
 3953 007f 0B       		.uleb128 0xb
 3954 0080 0B       		.uleb128 0xb
 3955 0081 3A       		.uleb128 0x3a
 3956 0082 0B       		.uleb128 0xb
 3957 0083 3B       		.uleb128 0x3b
 3958 0084 0B       		.uleb128 0xb
 3959 0085 01       		.uleb128 0x1
 3960 0086 13       		.uleb128 0x13
 3961 0087 00       		.byte	0x0
 3962 0088 00       		.byte	0x0
 3963 0089 0C       		.uleb128 0xc
 3964 008a 13       		.uleb128 0x13
 3965 008b 01       		.byte	0x1
ARM GAS  C:\Users\DNIEL~1\AppData\Local\Temp\cc8JXkoo.s 			page 73


 3966 008c 03       		.uleb128 0x3
 3967 008d 0E       		.uleb128 0xe
 3968 008e 0B       		.uleb128 0xb
 3969 008f 0B       		.uleb128 0xb
 3970 0090 3A       		.uleb128 0x3a
 3971 0091 0B       		.uleb128 0xb
 3972 0092 3B       		.uleb128 0x3b
 3973 0093 05       		.uleb128 0x5
 3974 0094 01       		.uleb128 0x1
 3975 0095 13       		.uleb128 0x13
 3976 0096 00       		.byte	0x0
 3977 0097 00       		.byte	0x0
 3978 0098 0D       		.uleb128 0xd
 3979 0099 0D       		.uleb128 0xd
 3980 009a 00       		.byte	0x0
 3981 009b 03       		.uleb128 0x3
 3982 009c 08       		.uleb128 0x8
 3983 009d 3A       		.uleb128 0x3a
 3984 009e 0B       		.uleb128 0xb
 3985 009f 3B       		.uleb128 0x3b
 3986 00a0 05       		.uleb128 0x5
 3987 00a1 49       		.uleb128 0x49
 3988 00a2 13       		.uleb128 0x13
 3989 00a3 38       		.uleb128 0x38
 3990 00a4 0A       		.uleb128 0xa
 3991 00a5 00       		.byte	0x0
 3992 00a6 00       		.byte	0x0
 3993 00a7 0E       		.uleb128 0xe
 3994 00a8 35       		.uleb128 0x35
 3995 00a9 00       		.byte	0x0
 3996 00aa 49       		.uleb128 0x49
 3997 00ab 13       		.uleb128 0x13
 3998 00ac 00       		.byte	0x0
 3999 00ad 00       		.byte	0x0
 4000 00ae 0F       		.uleb128 0xf
 4001 00af 17       		.uleb128 0x17
 4002 00b0 01       		.byte	0x1
 4003 00b1 0B       		.uleb128 0xb
 4004 00b2 0B       		.uleb128 0xb
 4005 00b3 3A       		.uleb128 0x3a
 4006 00b4 0B       		.uleb128 0xb
 4007 00b5 3B       		.uleb128 0x3b
 4008 00b6 0B       		.uleb128 0xb
 4009 00b7 01       		.uleb128 0x1
 4010 00b8 13       		.uleb128 0x13
 4011 00b9 00       		.byte	0x0
 4012 00ba 00       		.byte	0x0
 4013 00bb 10       		.uleb128 0x10
 4014 00bc 0D       		.uleb128 0xd
 4015 00bd 00       		.byte	0x0
 4016 00be 03       		.uleb128 0x3
 4017 00bf 0E       		.uleb128 0xe
 4018 00c0 3A       		.uleb128 0x3a
 4019 00c1 0B       		.uleb128 0xb
 4020 00c2 3B       		.uleb128 0x3b
 4021 00c3 0B       		.uleb128 0xb
 4022 00c4 49       		.uleb128 0x49
ARM GAS  C:\Users\DNIEL~1\AppData\Local\Temp\cc8JXkoo.s 			page 74


 4023 00c5 13       		.uleb128 0x13
 4024 00c6 00       		.byte	0x0
 4025 00c7 00       		.byte	0x0
 4026 00c8 11       		.uleb128 0x11
 4027 00c9 15       		.uleb128 0x15
 4028 00ca 01       		.byte	0x1
 4029 00cb 27       		.uleb128 0x27
 4030 00cc 0C       		.uleb128 0xc
 4031 00cd 49       		.uleb128 0x49
 4032 00ce 13       		.uleb128 0x13
 4033 00cf 01       		.uleb128 0x1
 4034 00d0 13       		.uleb128 0x13
 4035 00d1 00       		.byte	0x0
 4036 00d2 00       		.byte	0x0
 4037 00d3 12       		.uleb128 0x12
 4038 00d4 05       		.uleb128 0x5
 4039 00d5 00       		.byte	0x0
 4040 00d6 49       		.uleb128 0x49
 4041 00d7 13       		.uleb128 0x13
 4042 00d8 00       		.byte	0x0
 4043 00d9 00       		.byte	0x0
 4044 00da 13       		.uleb128 0x13
 4045 00db 01       		.uleb128 0x1
 4046 00dc 01       		.byte	0x1
 4047 00dd 49       		.uleb128 0x49
 4048 00de 13       		.uleb128 0x13
 4049 00df 01       		.uleb128 0x1
 4050 00e0 13       		.uleb128 0x13
 4051 00e1 00       		.byte	0x0
 4052 00e2 00       		.byte	0x0
 4053 00e3 14       		.uleb128 0x14
 4054 00e4 21       		.uleb128 0x21
 4055 00e5 00       		.byte	0x0
 4056 00e6 49       		.uleb128 0x49
 4057 00e7 13       		.uleb128 0x13
 4058 00e8 2F       		.uleb128 0x2f
 4059 00e9 0B       		.uleb128 0xb
 4060 00ea 00       		.byte	0x0
 4061 00eb 00       		.byte	0x0
 4062 00ec 15       		.uleb128 0x15
 4063 00ed 13       		.uleb128 0x13
 4064 00ee 01       		.byte	0x1
 4065 00ef 0B       		.uleb128 0xb
 4066 00f0 0B       		.uleb128 0xb
 4067 00f1 3A       		.uleb128 0x3a
 4068 00f2 0B       		.uleb128 0xb
 4069 00f3 3B       		.uleb128 0x3b
 4070 00f4 05       		.uleb128 0x5
 4071 00f5 01       		.uleb128 0x1
 4072 00f6 13       		.uleb128 0x13
 4073 00f7 00       		.byte	0x0
 4074 00f8 00       		.byte	0x0
 4075 00f9 16       		.uleb128 0x16
 4076 00fa 0D       		.uleb128 0xd
 4077 00fb 00       		.byte	0x0
 4078 00fc 03       		.uleb128 0x3
 4079 00fd 0E       		.uleb128 0xe
ARM GAS  C:\Users\DNIEL~1\AppData\Local\Temp\cc8JXkoo.s 			page 75


 4080 00fe 3A       		.uleb128 0x3a
 4081 00ff 0B       		.uleb128 0xb
 4082 0100 3B       		.uleb128 0x3b
 4083 0101 05       		.uleb128 0x5
 4084 0102 49       		.uleb128 0x49
 4085 0103 13       		.uleb128 0x13
 4086 0104 38       		.uleb128 0x38
 4087 0105 0A       		.uleb128 0xa
 4088 0106 00       		.byte	0x0
 4089 0107 00       		.byte	0x0
 4090 0108 17       		.uleb128 0x17
 4091 0109 16       		.uleb128 0x16
 4092 010a 00       		.byte	0x0
 4093 010b 03       		.uleb128 0x3
 4094 010c 0E       		.uleb128 0xe
 4095 010d 3A       		.uleb128 0x3a
 4096 010e 0B       		.uleb128 0xb
 4097 010f 3B       		.uleb128 0x3b
 4098 0110 05       		.uleb128 0x5
 4099 0111 49       		.uleb128 0x49
 4100 0112 13       		.uleb128 0x13
 4101 0113 00       		.byte	0x0
 4102 0114 00       		.byte	0x0
 4103 0115 18       		.uleb128 0x18
 4104 0116 13       		.uleb128 0x13
 4105 0117 01       		.byte	0x1
 4106 0118 0B       		.uleb128 0xb
 4107 0119 05       		.uleb128 0x5
 4108 011a 3A       		.uleb128 0x3a
 4109 011b 0B       		.uleb128 0xb
 4110 011c 3B       		.uleb128 0x3b
 4111 011d 05       		.uleb128 0x5
 4112 011e 01       		.uleb128 0x1
 4113 011f 13       		.uleb128 0x13
 4114 0120 00       		.byte	0x0
 4115 0121 00       		.byte	0x0
 4116 0122 19       		.uleb128 0x19
 4117 0123 04       		.uleb128 0x4
 4118 0124 01       		.byte	0x1
 4119 0125 0B       		.uleb128 0xb
 4120 0126 0B       		.uleb128 0xb
 4121 0127 3A       		.uleb128 0x3a
 4122 0128 0B       		.uleb128 0xb
 4123 0129 3B       		.uleb128 0x3b
 4124 012a 0B       		.uleb128 0xb
 4125 012b 01       		.uleb128 0x1
 4126 012c 13       		.uleb128 0x13
 4127 012d 00       		.byte	0x0
 4128 012e 00       		.byte	0x0
 4129 012f 1A       		.uleb128 0x1a
 4130 0130 28       		.uleb128 0x28
 4131 0131 00       		.byte	0x0
 4132 0132 03       		.uleb128 0x3
 4133 0133 0E       		.uleb128 0xe
 4134 0134 1C       		.uleb128 0x1c
 4135 0135 0D       		.uleb128 0xd
 4136 0136 00       		.byte	0x0
ARM GAS  C:\Users\DNIEL~1\AppData\Local\Temp\cc8JXkoo.s 			page 76


 4137 0137 00       		.byte	0x0
 4138 0138 1B       		.uleb128 0x1b
 4139 0139 0D       		.uleb128 0xd
 4140 013a 00       		.byte	0x0
 4141 013b 03       		.uleb128 0x3
 4142 013c 08       		.uleb128 0x8
 4143 013d 3A       		.uleb128 0x3a
 4144 013e 0B       		.uleb128 0xb
 4145 013f 3B       		.uleb128 0x3b
 4146 0140 0B       		.uleb128 0xb
 4147 0141 49       		.uleb128 0x49
 4148 0142 13       		.uleb128 0x13
 4149 0143 0B       		.uleb128 0xb
 4150 0144 0B       		.uleb128 0xb
 4151 0145 0D       		.uleb128 0xd
 4152 0146 0B       		.uleb128 0xb
 4153 0147 0C       		.uleb128 0xc
 4154 0148 0B       		.uleb128 0xb
 4155 0149 38       		.uleb128 0x38
 4156 014a 0A       		.uleb128 0xa
 4157 014b 00       		.byte	0x0
 4158 014c 00       		.byte	0x0
 4159 014d 1C       		.uleb128 0x1c
 4160 014e 0D       		.uleb128 0xd
 4161 014f 00       		.byte	0x0
 4162 0150 49       		.uleb128 0x49
 4163 0151 13       		.uleb128 0x13
 4164 0152 00       		.byte	0x0
 4165 0153 00       		.byte	0x0
 4166 0154 1D       		.uleb128 0x1d
 4167 0155 0D       		.uleb128 0xd
 4168 0156 00       		.byte	0x0
 4169 0157 49       		.uleb128 0x49
 4170 0158 13       		.uleb128 0x13
 4171 0159 38       		.uleb128 0x38
 4172 015a 0A       		.uleb128 0xa
 4173 015b 00       		.byte	0x0
 4174 015c 00       		.byte	0x0
 4175 015d 1E       		.uleb128 0x1e
 4176 015e 0D       		.uleb128 0xd
 4177 015f 00       		.byte	0x0
 4178 0160 03       		.uleb128 0x3
 4179 0161 0E       		.uleb128 0xe
 4180 0162 3A       		.uleb128 0x3a
 4181 0163 0B       		.uleb128 0xb
 4182 0164 3B       		.uleb128 0x3b
 4183 0165 0B       		.uleb128 0xb
 4184 0166 49       		.uleb128 0x49
 4185 0167 13       		.uleb128 0x13
 4186 0168 0B       		.uleb128 0xb
 4187 0169 0B       		.uleb128 0xb
 4188 016a 0D       		.uleb128 0xd
 4189 016b 0B       		.uleb128 0xb
 4190 016c 0C       		.uleb128 0xc
 4191 016d 0B       		.uleb128 0xb
 4192 016e 38       		.uleb128 0x38
 4193 016f 0A       		.uleb128 0xa
ARM GAS  C:\Users\DNIEL~1\AppData\Local\Temp\cc8JXkoo.s 			page 77


 4194 0170 00       		.byte	0x0
 4195 0171 00       		.byte	0x0
 4196 0172 1F       		.uleb128 0x1f
 4197 0173 04       		.uleb128 0x4
 4198 0174 01       		.byte	0x1
 4199 0175 03       		.uleb128 0x3
 4200 0176 0E       		.uleb128 0xe
 4201 0177 0B       		.uleb128 0xb
 4202 0178 0B       		.uleb128 0xb
 4203 0179 3A       		.uleb128 0x3a
 4204 017a 0B       		.uleb128 0xb
 4205 017b 3B       		.uleb128 0x3b
 4206 017c 0B       		.uleb128 0xb
 4207 017d 01       		.uleb128 0x1
 4208 017e 13       		.uleb128 0x13
 4209 017f 00       		.byte	0x0
 4210 0180 00       		.byte	0x0
 4211 0181 20       		.uleb128 0x20
 4212 0182 2E       		.uleb128 0x2e
 4213 0183 01       		.byte	0x1
 4214 0184 03       		.uleb128 0x3
 4215 0185 0E       		.uleb128 0xe
 4216 0186 3A       		.uleb128 0x3a
 4217 0187 0B       		.uleb128 0xb
 4218 0188 3B       		.uleb128 0x3b
 4219 0189 0B       		.uleb128 0xb
 4220 018a 27       		.uleb128 0x27
 4221 018b 0C       		.uleb128 0xc
 4222 018c 49       		.uleb128 0x49
 4223 018d 13       		.uleb128 0x13
 4224 018e 11       		.uleb128 0x11
 4225 018f 01       		.uleb128 0x1
 4226 0190 12       		.uleb128 0x12
 4227 0191 01       		.uleb128 0x1
 4228 0192 40       		.uleb128 0x40
 4229 0193 06       		.uleb128 0x6
 4230 0194 01       		.uleb128 0x1
 4231 0195 13       		.uleb128 0x13
 4232 0196 00       		.byte	0x0
 4233 0197 00       		.byte	0x0
 4234 0198 21       		.uleb128 0x21
 4235 0199 05       		.uleb128 0x5
 4236 019a 00       		.byte	0x0
 4237 019b 03       		.uleb128 0x3
 4238 019c 08       		.uleb128 0x8
 4239 019d 3A       		.uleb128 0x3a
 4240 019e 0B       		.uleb128 0xb
 4241 019f 3B       		.uleb128 0x3b
 4242 01a0 0B       		.uleb128 0xb
 4243 01a1 49       		.uleb128 0x49
 4244 01a2 13       		.uleb128 0x13
 4245 01a3 02       		.uleb128 0x2
 4246 01a4 06       		.uleb128 0x6
 4247 01a5 00       		.byte	0x0
 4248 01a6 00       		.byte	0x0
 4249 01a7 22       		.uleb128 0x22
 4250 01a8 34       		.uleb128 0x34
ARM GAS  C:\Users\DNIEL~1\AppData\Local\Temp\cc8JXkoo.s 			page 78


 4251 01a9 00       		.byte	0x0
 4252 01aa 03       		.uleb128 0x3
 4253 01ab 08       		.uleb128 0x8
 4254 01ac 3A       		.uleb128 0x3a
 4255 01ad 0B       		.uleb128 0xb
 4256 01ae 3B       		.uleb128 0x3b
 4257 01af 0B       		.uleb128 0xb
 4258 01b0 49       		.uleb128 0x49
 4259 01b1 13       		.uleb128 0x13
 4260 01b2 02       		.uleb128 0x2
 4261 01b3 0A       		.uleb128 0xa
 4262 01b4 00       		.byte	0x0
 4263 01b5 00       		.byte	0x0
 4264 01b6 23       		.uleb128 0x23
 4265 01b7 34       		.uleb128 0x34
 4266 01b8 00       		.byte	0x0
 4267 01b9 03       		.uleb128 0x3
 4268 01ba 08       		.uleb128 0x8
 4269 01bb 3A       		.uleb128 0x3a
 4270 01bc 0B       		.uleb128 0xb
 4271 01bd 3B       		.uleb128 0x3b
 4272 01be 0B       		.uleb128 0xb
 4273 01bf 49       		.uleb128 0x49
 4274 01c0 13       		.uleb128 0x13
 4275 01c1 00       		.byte	0x0
 4276 01c2 00       		.byte	0x0
 4277 01c3 24       		.uleb128 0x24
 4278 01c4 2E       		.uleb128 0x2e
 4279 01c5 00       		.byte	0x0
 4280 01c6 3F       		.uleb128 0x3f
 4281 01c7 0C       		.uleb128 0xc
 4282 01c8 03       		.uleb128 0x3
 4283 01c9 0E       		.uleb128 0xe
 4284 01ca 3A       		.uleb128 0x3a
 4285 01cb 0B       		.uleb128 0xb
 4286 01cc 3B       		.uleb128 0x3b
 4287 01cd 0B       		.uleb128 0xb
 4288 01ce 27       		.uleb128 0x27
 4289 01cf 0C       		.uleb128 0xc
 4290 01d0 11       		.uleb128 0x11
 4291 01d1 01       		.uleb128 0x1
 4292 01d2 12       		.uleb128 0x12
 4293 01d3 01       		.uleb128 0x1
 4294 01d4 40       		.uleb128 0x40
 4295 01d5 06       		.uleb128 0x6
 4296 01d6 00       		.byte	0x0
 4297 01d7 00       		.byte	0x0
 4298 01d8 25       		.uleb128 0x25
 4299 01d9 2E       		.uleb128 0x2e
 4300 01da 01       		.byte	0x1
 4301 01db 3F       		.uleb128 0x3f
 4302 01dc 0C       		.uleb128 0xc
 4303 01dd 03       		.uleb128 0x3
 4304 01de 0E       		.uleb128 0xe
 4305 01df 3A       		.uleb128 0x3a
 4306 01e0 0B       		.uleb128 0xb
 4307 01e1 3B       		.uleb128 0x3b
ARM GAS  C:\Users\DNIEL~1\AppData\Local\Temp\cc8JXkoo.s 			page 79


 4308 01e2 0B       		.uleb128 0xb
 4309 01e3 27       		.uleb128 0x27
 4310 01e4 0C       		.uleb128 0xc
 4311 01e5 11       		.uleb128 0x11
 4312 01e6 01       		.uleb128 0x1
 4313 01e7 12       		.uleb128 0x12
 4314 01e8 01       		.uleb128 0x1
 4315 01e9 40       		.uleb128 0x40
 4316 01ea 06       		.uleb128 0x6
 4317 01eb 01       		.uleb128 0x1
 4318 01ec 13       		.uleb128 0x13
 4319 01ed 00       		.byte	0x0
 4320 01ee 00       		.byte	0x0
 4321 01ef 26       		.uleb128 0x26
 4322 01f0 05       		.uleb128 0x5
 4323 01f1 00       		.byte	0x0
 4324 01f2 03       		.uleb128 0x3
 4325 01f3 0E       		.uleb128 0xe
 4326 01f4 3A       		.uleb128 0x3a
 4327 01f5 0B       		.uleb128 0xb
 4328 01f6 3B       		.uleb128 0x3b
 4329 01f7 0B       		.uleb128 0xb
 4330 01f8 49       		.uleb128 0x49
 4331 01f9 13       		.uleb128 0x13
 4332 01fa 02       		.uleb128 0x2
 4333 01fb 06       		.uleb128 0x6
 4334 01fc 00       		.byte	0x0
 4335 01fd 00       		.byte	0x0
 4336 01fe 27       		.uleb128 0x27
 4337 01ff 2E       		.uleb128 0x2e
 4338 0200 01       		.byte	0x1
 4339 0201 3F       		.uleb128 0x3f
 4340 0202 0C       		.uleb128 0xc
 4341 0203 03       		.uleb128 0x3
 4342 0204 0E       		.uleb128 0xe
 4343 0205 3A       		.uleb128 0x3a
 4344 0206 0B       		.uleb128 0xb
 4345 0207 3B       		.uleb128 0x3b
 4346 0208 05       		.uleb128 0x5
 4347 0209 27       		.uleb128 0x27
 4348 020a 0C       		.uleb128 0xc
 4349 020b 11       		.uleb128 0x11
 4350 020c 01       		.uleb128 0x1
 4351 020d 12       		.uleb128 0x12
 4352 020e 01       		.uleb128 0x1
 4353 020f 40       		.uleb128 0x40
 4354 0210 06       		.uleb128 0x6
 4355 0211 01       		.uleb128 0x1
 4356 0212 13       		.uleb128 0x13
 4357 0213 00       		.byte	0x0
 4358 0214 00       		.byte	0x0
 4359 0215 28       		.uleb128 0x28
 4360 0216 05       		.uleb128 0x5
 4361 0217 00       		.byte	0x0
 4362 0218 03       		.uleb128 0x3
 4363 0219 08       		.uleb128 0x8
 4364 021a 3A       		.uleb128 0x3a
ARM GAS  C:\Users\DNIEL~1\AppData\Local\Temp\cc8JXkoo.s 			page 80


 4365 021b 0B       		.uleb128 0xb
 4366 021c 3B       		.uleb128 0x3b
 4367 021d 05       		.uleb128 0x5
 4368 021e 49       		.uleb128 0x49
 4369 021f 13       		.uleb128 0x13
 4370 0220 02       		.uleb128 0x2
 4371 0221 06       		.uleb128 0x6
 4372 0222 00       		.byte	0x0
 4373 0223 00       		.byte	0x0
 4374 0224 29       		.uleb128 0x29
 4375 0225 05       		.uleb128 0x5
 4376 0226 00       		.byte	0x0
 4377 0227 03       		.uleb128 0x3
 4378 0228 0E       		.uleb128 0xe
 4379 0229 3A       		.uleb128 0x3a
 4380 022a 0B       		.uleb128 0xb
 4381 022b 3B       		.uleb128 0x3b
 4382 022c 05       		.uleb128 0x5
 4383 022d 49       		.uleb128 0x49
 4384 022e 13       		.uleb128 0x13
 4385 022f 02       		.uleb128 0x2
 4386 0230 06       		.uleb128 0x6
 4387 0231 00       		.byte	0x0
 4388 0232 00       		.byte	0x0
 4389 0233 2A       		.uleb128 0x2a
 4390 0234 34       		.uleb128 0x34
 4391 0235 00       		.byte	0x0
 4392 0236 03       		.uleb128 0x3
 4393 0237 08       		.uleb128 0x8
 4394 0238 3A       		.uleb128 0x3a
 4395 0239 0B       		.uleb128 0xb
 4396 023a 3B       		.uleb128 0x3b
 4397 023b 05       		.uleb128 0x5
 4398 023c 49       		.uleb128 0x49
 4399 023d 13       		.uleb128 0x13
 4400 023e 02       		.uleb128 0x2
 4401 023f 06       		.uleb128 0x6
 4402 0240 00       		.byte	0x0
 4403 0241 00       		.byte	0x0
 4404 0242 2B       		.uleb128 0x2b
 4405 0243 0B       		.uleb128 0xb
 4406 0244 01       		.byte	0x1
 4407 0245 55       		.uleb128 0x55
 4408 0246 06       		.uleb128 0x6
 4409 0247 00       		.byte	0x0
 4410 0248 00       		.byte	0x0
 4411 0249 2C       		.uleb128 0x2c
 4412 024a 2E       		.uleb128 0x2e
 4413 024b 01       		.byte	0x1
 4414 024c 3F       		.uleb128 0x3f
 4415 024d 0C       		.uleb128 0xc
 4416 024e 03       		.uleb128 0x3
 4417 024f 0E       		.uleb128 0xe
 4418 0250 3A       		.uleb128 0x3a
 4419 0251 0B       		.uleb128 0xb
 4420 0252 3B       		.uleb128 0x3b
 4421 0253 0B       		.uleb128 0xb
ARM GAS  C:\Users\DNIEL~1\AppData\Local\Temp\cc8JXkoo.s 			page 81


 4422 0254 49       		.uleb128 0x49
 4423 0255 13       		.uleb128 0x13
 4424 0256 3C       		.uleb128 0x3c
 4425 0257 0C       		.uleb128 0xc
 4426 0258 00       		.byte	0x0
 4427 0259 00       		.byte	0x0
 4428 025a 2D       		.uleb128 0x2d
 4429 025b 18       		.uleb128 0x18
 4430 025c 00       		.byte	0x0
 4431 025d 00       		.byte	0x0
 4432 025e 00       		.byte	0x0
 4433 025f 2E       		.uleb128 0x2e
 4434 0260 34       		.uleb128 0x34
 4435 0261 00       		.byte	0x0
 4436 0262 03       		.uleb128 0x3
 4437 0263 0E       		.uleb128 0xe
 4438 0264 3A       		.uleb128 0x3a
 4439 0265 0B       		.uleb128 0xb
 4440 0266 3B       		.uleb128 0x3b
 4441 0267 0B       		.uleb128 0xb
 4442 0268 49       		.uleb128 0x49
 4443 0269 13       		.uleb128 0x13
 4444 026a 3F       		.uleb128 0x3f
 4445 026b 0C       		.uleb128 0xc
 4446 026c 3C       		.uleb128 0x3c
 4447 026d 0C       		.uleb128 0xc
 4448 026e 00       		.byte	0x0
 4449 026f 00       		.byte	0x0
 4450 0270 2F       		.uleb128 0x2f
 4451 0271 34       		.uleb128 0x34
 4452 0272 00       		.byte	0x0
 4453 0273 03       		.uleb128 0x3
 4454 0274 0E       		.uleb128 0xe
 4455 0275 3A       		.uleb128 0x3a
 4456 0276 0B       		.uleb128 0xb
 4457 0277 3B       		.uleb128 0x3b
 4458 0278 05       		.uleb128 0x5
 4459 0279 49       		.uleb128 0x49
 4460 027a 13       		.uleb128 0x13
 4461 027b 3F       		.uleb128 0x3f
 4462 027c 0C       		.uleb128 0xc
 4463 027d 3C       		.uleb128 0x3c
 4464 027e 0C       		.uleb128 0xc
 4465 027f 00       		.byte	0x0
 4466 0280 00       		.byte	0x0
 4467 0281 30       		.uleb128 0x30
 4468 0282 34       		.uleb128 0x34
 4469 0283 00       		.byte	0x0
 4470 0284 03       		.uleb128 0x3
 4471 0285 0E       		.uleb128 0xe
 4472 0286 3A       		.uleb128 0x3a
 4473 0287 0B       		.uleb128 0xb
 4474 0288 3B       		.uleb128 0x3b
 4475 0289 0B       		.uleb128 0xb
 4476 028a 49       		.uleb128 0x49
 4477 028b 13       		.uleb128 0x13
 4478 028c 02       		.uleb128 0x2
ARM GAS  C:\Users\DNIEL~1\AppData\Local\Temp\cc8JXkoo.s 			page 82


 4479 028d 0A       		.uleb128 0xa
 4480 028e 00       		.byte	0x0
 4481 028f 00       		.byte	0x0
 4482 0290 31       		.uleb128 0x31
 4483 0291 34       		.uleb128 0x34
 4484 0292 00       		.byte	0x0
 4485 0293 03       		.uleb128 0x3
 4486 0294 0E       		.uleb128 0xe
 4487 0295 3A       		.uleb128 0x3a
 4488 0296 0B       		.uleb128 0xb
 4489 0297 3B       		.uleb128 0x3b
 4490 0298 0B       		.uleb128 0xb
 4491 0299 49       		.uleb128 0x49
 4492 029a 13       		.uleb128 0x13
 4493 029b 00       		.byte	0x0
 4494 029c 00       		.byte	0x0
 4495 029d 32       		.uleb128 0x32
 4496 029e 34       		.uleb128 0x34
 4497 029f 00       		.byte	0x0
 4498 02a0 03       		.uleb128 0x3
 4499 02a1 0E       		.uleb128 0xe
 4500 02a2 3A       		.uleb128 0x3a
 4501 02a3 0B       		.uleb128 0xb
 4502 02a4 3B       		.uleb128 0x3b
 4503 02a5 0B       		.uleb128 0xb
 4504 02a6 49       		.uleb128 0x49
 4505 02a7 13       		.uleb128 0x13
 4506 02a8 3F       		.uleb128 0x3f
 4507 02a9 0C       		.uleb128 0xc
 4508 02aa 02       		.uleb128 0x2
 4509 02ab 0A       		.uleb128 0xa
 4510 02ac 00       		.byte	0x0
 4511 02ad 00       		.byte	0x0
 4512 02ae 00       		.byte	0x0
 4513              		.section	.debug_pubnames,"",%progbits
 4514 0000 67000000 		.4byte	0x67
 4515 0004 0200     		.2byte	0x2
 4516 0006 00000000 		.4byte	.Ldebug_info0
 4517 000a FB100000 		.4byte	0x10fb
 4518 000e C00E0000 		.4byte	0xec0
 4519 0012 63616E5F 		.ascii	"can_commInit\000"
 4519      636F6D6D 
 4519      496E6974 
 4519      00
 4520 001f D50E0000 		.4byte	0xed5
 4521 0023 636D645F 		.ascii	"cmd_can_commvalues\000"
 4521      63616E5F 
 4521      636F6D6D 
 4521      76616C75 
 4521      657300
 4522 0036 1C0F0000 		.4byte	0xf1c
 4523 003a 636D645F 		.ascii	"cmd_canmppttest\000"
 4523      63616E6D 
 4523      70707474 
 4523      65737400 
 4524 004a 630F0000 		.4byte	0xf63
 4525 004e 636D645F 		.ascii	"cmd_candata\000"
ARM GAS  C:\Users\DNIEL~1\AppData\Local\Temp\cc8JXkoo.s 			page 83


 4525      63616E64 
 4525      61746100 
 4526 005a E8100000 		.4byte	0x10e8
 4527 005e 63616E73 		.ascii	"canstate\000"
 4527      74617465 
 4527      00
 4528 0067 00000000 		.4byte	0x0
 4529              		.section	.debug_pubtypes,"",%progbits
 4530 0000 05030000 		.4byte	0x305
 4531 0004 0200     		.2byte	0x2
 4532 0006 00000000 		.4byte	.Ldebug_info0
 4533 000a FB100000 		.4byte	0x10fb
 4534 000e 29000000 		.4byte	0x29
 4535 0012 73697A65 		.ascii	"size_t\000"
 4535      5F7400
 4536 0019 94000000 		.4byte	0x94
 4537 001d 75696E74 		.ascii	"uint8_t\000"
 4537      385F7400 
 4538 0025 9F000000 		.4byte	0x9f
 4539 0029 696E7431 		.ascii	"int16_t\000"
 4539      365F7400 
 4540 0031 AA000000 		.4byte	0xaa
 4541 0035 75696E74 		.ascii	"uint16_t\000"
 4541      31365F74 
 4541      00
 4542 003e B5000000 		.4byte	0xb5
 4543 0042 696E7433 		.ascii	"int32_t\000"
 4543      325F7400 
 4544 004a C0000000 		.4byte	0xc0
 4545 004e 75696E74 		.ascii	"uint32_t\000"
 4545      33325F74 
 4545      00
 4546 0057 CB000000 		.4byte	0xcb
 4547 005b 75696E74 		.ascii	"uint64_t\000"
 4547      36345F74 
 4547      00
 4548 0064 D6000000 		.4byte	0xd6
 4549 0068 746D6F64 		.ascii	"tmode_t\000"
 4549      655F7400 
 4550 0070 E1000000 		.4byte	0xe1
 4551 0074 74737461 		.ascii	"tstate_t\000"
 4551      74655F74 
 4551      00
 4552 007d EC000000 		.4byte	0xec
 4553 0081 74726566 		.ascii	"trefs_t\000"
 4553      735F7400 
 4554 0089 F7000000 		.4byte	0xf7
 4555 008d 74736C69 		.ascii	"tslices_t\000"
 4555      6365735F 
 4555      7400
 4556 0097 02010000 		.4byte	0x102
 4557 009b 74707269 		.ascii	"tprio_t\000"
 4557      6F5F7400 
 4558 00a3 0D010000 		.4byte	0x10d
 4559 00a7 6D73675F 		.ascii	"msg_t\000"
 4559      7400
 4560 00ad 18010000 		.4byte	0x118
ARM GAS  C:\Users\DNIEL~1\AppData\Local\Temp\cc8JXkoo.s 			page 84


 4561 00b1 6576656E 		.ascii	"eventmask_t\000"
 4561      746D6173 
 4561      6B5F7400 
 4562 00bd 23010000 		.4byte	0x123
 4563 00c1 666C6167 		.ascii	"flagsmask_t\000"
 4563      736D6173 
 4563      6B5F7400 
 4564 00cd 2E010000 		.4byte	0x12e
 4565 00d1 73797374 		.ascii	"systime_t\000"
 4565      696D655F 
 4565      7400
 4566 00db 39010000 		.4byte	0x139
 4567 00df 636E745F 		.ascii	"cnt_t\000"
 4567      7400
 4568 00e5 44010000 		.4byte	0x144
 4569 00e9 54687265 		.ascii	"Thread\000"
 4569      616400
 4570 00f0 9F020000 		.4byte	0x29f
 4571 00f4 54687265 		.ascii	"ThreadsQueue\000"
 4571      61647351 
 4571      75657565 
 4571      00
 4572 0101 C1020000 		.4byte	0x2c1
 4573 0105 54687265 		.ascii	"ThreadsList\000"
 4573      6164734C 
 4573      69737400 
 4574 0111 CC020000 		.4byte	0x2cc
 4575 0115 72656761 		.ascii	"regarm_t\000"
 4575      726D5F74 
 4575      00
 4576 011e D7020000 		.4byte	0x2d7
 4577 0122 73746B61 		.ascii	"stkalign_t\000"
 4577      6C69676E 
 4577      5F7400
 4578 012d E2020000 		.4byte	0x2e2
 4579 0131 696E7463 		.ascii	"intctx\000"
 4579      747800
 4580 0138 70030000 		.4byte	0x370
 4581 013c 636F6E74 		.ascii	"context\000"
 4581      65787400 
 4582 0144 FA030000 		.4byte	0x3fa
 4583 0148 52656164 		.ascii	"ReadyList\000"
 4583      794C6973 
 4583      7400
 4584 0152 05040000 		.4byte	0x405
 4585 0156 53656D61 		.ascii	"Semaphore\000"
 4585      70686F72 
 4585      6500
 4586 0160 2E040000 		.4byte	0x42e
 4587 0164 53656D61 		.ascii	"Semaphore\000"
 4587      70686F72 
 4587      6500
 4588 016e 39040000 		.4byte	0x439
 4589 0172 4D757465 		.ascii	"Mutex\000"
 4589      7800
 4590 0178 76040000 		.4byte	0x476
 4591 017c 4D757465 		.ascii	"Mutex\000"
ARM GAS  C:\Users\DNIEL~1\AppData\Local\Temp\cc8JXkoo.s 			page 85


 4591      7800
 4592 0182 81040000 		.4byte	0x481
 4593 0186 4576656E 		.ascii	"EventListener\000"
 4593      744C6973 
 4593      74656E65 
 4593      7200
 4594 0194 8C040000 		.4byte	0x48c
 4595 0198 4576656E 		.ascii	"EventListener\000"
 4595      744C6973 
 4595      74656E65 
 4595      7200
 4596 01a6 D7040000 		.4byte	0x4d7
 4597 01aa 4576656E 		.ascii	"EventSource\000"
 4597      74536F75 
 4597      72636500 
 4598 01b6 F2040000 		.4byte	0x4f2
 4599 01ba 4576656E 		.ascii	"EventSource\000"
 4599      74536F75 
 4599      72636500 
 4600 01c6 4F010000 		.4byte	0x14f
 4601 01ca 54687265 		.ascii	"Thread\000"
 4601      616400
 4602 01d1 54050000 		.4byte	0x554
 4603 01d5 42617365 		.ascii	"BaseSequentialStreamVMT\000"
 4603      53657175 
 4603      656E7469 
 4603      616C5374 
 4603      7265616D 
 4604 01ed 21060000 		.4byte	0x621
 4605 01f1 42617365 		.ascii	"BaseSequentialStream\000"
 4605      53657175 
 4605      656E7469 
 4605      616C5374 
 4605      7265616D 
 4606 0206 97060000 		.4byte	0x697
 4607 020a 43414E5F 		.ascii	"CAN_TxMailBox_TypeDef\000"
 4607      54784D61 
 4607      696C426F 
 4607      785F5479 
 4607      70654465 
 4608 0220 E9060000 		.4byte	0x6e9
 4609 0224 43414E5F 		.ascii	"CAN_FIFOMailBox_TypeDef\000"
 4609      4649464F 
 4609      4D61696C 
 4609      426F785F 
 4609      54797065 
 4610 023c 1D070000 		.4byte	0x71d
 4611 0240 43414E5F 		.ascii	"CAN_FilterRegister_TypeDef\000"
 4611      46696C74 
 4611      65725265 
 4611      67697374 
 4611      65725F54 
 4612 025b DB080000 		.4byte	0x8db
 4613 025f 43414E5F 		.ascii	"CAN_TypeDef\000"
 4613      54797065 
 4613      44656600 
 4614 026b E7080000 		.4byte	0x8e7
ARM GAS  C:\Users\DNIEL~1\AppData\Local\Temp\cc8JXkoo.s 			page 86


 4615 026f 42617365 		.ascii	"BaseChannelVMT\000"
 4615      4368616E 
 4615      6E656C56 
 4615      4D5400
 4616 027e 0B0A0000 		.4byte	0xa0b
 4617 0282 42617365 		.ascii	"BaseChannel\000"
 4617      4368616E 
 4617      6E656C00 
 4618 028e 3D0A0000 		.4byte	0xa3d
 4619 0292 63616E73 		.ascii	"canstate_t\000"
 4619      74617465 
 4619      5F7400
 4620 029d 360B0000 		.4byte	0xb36
 4621 02a1 43414E54 		.ascii	"CANTxFrame\000"
 4621      78467261 
 4621      6D6500
 4622 02ac 3C0C0000 		.4byte	0xc3c
 4623 02b0 43414E52 		.ascii	"CANRxFrame\000"
 4623      78467261 
 4623      6D6500
 4624 02bb 9F0C0000 		.4byte	0xc9f
 4625 02bf 43414E46 		.ascii	"CANFilter\000"
 4625      696C7465 
 4625      7200
 4626 02c9 F60C0000 		.4byte	0xcf6
 4627 02cd 43414E43 		.ascii	"CANConfig\000"
 4627      6F6E6669 
 4627      6700
 4628 02d7 AD0D0000 		.4byte	0xdad
 4629 02db 43414E44 		.ascii	"CANDriver\000"
 4629      72697665 
 4629      7200
 4630 02e5 C50D0000 		.4byte	0xdc5
 4631 02e9 6C757863 		.ascii	"luxcontrolItem\000"
 4631      6F6E7472 
 4631      6F6C4974 
 4631      656D00
 4632 02f8 4F0E0000 		.4byte	0xe4f
 4633 02fc 63616E53 		.ascii	"canState\000"
 4633      74617465 
 4633      00
 4634 0305 00000000 		.4byte	0x0
 4635              		.section	.debug_aranges,"",%progbits
 4636 0000 3C000000 		.4byte	0x3c
 4637 0004 0200     		.2byte	0x2
 4638 0006 00000000 		.4byte	.Ldebug_info0
 4639 000a 04       		.byte	0x4
 4640 000b 00       		.byte	0x0
 4641 000c 0000     		.2byte	0x0
 4642 000e 0000     		.2byte	0x0
 4643 0010 00000000 		.4byte	.LFB118
 4644 0014 34020000 		.4byte	.LFE118-.LFB118
 4645 0018 00000000 		.4byte	.LFB120
 4646 001c 34000000 		.4byte	.LFE120-.LFB120
 4647 0020 00000000 		.4byte	.LFB121
 4648 0024 7C000000 		.4byte	.LFE121-.LFB121
 4649 0028 00000000 		.4byte	.LFB122
ARM GAS  C:\Users\DNIEL~1\AppData\Local\Temp\cc8JXkoo.s 			page 87


 4650 002c 4C010000 		.4byte	.LFE122-.LFB122
 4651 0030 00000000 		.4byte	.LFB123
 4652 0034 1C010000 		.4byte	.LFE123-.LFB123
 4653 0038 00000000 		.4byte	0x0
 4654 003c 00000000 		.4byte	0x0
 4655              		.section	.debug_ranges,"",%progbits
 4656              	.Ldebug_ranges0:
 4657 0000 2C000000 		.4byte	.LBB2
 4658 0004 4A000000 		.4byte	.LBE2
 4659 0008 D8000000 		.4byte	.LBB4
 4660 000c 1C010000 		.4byte	.LBE4
 4661 0010 4E000000 		.4byte	.LBB3
 4662 0014 D4000000 		.4byte	.LBE3
 4663 0018 00000000 		.4byte	0x0
 4664 001c 00000000 		.4byte	0x0
 4665 0020 00000000 		.4byte	.LFB118
 4666 0024 34020000 		.4byte	.LFE118
 4667 0028 00000000 		.4byte	.LFB120
 4668 002c 34000000 		.4byte	.LFE120
 4669 0030 00000000 		.4byte	.LFB121
 4670 0034 7C000000 		.4byte	.LFE121
 4671 0038 00000000 		.4byte	.LFB122
 4672 003c 4C010000 		.4byte	.LFE122
 4673 0040 00000000 		.4byte	.LFB123
 4674 0044 1C010000 		.4byte	.LFE123
 4675 0048 00000000 		.4byte	0x0
 4676 004c 00000000 		.4byte	0x0
 4677              		.section	.debug_str,"MS",%progbits,1
 4678              	.LASF168:
 4679 0000 72786D73 		.ascii	"rxmsg\000"
 4679      6700
 4680              	.LASF150:
 4681 0006 766F6C74 		.ascii	"volt_out\000"
 4681      5F6F7574 
 4681      00
 4682              	.LASF147:
 4683 000f 65666669 		.ascii	"efficiency\000"
 4683      6369656E 
 4683      637900
 4684              	.LASF126:
 4685 001a 7363616C 		.ascii	"scale\000"
 4685      6500
 4686              	.LASF159:
 4687 0020 636D645F 		.ascii	"cmd_can_commvalues\000"
 4687      63616E5F 
 4687      636F6D6D 
 4687      76616C75 
 4687      657300
 4688              	.LASF10:
 4689 0033 73697A65 		.ascii	"size_t\000"
 4689      5F7400
 4690              	.LASF124:
 4691 003a 43414E52 		.ascii	"CANRxFrame\000"
 4691      78467261 
 4691      6D6500
 4692              	.LASF74:
 4693 0045 7264796D 		.ascii	"rdymsg\000"
ARM GAS  C:\Users\DNIEL~1\AppData\Local\Temp\cc8JXkoo.s 			page 88


 4693      736700
 4694              	.LASF16:
 4695 004c 75696E74 		.ascii	"uint64_t\000"
 4695      36345F74 
 4695      00
 4696              	.LASF132:
 4697 0055 43414E43 		.ascii	"CANConfig\000"
 4697      6F6E6669 
 4697      6700
 4698              	.LASF106:
 4699 005f 43414E5F 		.ascii	"CAN_TypeDef\000"
 4699      54797065 
 4699      44656600 
 4700              	.LASF167:
 4701 006b 74786D73 		.ascii	"txmsg\000"
 4701      6700
 4702              	.LASF6:
 4703 0071 6C6F6E67 		.ascii	"long long unsigned int\000"
 4703      206C6F6E 
 4703      6720756E 
 4703      7369676E 
 4703      65642069 
 4704              	.LASF107:
 4705 0088 42617365 		.ascii	"BaseChannelVMT\000"
 4705      4368616E 
 4705      6E656C56 
 4705      4D5400
 4706              	.LASF75:
 4707 0097 65786974 		.ascii	"exitcode\000"
 4707      636F6465 
 4707      00
 4708              	.LASF99:
 4709 00a0 46533152 		.ascii	"FS1R\000"
 4709      00
 4710              	.LASF121:
 4711 00a5 64617461 		.ascii	"data32\000"
 4711      333200
 4712              	.LASF30:
 4713 00ac 705F7072 		.ascii	"p_prio\000"
 4713      696F00
 4714              	.LASF111:
 4715 00b3 72656164 		.ascii	"readt\000"
 4715      7400
 4716              	.LASF12:
 4717 00b9 696E7431 		.ascii	"int16_t\000"
 4717      365F7400 
 4718              	.LASF5:
 4719 00c1 6C6F6E67 		.ascii	"long long int\000"
 4719      206C6F6E 
 4719      6720696E 
 4719      7400
 4720              	.LASF1:
 4721 00cf 7369676E 		.ascii	"signed char\000"
 4721      65642063 
 4721      68617200 
 4722              	.LASF115:
 4723 00db 43414E5F 		.ascii	"CAN_STARTING\000"
ARM GAS  C:\Users\DNIEL~1\AppData\Local\Temp\cc8JXkoo.s 			page 89


 4723      53544152 
 4723      54494E47 
 4723      00
 4724              	.LASF64:
 4725 00e8 6D5F7175 		.ascii	"m_queue\000"
 4725      65756500 
 4726              	.LASF135:
 4727 00f0 74787365 		.ascii	"txsem\000"
 4727      6D00
 4728              	.LASF174:
 4729 00f6 474E5520 		.ascii	"GNU C 4.5.2\000"
 4729      4320342E 
 4729      352E3200 
 4730              	.LASF20:
 4731 0102 74736C69 		.ascii	"tslices_t\000"
 4731      6365735F 
 4731      7400
 4732              	.LASF133:
 4733 010c 73746174 		.ascii	"state\000"
 4733      6500
 4734              	.LASF83:
 4735 0112 54444C52 		.ascii	"TDLR\000"
 4735      00
 4736              	.LASF7:
 4737 0117 6C6F6E67 		.ascii	"long int\000"
 4737      20696E74 
 4737      00
 4738              	.LASF160:
 4739 0120 636D645F 		.ascii	"cmd_canmppttest\000"
 4739      63616E6D 
 4739      70707474 
 4739      65737400 
 4740              	.LASF18:
 4741 0130 74737461 		.ascii	"tstate_t\000"
 4741      74655F74 
 4741      00
 4742              	.LASF85:
 4743 0139 43414E5F 		.ascii	"CAN_TxMailBox_TypeDef\000"
 4743      54784D61 
 4743      696C426F 
 4743      785F5479 
 4743      70654465 
 4744              	.LASF37:
 4745 014f 705F7265 		.ascii	"p_refs\000"
 4745      667300
 4746              	.LASF171:
 4747 0156 6D657373 		.ascii	"messages\000"
 4747      61676573 
 4747      00
 4748              	.LASF13:
 4749 015f 75696E74 		.ascii	"uint16_t\000"
 4749      31365F74 
 4749      00
 4750              	.LASF39:
 4751 0168 705F7469 		.ascii	"p_time\000"
 4751      6D6500
 4752              	.LASF128:
ARM GAS  C:\Users\DNIEL~1\AppData\Local\Temp\cc8JXkoo.s 			page 90


 4753 016f 72656769 		.ascii	"register1\000"
 4753      73746572 
 4753      3100
 4754              	.LASF32:
 4755 0179 705F6E65 		.ascii	"p_newer\000"
 4755      77657200 
 4756              	.LASF61:
 4757 0181 735F7175 		.ascii	"s_queue\000"
 4757      65756500 
 4758              	.LASF156:
 4759 0189 43414E5F 		.ascii	"CAN_NUM_CH\000"
 4759      4E554D5F 
 4759      434800
 4760              	.LASF116:
 4761 0194 43414E5F 		.ascii	"CAN_READY\000"
 4761      52454144 
 4761      5900
 4762              	.LASF91:
 4763 019e 52463052 		.ascii	"RF0R\000"
 4763      00
 4764              	.LASF137:
 4765 01a3 72786675 		.ascii	"rxfull_event\000"
 4765      6C6C5F65 
 4765      76656E74 
 4765      00
 4766              	.LASF56:
 4767 01b0 725F6E65 		.ascii	"r_newer\000"
 4767      77657200 
 4768              	.LASF46:
 4769 01b8 705F6D70 		.ascii	"p_mpool\000"
 4769      6F6F6C00 
 4770              	.LASF49:
 4771 01c0 72656761 		.ascii	"regarm_t\000"
 4771      726D5F74 
 4771      00
 4772              	.LASF123:
 4773 01c9 54494D45 		.ascii	"TIME\000"
 4773      00
 4774              	.LASF82:
 4775 01ce 54445452 		.ascii	"TDTR\000"
 4775      00
 4776              	.LASF72:
 4777 01d3 4576656E 		.ascii	"EventSource\000"
 4777      74536F75 
 4777      72636500 
 4778              	.LASF81:
 4779 01df 42617365 		.ascii	"BaseSequentialStream\000"
 4779      53657175 
 4779      656E7469 
 4779      616C5374 
 4779      7265616D 
 4780              	.LASF172:
 4781 01f4 63616E5F 		.ascii	"can_rx_wa\000"
 4781      72785F77 
 4781      6100
 4782              	.LASF26:
 4783 01fe 636E745F 		.ascii	"cnt_t\000"
ARM GAS  C:\Users\DNIEL~1\AppData\Local\Temp\cc8JXkoo.s 			page 91


 4783      7400
 4784              	.LASF0:
 4785 0204 756E7369 		.ascii	"unsigned int\000"
 4785      676E6564 
 4785      20696E74 
 4785      00
 4786              	.LASF164:
 4787 0211 43414E44 		.ascii	"CAND1\000"
 4787      3100
 4788              	.LASF94:
 4789 0217 7354784D 		.ascii	"sTxMailBox\000"
 4789      61696C42 
 4789      6F7800
 4790              	.LASF41:
 4791 0222 705F6D73 		.ascii	"p_msgqueue\000"
 4791      67717565 
 4791      756500
 4792              	.LASF86:
 4793 022d 52445452 		.ascii	"RDTR\000"
 4793      00
 4794              	.LASF122:
 4795 0232 43414E54 		.ascii	"CANTxFrame\000"
 4795      78467261 
 4795      6D6500
 4796              	.LASF109:
 4797 023d 67657474 		.ascii	"gett\000"
 4797      00
 4798              	.LASF62:
 4799 0242 735F636E 		.ascii	"s_cnt\000"
 4799      7400
 4800              	.LASF129:
 4801 0248 72656769 		.ascii	"register2\000"
 4801      73746572 
 4801      3200
 4802              	.LASF4:
 4803 0252 73686F72 		.ascii	"short unsigned int\000"
 4803      7420756E 
 4803      7369676E 
 4803      65642069 
 4803      6E7400
 4804              	.LASF92:
 4805 0265 52463152 		.ascii	"RF1R\000"
 4805      00
 4806              	.LASF154:
 4807 026a 43414E5F 		.ascii	"CAN_LC\000"
 4807      4C4300
 4808              	.LASF90:
 4809 0271 43414E5F 		.ascii	"CAN_FilterRegister_TypeDef\000"
 4809      46696C74 
 4809      65725265 
 4809      67697374 
 4809      65725F54 
 4810              	.LASF22:
 4811 028c 6D73675F 		.ascii	"msg_t\000"
 4811      7400
 4812              	.LASF68:
 4813 0292 656C5F6E 		.ascii	"el_next\000"
ARM GAS  C:\Users\DNIEL~1\AppData\Local\Temp\cc8JXkoo.s 			page 92


 4813      65787400 
 4814              	.LASF110:
 4815 029a 77726974 		.ascii	"writet\000"
 4815      657400
 4816              	.LASF17:
 4817 02a1 746D6F64 		.ascii	"tmode_t\000"
 4817      655F7400 
 4818              	.LASF48:
 4819 02a9 54687265 		.ascii	"ThreadsList\000"
 4819      6164734C 
 4819      69737400 
 4820              	.LASF105:
 4821 02b5 7346696C 		.ascii	"sFilterRegister\000"
 4821      74657252 
 4821      65676973 
 4821      74657200 
 4822              	.LASF23:
 4823 02c5 6576656E 		.ascii	"eventmask_t\000"
 4823      746D6173 
 4823      6B5F7400 
 4824              	.LASF63:
 4825 02d1 4D757465 		.ascii	"Mutex\000"
 4825      7800
 4826              	.LASF178:
 4827 02d7 63616E5F 		.ascii	"can_rx\000"
 4827      727800
 4828              	.LASF180:
 4829 02de 73747263 		.ascii	"strcmp\000"
 4829      6D7000
 4830              	.LASF50:
 4831 02e5 73746B61 		.ascii	"stkalign_t\000"
 4831      6C69676E 
 4831      5F7400
 4832              	.LASF79:
 4833 02f0 77726974 		.ascii	"write\000"
 4833      6500
 4834              	.LASF108:
 4835 02f6 70757474 		.ascii	"putt\000"
 4835      00
 4836              	.LASF103:
 4837 02fb 46413152 		.ascii	"FA1R\000"
 4837      00
 4838              	.LASF177:
 4839 0300 63616E53 		.ascii	"canState\000"
 4839      74617465 
 4839      00
 4840              	.LASF151:
 4841 0309 43414E5F 		.ascii	"CAN_SM\000"
 4841      534D00
 4842              	.LASF117:
 4843 0310 43414E5F 		.ascii	"CAN_SLEEP\000"
 4843      534C4545 
 4843      5000
 4844              	.LASF169:
 4845 031a 63616E63 		.ascii	"cancfg\000"
 4845      666700
 4846              	.LASF119:
ARM GAS  C:\Users\DNIEL~1\AppData\Local\Temp\cc8JXkoo.s 			page 93


 4847 0321 64617461 		.ascii	"data8\000"
 4847      3800
 4848              	.LASF142:
 4849 0327 43414E44 		.ascii	"CANDriver\000"
 4849      72697665 
 4849      7200
 4850              	.LASF155:
 4851 0331 43414E5F 		.ascii	"CAN_WAIT\000"
 4851      57414954 
 4851      00
 4852              	.LASF33:
 4853 033a 705F6F6C 		.ascii	"p_older\000"
 4853      64657200 
 4854              	.LASF55:
 4855 0342 725F6374 		.ascii	"r_ctx\000"
 4855      7800
 4856              	.LASF47:
 4857 0348 54687265 		.ascii	"ThreadsQueue\000"
 4857      61647351 
 4857      75657565 
 4857      00
 4858              	.LASF84:
 4859 0355 54444852 		.ascii	"TDHR\000"
 4859      00
 4860              	.LASF58:
 4861 035a 725F6375 		.ascii	"r_current\000"
 4861      7272656E 
 4861      7400
 4862              	.LASF57:
 4863 0364 725F6F6C 		.ascii	"r_older\000"
 4863      64657200 
 4864              	.LASF70:
 4865 036c 656C5F6D 		.ascii	"el_mask\000"
 4865      61736B00 
 4866              	.LASF140:
 4867 0374 736C6565 		.ascii	"sleep_event\000"
 4867      705F6576 
 4867      656E7400 
 4868              	.LASF118:
 4869 0380 63616E73 		.ascii	"canstate_t\000"
 4869      74617465 
 4869      5F7400
 4870              	.LASF114:
 4871 038b 43414E5F 		.ascii	"CAN_STOP\000"
 4871      53544F50 
 4871      00
 4872              	.LASF101:
 4873 0394 46464131 		.ascii	"FFA1R\000"
 4873      5200
 4874              	.LASF80:
 4875 039a 72656164 		.ascii	"read\000"
 4875      00
 4876              	.LASF139:
 4877 039f 6572726F 		.ascii	"error_event\000"
 4877      725F6576 
 4877      656E7400 
 4878              	.LASF179:
ARM GAS  C:\Users\DNIEL~1\AppData\Local\Temp\cc8JXkoo.s 			page 94


 4879 03ab 63616E5F 		.ascii	"can_commInit\000"
 4879      636F6D6D 
 4879      496E6974 
 4879      00
 4880              	.LASF19:
 4881 03b8 74726566 		.ascii	"trefs_t\000"
 4881      735F7400 
 4882              	.LASF93:
 4883 03c0 52455345 		.ascii	"RESERVED0\000"
 4883      52564544 
 4883      3000
 4884              	.LASF96:
 4885 03ca 52455345 		.ascii	"RESERVED1\000"
 4885      52564544 
 4885      3100
 4886              	.LASF98:
 4887 03d4 52455345 		.ascii	"RESERVED2\000"
 4887      52564544 
 4887      3200
 4888              	.LASF100:
 4889 03de 52455345 		.ascii	"RESERVED3\000"
 4889      52564544 
 4889      3300
 4890              	.LASF102:
 4891 03e8 52455345 		.ascii	"RESERVED4\000"
 4891      52564544 
 4891      3400
 4892              	.LASF29:
 4893 03f2 705F7072 		.ascii	"p_prev\000"
 4893      657600
 4894              	.LASF21:
 4895 03f9 74707269 		.ascii	"tprio_t\000"
 4895      6F5F7400 
 4896              	.LASF113:
 4897 0401 43414E5F 		.ascii	"CAN_UNINIT\000"
 4897      554E494E 
 4897      495400
 4898              	.LASF14:
 4899 040c 696E7433 		.ascii	"int32_t\000"
 4899      325F7400 
 4900              	.LASF2:
 4901 0414 756E7369 		.ascii	"unsigned char\000"
 4901      676E6564 
 4901      20636861 
 4901      7200
 4902              	.LASF141:
 4903 0422 77616B65 		.ascii	"wakeup_event\000"
 4903      75705F65 
 4903      76656E74 
 4903      00
 4904              	.LASF69:
 4905 042f 656C5F6C 		.ascii	"el_listener\000"
 4905      69737465 
 4905      6E657200 
 4906              	.LASF163:
 4907 043b 49544D5F 		.ascii	"ITM_RxBuffer\000"
 4907      52784275 
ARM GAS  C:\Users\DNIEL~1\AppData\Local\Temp\cc8JXkoo.s 			page 95


 4907      66666572 
 4907      00
 4908              	.LASF71:
 4909 0448 656C5F66 		.ascii	"el_flags\000"
 4909      6C616773 
 4909      00
 4910              	.LASF44:
 4911 0451 705F6D74 		.ascii	"p_mtxlist\000"
 4911      786C6973 
 4911      7400
 4912              	.LASF3:
 4913 045b 73686F72 		.ascii	"short int\000"
 4913      7420696E 
 4913      7400
 4914              	.LASF35:
 4915 0465 705F7374 		.ascii	"p_state\000"
 4915      61746500 
 4916              	.LASF38:
 4917 046d 705F7072 		.ascii	"p_preempt\000"
 4917      65656D70 
 4917      7400
 4918              	.LASF54:
 4919 0477 725F7072 		.ascii	"r_prio\000"
 4919      696F00
 4920              	.LASF77:
 4921 047e 65776D61 		.ascii	"ewmask\000"
 4921      736B00
 4922              	.LASF28:
 4923 0485 705F6E65 		.ascii	"p_next\000"
 4923      787400
 4924              	.LASF78:
 4925 048c 42617365 		.ascii	"BaseSequentialStreamVMT\000"
 4925      53657175 
 4925      656E7469 
 4925      616C5374 
 4925      7265616D 
 4926              	.LASF36:
 4927 04a4 705F666C 		.ascii	"p_flags\000"
 4927      61677300 
 4928              	.LASF97:
 4929 04ac 464D3152 		.ascii	"FM1R\000"
 4929      00
 4930              	.LASF27:
 4931 04b1 54687265 		.ascii	"Thread\000"
 4931      616400
 4932              	.LASF173:
 4933 04b8 63616E5F 		.ascii	"can_tx_wa\000"
 4933      74785F77 
 4933      6100
 4934              	.LASF43:
 4935 04c2 705F6570 		.ascii	"p_epending\000"
 4935      656E6469 
 4935      6E6700
 4936              	.LASF104:
 4937 04cd 52455345 		.ascii	"RESERVED5\000"
 4937      52564544 
 4937      3500
ARM GAS  C:\Users\DNIEL~1\AppData\Local\Temp\cc8JXkoo.s 			page 96


 4938              	.LASF127:
 4939 04d7 61737369 		.ascii	"assignment\000"
 4939      676E6D65 
 4939      6E7400
 4940              	.LASF53:
 4941 04e2 725F7175 		.ascii	"r_queue\000"
 4941      65756500 
 4942              	.LASF138:
 4943 04ea 7478656D 		.ascii	"txempty_event\000"
 4943      7074795F 
 4943      6576656E 
 4943      7400
 4944              	.LASF149:
 4945 04f8 766F6C74 		.ascii	"volt_in\000"
 4945      5F696E00 
 4946              	.LASF8:
 4947 0500 6C6F6E67 		.ascii	"long unsigned int\000"
 4947      20756E73 
 4947      69676E65 
 4947      6420696E 
 4947      7400
 4948              	.LASF9:
 4949 0512 63686172 		.ascii	"char\000"
 4949      00
 4950              	.LASF125:
 4951 0517 6D6F6465 		.ascii	"mode\000"
 4951      00
 4952              	.LASF134:
 4953 051c 636F6E66 		.ascii	"config\000"
 4953      696700
 4954              	.LASF170:
 4955 0523 73656765 		.ascii	"seged\000"
 4955      6400
 4956              	.LASF88:
 4957 0529 52444852 		.ascii	"RDHR\000"
 4957      00
 4958              	.LASF166:
 4959 052e 63616E73 		.ascii	"canstate\000"
 4959      74617465 
 4959      00
 4960              	.LASF66:
 4961 0537 6D5F6E65 		.ascii	"m_next\000"
 4961      787400
 4962              	.LASF25:
 4963 053e 73797374 		.ascii	"systime_t\000"
 4963      696D655F 
 4963      7400
 4964              	.LASF45:
 4965 0548 705F7265 		.ascii	"p_realprio\000"
 4965      616C7072 
 4965      696F00
 4966              	.LASF95:
 4967 0553 73464946 		.ascii	"sFIFOMailBox\000"
 4967      4F4D6169 
 4967      6C426F78 
 4967      00
 4968              	.LASF52:
ARM GAS  C:\Users\DNIEL~1\AppData\Local\Temp\cc8JXkoo.s 			page 97


 4969 0560 636F6E74 		.ascii	"context\000"
 4969      65787400 
 4970              	.LASF144:
 4971 0568 74656D70 		.ascii	"temp\000"
 4971      00
 4972              	.LASF51:
 4973 056d 696E7463 		.ascii	"intctx\000"
 4973      747800
 4974              	.LASF175:
 4975 0574 7372632F 		.ascii	"src/can_comm.c\000"
 4975      63616E5F 
 4975      636F6D6D 
 4975      2E6300
 4976              	.LASF60:
 4977 0583 53656D61 		.ascii	"Semaphore\000"
 4977      70686F72 
 4977      6500
 4978              	.LASF24:
 4979 058d 666C6167 		.ascii	"flagsmask_t\000"
 4979      736D6173 
 4979      6B5F7400 
 4980              	.LASF15:
 4981 0599 75696E74 		.ascii	"uint32_t\000"
 4981      33325F74 
 4981      00
 4982              	.LASF120:
 4983 05a2 64617461 		.ascii	"data16\000"
 4983      313600
 4984              	.LASF143:
 4985 05a9 6C757863 		.ascii	"luxcontrolItem\000"
 4985      6F6E7472 
 4985      6F6C4974 
 4985      656D00
 4986              	.LASF34:
 4987 05b8 705F6E61 		.ascii	"p_name\000"
 4987      6D6500
 4988              	.LASF73:
 4989 05bf 65735F6E 		.ascii	"es_next\000"
 4989      65787400 
 4990              	.LASF148:
 4991 05c7 73746174 		.ascii	"status\000"
 4991      757300
 4992              	.LASF59:
 4993 05ce 52656164 		.ascii	"ReadyList\000"
 4993      794C6973 
 4993      7400
 4994              	.LASF89:
 4995 05d8 43414E5F 		.ascii	"CAN_FIFOMailBox_TypeDef\000"
 4995      4649464F 
 4995      4D61696C 
 4995      426F785F 
 4995      54797065 
 4996              	.LASF146:
 4997 05f0 63757272 		.ascii	"curr_out\000"
 4997      5F6F7574 
 4997      00
 4998              	.LASF162:
ARM GAS  C:\Users\DNIEL~1\AppData\Local\Temp\cc8JXkoo.s 			page 98


 4999 05f9 726C6973 		.ascii	"rlist\000"
 4999      7400
 5000              	.LASF11:
 5001 05ff 75696E74 		.ascii	"uint8_t\000"
 5001      385F7400 
 5002              	.LASF136:
 5003 0607 72787365 		.ascii	"rxsem\000"
 5003      6D00
 5004              	.LASF152:
 5005 060d 43414E5F 		.ascii	"CAN_ML\000"
 5005      4D4C00
 5006              	.LASF153:
 5007 0614 43414E5F 		.ascii	"CAN_RPY\000"
 5007      52505900 
 5008              	.LASF67:
 5009 061c 4576656E 		.ascii	"EventListener\000"
 5009      744C6973 
 5009      74656E65 
 5009      7200
 5010              	.LASF76:
 5011 062a 77746F62 		.ascii	"wtobjp\000"
 5011      6A7000
 5012              	.LASF161:
 5013 0631 636D645F 		.ascii	"cmd_candata\000"
 5013      63616E64 
 5013      61746100 
 5014              	.LASF157:
 5015 063d 61726763 		.ascii	"argc\000"
 5015      00
 5016              	.LASF130:
 5017 0642 43414E46 		.ascii	"CANFilter\000"
 5017      696C7465 
 5017      7200
 5018              	.LASF165:
 5019 064c 6C636974 		.ascii	"lcitems\000"
 5019      656D7300 
 5020              	.LASF42:
 5021 0654 705F6D73 		.ascii	"p_msg\000"
 5021      6700
 5022              	.LASF176:
 5023 065a 433A5C55 		.ascii	"C:\\Users\\D\341niel\\Dropbox\\Solar Racing\\Szoftv"
 5023      73657273 
 5023      5C44E16E 
 5023      69656C5C 
 5023      44726F70 
 5024 0685 65725C53 		.ascii	"er\\Smarty\\Smarty_v7\\smarty\\firmware\000"
 5024      6D617274 
 5024      795C536D 
 5024      61727479 
 5024      5F76375C 
 5025              	.LASF112:
 5026 06a9 42617365 		.ascii	"BaseChannel\000"
 5026      4368616E 
 5026      6E656C00 
 5027              	.LASF87:
 5028 06b5 52444C52 		.ascii	"RDLR\000"
 5028      00
ARM GAS  C:\Users\DNIEL~1\AppData\Local\Temp\cc8JXkoo.s 			page 99


 5029              	.LASF158:
 5030 06ba 61726776 		.ascii	"argv\000"
 5030      00
 5031              	.LASF65:
 5032 06bf 6D5F6F77 		.ascii	"m_owner\000"
 5032      6E657200 
 5033              	.LASF131:
 5034 06c7 66696C74 		.ascii	"filters\000"
 5034      65727300 
 5035              	.LASF31:
 5036 06cf 705F6374 		.ascii	"p_ctx\000"
 5036      7800
 5037              	.LASF40:
 5038 06d5 705F7761 		.ascii	"p_waiting\000"
 5038      6974696E 
 5038      6700
 5039              	.LASF145:
 5040 06df 63757272 		.ascii	"curr_in\000"
 5040      5F696E00 
 5041              		.ident	"GCC: (Sourcery G++ Lite 2011.03-42) 4.5.2"
ARM GAS  C:\Users\DNIEL~1\AppData\Local\Temp\cc8JXkoo.s 			page 100


DEFINED SYMBOLS
                            *ABS*:00000000 can_comm.c
C:\Users\DNIEL~1\AppData\Local\Temp\cc8JXkoo.s:24     .text.can_rx:00000000 $t
C:\Users\DNIEL~1\AppData\Local\Temp\cc8JXkoo.s:29     .text.can_rx:00000000 can_rx
C:\Users\DNIEL~1\AppData\Local\Temp\cc8JXkoo.s:371    .text.can_rx:00000200 $d
C:\Users\DNIEL~1\AppData\Local\Temp\cc8JXkoo.s:388    .text.can_commInit:00000000 $t
C:\Users\DNIEL~1\AppData\Local\Temp\cc8JXkoo.s:394    .text.can_commInit:00000000 can_commInit
C:\Users\DNIEL~1\AppData\Local\Temp\cc8JXkoo.s:427    .text.can_commInit:00000024 $d
C:\Users\DNIEL~1\AppData\Local\Temp\cc8JXkoo.s:435    .text.cmd_can_commvalues:00000000 $t
C:\Users\DNIEL~1\AppData\Local\Temp\cc8JXkoo.s:441    .text.cmd_can_commvalues:00000000 cmd_can_commvalues
C:\Users\DNIEL~1\AppData\Local\Temp\cc8JXkoo.s:511    .text.cmd_can_commvalues:00000060 $d
C:\Users\DNIEL~1\AppData\Local\Temp\cc8JXkoo.s:522    .text.cmd_canmppttest:00000000 $t
C:\Users\DNIEL~1\AppData\Local\Temp\cc8JXkoo.s:528    .text.cmd_canmppttest:00000000 cmd_canmppttest
C:\Users\DNIEL~1\AppData\Local\Temp\cc8JXkoo.s:673    .text.cmd_canmppttest:000000ec $d
C:\Users\DNIEL~1\AppData\Local\Temp\cc8JXkoo.s:701    .text.cmd_candata:00000000 $t
C:\Users\DNIEL~1\AppData\Local\Temp\cc8JXkoo.s:707    .text.cmd_candata:00000000 cmd_candata
C:\Users\DNIEL~1\AppData\Local\Temp\cc8JXkoo.s:853    .text.cmd_candata:000000dc $d
C:\Users\DNIEL~1\AppData\Local\Temp\cc8JXkoo.s:1337   .bss.canstate:00000000 canstate
C:\Users\DNIEL~1\AppData\Local\Temp\cc8JXkoo.s:875    .bss.id:00000000 $d
C:\Users\DNIEL~1\AppData\Local\Temp\cc8JXkoo.s:879    .bss.id:00000000 id
C:\Users\DNIEL~1\AppData\Local\Temp\cc8JXkoo.s:882    .bss.txmsg:00000000 $d
C:\Users\DNIEL~1\AppData\Local\Temp\cc8JXkoo.s:886    .bss.txmsg:00000000 txmsg
C:\Users\DNIEL~1\AppData\Local\Temp\cc8JXkoo.s:889    .bss.seged:00000000 $d
C:\Users\DNIEL~1\AppData\Local\Temp\cc8JXkoo.s:893    .bss.seged:00000000 seged
C:\Users\DNIEL~1\AppData\Local\Temp\cc8JXkoo.s:896    .bss.can_rx_wa:00000000 $d
C:\Users\DNIEL~1\AppData\Local\Temp\cc8JXkoo.s:900    .bss.can_rx_wa:00000000 can_rx_wa
C:\Users\DNIEL~1\AppData\Local\Temp\cc8JXkoo.s:903    .data.lcitems:00000000 $d
C:\Users\DNIEL~1\AppData\Local\Temp\cc8JXkoo.s:907    .data.lcitems:00000000 lcitems
C:\Users\DNIEL~1\AppData\Local\Temp\cc8JXkoo.s:1229   .rodata.str1.4:00000000 $d
C:\Users\DNIEL~1\AppData\Local\Temp\cc8JXkoo.s:1338   .bss.canstate:00000000 $d
C:\Users\DNIEL~1\AppData\Local\Temp\cc8JXkoo.s:1340   .bss.messages:00000000 $d
C:\Users\DNIEL~1\AppData\Local\Temp\cc8JXkoo.s:1344   .bss.messages:00000000 messages
C:\Users\DNIEL~1\AppData\Local\Temp\cc8JXkoo.s:1347   .bss.rxmsg:00000000 $d
C:\Users\DNIEL~1\AppData\Local\Temp\cc8JXkoo.s:1351   .bss.rxmsg:00000000 rxmsg
C:\Users\DNIEL~1\AppData\Local\Temp\cc8JXkoo.s:1354   .rodata.cancfg:00000000 $d
C:\Users\DNIEL~1\AppData\Local\Temp\cc8JXkoo.s:1358   .rodata.cancfg:00000000 cancfg
                     .debug_frame:00000010 $d
C:\Users\DNIEL~1\AppData\Local\Temp\cc8JXkoo.s:387    .text.can_rx:00000234 $t
C:\Users\DNIEL~1\AppData\Local\Temp\cc8JXkoo.s:434    .text.can_commInit:00000034 $t
C:\Users\DNIEL~1\AppData\Local\Temp\cc8JXkoo.s:521    .text.cmd_can_commvalues:0000007c $t
C:\Users\DNIEL~1\AppData\Local\Temp\cc8JXkoo.s:700    .text.cmd_canmppttest:0000014c $t
C:\Users\DNIEL~1\AppData\Local\Temp\cc8JXkoo.s:874    .text.cmd_candata:0000011c $t

UNDEFINED SYMBOLS
chEvtRegisterMask
chEvtWaitAnyTimeout
canReceive
chEvtUnregister
rlist
CAND1
canStart
chThdCreateStatic
chprintf
chThdSleep
strcmp
atol
