ARM GAS  C:\Users\DNIEL~1\AppData\Local\Temp\cc8JXkoo.s 			page 1


   1              		.syntax unified
   2              		.cpu cortex-m4
   3              		.fpu softvfp
   4              		.eabi_attribute 20, 1
   5              		.eabi_attribute 21, 1
   6              		.eabi_attribute 23, 3
   7              		.eabi_attribute 24, 1
   8              		.eabi_attribute 25, 1
   9              		.eabi_attribute 26, 1
  10              		.eabi_attribute 30, 2
  11              		.eabi_attribute 18, 4
  12              		.thumb
  13              		.file	"can_comm.c"
  20 0000 3F040000 		.text
  20      0200EB02 
  20      00000201 
  20      FB0E0D00 
  20      01010101 
  21              	.Ltext0:
  22              		.cfi_sections	.debug_frame
  23              		.section	.text.can_rx,"ax",%progbits
  24              		.align	2
  25              		.p2align 4,,15
  26              		.thumb
  27              		.thumb_func
  28              		.type	can_rx, %function
  29              	can_rx:
  30              	.LFB118:
  31              		.file 1 "src/can_comm.c"
  32              		.loc 1 85 0
  33              		.cfi_startproc
  34              		@ args = 0, pretend = 0, frame = 16
  35              		@ frame_needed = 0, uses_anonymous_args = 0
  36              	.LVL0:
  37 0000 2DE9F04F 		push	{r4, r5, r6, r7, r8, r9, sl, fp, lr}
  38              	.LCFI0:
  39              		.cfi_def_cfa_offset 36
  40              		.loc 1 91 0
  41 0004 7E4D     		ldr	r5, .L61
  42              		.cfi_offset 14, -4
  43              		.cfi_offset 11, -8
  44              		.cfi_offset 10, -12
  45              		.cfi_offset 9, -16
  46              		.cfi_offset 8, -20
  47              		.cfi_offset 7, -24
  48              		.cfi_offset 6, -28
  49              		.cfi_offset 5, -32
  50              		.cfi_offset 4, -36
  51 0006 7F48     		ldr	r0, .L61+4
  52              	.LVL1:
  53 0008 AC69     		ldr	r4, [r5, #24]
ARM GAS  C:\Users\DNIEL~1\AppData\Local\Temp\cc8JXkoo.s 			page 2


  54              		.loc 1 87 0
  55 000a 7F4A     		ldr	r2, .L61+8
  56              		.loc 1 85 0
  57 000c 7F4B     		ldr	r3, .L61+12
  58              		.loc 1 91 0
  59 000e A061     		str	r0, [r4, #24]
  60              		.loc 1 85 0
  61 0010 85B0     		sub	sp, sp, #20
  62              	.LCFI1:
  63              		.cfi_def_cfa_offset 56
  64              		.loc 1 87 0
  65 0012 0021     		movs	r1, #0
  66 0014 1160     		str	r1, [r2, #0]
  67              		.loc 1 92 0
  68 0016 7E48     		ldr	r0, .L61+16
  69 0018 6946     		mov	r1, sp
  70 001a 0122     		movs	r2, #1
  71              		.loc 1 85 0
  72 001c 03F50054 		add	r4, r3, #8192
  73              		.loc 1 92 0
  74 0020 FFF7FEFF 		bl	chEvtRegisterMask
  75              		.loc 1 85 0
  76 0024 2546     		mov	r5, r4
  77 0026 0A34     		adds	r4, r4, #10
  78              	.L40:
  79              		.loc 1 93 0 discriminator 1
  80 0028 754F     		ldr	r7, .L61
  81 002a B969     		ldr	r1, [r7, #24]
  82 002c 91F81DC0 		ldrb	ip, [r1, #29]	@ zero_extendqisi2
  83 0030 1CF0040F 		tst	ip, #4
  84 0034 54D1     		bne	.L54
  85              	.L18:
  86              		.loc 1 94 0
  87 0036 4FF0FF30 		mov	r0, #-1
  88 003a 6421     		movs	r1, #100
  89 003c FFF7FEFF 		bl	chEvtWaitAnyTimeout
  90 0040 0028     		cmp	r0, #0
  91 0042 F1D0     		beq	.L40
  92              		.loc 1 96 0
  93 0044 7349     		ldr	r1, .L61+20
  94 0046 7448     		ldr	r0, .L61+24
  95 0048 724E     		ldr	r6, .L61+20
  96 004a 0022     		movs	r2, #0
  97 004c FFF7FEFF 		bl	canReceive
  98 0050 0146     		mov	r1, r0
  99 0052 0028     		cmp	r0, #0
 100 0054 E8D1     		bne	.L40
 101              	.L17:
 102              		.loc 1 98 0
 103 0056 B368     		ldr	r3, [r6, #8]
 104 0058 704F     		ldr	r7, .L61+28
 105 005a C3F31C00 		ubfx	r0, r3, #0, #29
 106 005e C0F30F23 		ubfx	r3, r0, #8, #16
 107 0062 3B80     		strh	r3, [r7, #0]	@ movhi
 108              		.loc 1 99 0
 109 0064 6E4F     		ldr	r7, .L61+32
 110              		.loc 1 101 0
ARM GAS  C:\Users\DNIEL~1\AppData\Local\Temp\cc8JXkoo.s 			page 3


 111 0066 A3F1100C 		sub	ip, r3, #16
 112              		.loc 1 99 0
 113 006a C0B2     		uxtb	r0, r0
 114              		.loc 1 101 0
 115 006c 1FFA8CF2 		uxth	r2, ip
 116              		.loc 1 99 0
 117 0070 3880     		strh	r0, [r7, #0]	@ movhi
 118              		.loc 1 104 0
 119 0072 A3F1200E 		sub	lr, r3, #32
 120 0076 6B4F     		ldr	r7, .L61+36
 121              		.loc 1 101 0
 122 0078 0F2A     		cmp	r2, #15
 123              		.loc 1 104 0
 124 007a 1FFA8EFC 		uxth	ip, lr
 125              		.loc 1 102 0
 126 007e 98BF     		it	ls
 127 0080 3970     		strbls	r1, [r7, #0]
 128              		.loc 1 104 0
 129 0082 BCF10F0F 		cmp	ip, #15
 130 0086 01D8     		bhi	.L6
 131              		.loc 1 105 0
 132 0088 0121     		movs	r1, #1
 133 008a 3970     		strb	r1, [r7, #0]
 134              	.L6:
 135              		.loc 1 107 0
 136 008c A3F13002 		sub	r2, r3, #48
 137 0090 1FFA82FE 		uxth	lr, r2
 138 0094 BEF10F0F 		cmp	lr, #15
 139 0098 01D8     		bhi	.L7
 140              		.loc 1 108 0
 141 009a 0221     		movs	r1, #2
 142 009c 3970     		strb	r1, [r7, #0]
 143              	.L7:
 144              		.loc 1 110 0
 145 009e A3F1400E 		sub	lr, r3, #64
 146 00a2 1FFA8EFC 		uxth	ip, lr
 147 00a6 BCF11F0F 		cmp	ip, #31
 148 00aa 08D8     		bhi	.L52
 149              		.loc 1 111 0
 150 00ac 0322     		movs	r2, #3
 151              		.loc 1 133 0
 152 00ae 0128     		cmp	r0, #1
 153              		.loc 1 111 0
 154 00b0 3A70     		strb	r2, [r7, #0]
 155              		.loc 1 133 0
 156 00b2 1DD0     		beq	.L55
 157              		.loc 1 147 0
 158 00b4 0228     		cmp	r0, #2
 159 00b6 65D0     		beq	.L56
 160              	.L14:
 161              		.loc 1 156 0
 162 00b8 534A     		ldr	r2, .L61+8
 163 00ba 0823     		movs	r3, #8
 164 00bc 1360     		str	r3, [r2, #0]
 165              	.L52:
 166              		.loc 1 157 0
 167 00be 0420     		movs	r0, #4
ARM GAS  C:\Users\DNIEL~1\AppData\Local\Temp\cc8JXkoo.s 			page 4


 168 00c0 3870     		strb	r0, [r7, #0]
 169              		.loc 1 96 0
 170 00c2 5449     		ldr	r1, .L61+20
 171 00c4 5448     		ldr	r0, .L61+24
 172 00c6 0022     		movs	r2, #0
 173 00c8 FFF7FEFF 		bl	canReceive
 174 00cc 0146     		mov	r1, r0
 175 00ce 0028     		cmp	r0, #0
 176 00d0 C1D0     		beq	.L17
 177              		.loc 1 93 0
 178 00d2 4B4F     		ldr	r7, .L61
 179 00d4 B969     		ldr	r1, [r7, #24]
 180 00d6 91F81DC0 		ldrb	ip, [r1, #29]	@ zero_extendqisi2
 181 00da 1CF0040F 		tst	ip, #4
 182 00de AAD0     		beq	.L18
 183              	.L54:
 184              		.loc 1 168 0
 185 00e0 4B48     		ldr	r0, .L61+16
 186 00e2 6946     		mov	r1, sp
 187 00e4 FFF7FEFF 		bl	chEvtUnregister
 188              		.loc 1 170 0
 189 00e8 0020     		movs	r0, #0
 190 00ea 05B0     		add	sp, sp, #20
 191 00ec BDE8F08F 		pop	{r4, r5, r6, r7, r8, r9, sl, fp, pc}
 192              	.L55:
 193              		.loc 1 135 0
 194 00f0 4D49     		ldr	r1, .L61+40
 195              		.loc 1 137 0
 196 00f2 484A     		ldr	r2, .L61+20
 197              		.loc 1 135 0
 198 00f4 51F80A1C 		ldr	r1, [r1, #-10]
 199              		.loc 1 137 0
 200 00f8 92F80CE0 		ldrb	lr, [r2, #12]	@ zero_extendqisi2
 201              		.loc 1 138 0
 202 00fc 92F80DC0 		ldrb	ip, [r2, #13]	@ zero_extendqisi2
 203              		.loc 1 139 0
 204 0100 92F80E80 		ldrb	r8, [r2, #14]	@ zero_extendqisi2
 205              		.loc 1 140 0
 206 0104 92F80F90 		ldrb	r9, [r2, #15]	@ zero_extendqisi2
 207              		.loc 1 141 0
 208 0108 B2F810A0 		ldrh	sl, [r2, #16]
 209              		.loc 1 142 0
 210 010c B2F812B0 		ldrh	fp, [r2, #18]
 211 0110 454A     		ldr	r2, .L61+40
 212              		.loc 1 135 0
 213 0112 9942     		cmp	r1, r3
 214 0114 5AD0     		beq	.L57
 215              	.L23:
 216              		.loc 1 142 0
 217 0116 454A     		ldr	r2, .L61+44
 218 0118 88B1     		cbz	r0, .L13
 219              		.loc 1 135 0
 220 011a 52F80A0C 		ldr	r0, [r2, #-10]
 221 011e 9842     		cmp	r0, r3
 222 0120 61D0     		beq	.L58
 223              	.L25:
 224              	.LVL2:
ARM GAS  C:\Users\DNIEL~1\AppData\Local\Temp\cc8JXkoo.s 			page 5


 225              		.loc 1 142 0
 226 0122 1032     		adds	r2, r2, #16
 227              		.loc 1 134 0
 228 0124 A242     		cmp	r2, r4
 229 0126 0AD1     		bne	.L13
 230 0128 C6E7     		b	.L14
 231              	.L12:
 232              		.loc 1 142 0
 233 012a 02F11001 		add	r1, r2, #16
 234              		.loc 1 135 0
 235 012e 51F80A0C 		ldr	r0, [r1, #-10]
 236 0132 9842     		cmp	r0, r3
 237 0134 19D0     		beq	.L59
 238              	.L28:
 239              		.loc 1 142 0
 240 0136 01F11002 		add	r2, r1, #16
 241              		.loc 1 134 0
 242 013a A242     		cmp	r2, r4
 243 013c BCD0     		beq	.L14
 244              	.L13:
 245              		.loc 1 135 0
 246 013e 52F80A0C 		ldr	r0, [r2, #-10]
 247 0142 9842     		cmp	r0, r3
 248 0144 F1D1     		bne	.L12
 249              		.loc 1 142 0
 250 0146 02F11001 		add	r1, r2, #16
 251              		.loc 1 137 0
 252 014a 02F806EC 		strb	lr, [r2, #-6]
 253              		.loc 1 135 0
 254 014e 51F80A0C 		ldr	r0, [r1, #-10]
 255              		.loc 1 138 0
 256 0152 02F805CC 		strb	ip, [r2, #-5]
 257              		.loc 1 135 0
 258 0156 9842     		cmp	r0, r3
 259              		.loc 1 139 0
 260 0158 02F8048C 		strb	r8, [r2, #-4]
 261              		.loc 1 140 0
 262 015c 02F8039C 		strb	r9, [r2, #-3]
 263              		.loc 1 141 0
 264 0160 A2F800A0 		strh	sl, [r2, #0]	@ movhi
 265              		.loc 1 142 0
 266 0164 A2F802B0 		strh	fp, [r2, #2]	@ movhi
 267              		.loc 1 135 0
 268 0168 E5D1     		bne	.L28
 269              	.L59:
 270              		.loc 1 137 0
 271 016a 01F806EC 		strb	lr, [r1, #-6]
 272              		.loc 1 138 0
 273 016e 01F805CC 		strb	ip, [r1, #-5]
 274              		.loc 1 139 0
 275 0172 01F8048C 		strb	r8, [r1, #-4]
 276              		.loc 1 140 0
 277 0176 01F8039C 		strb	r9, [r1, #-3]
 278              		.loc 1 141 0
 279 017a A2F810A0 		strh	sl, [r2, #16]	@ movhi
 280              		.loc 1 142 0
 281 017e A1F802B0 		strh	fp, [r1, #2]	@ movhi
ARM GAS  C:\Users\DNIEL~1\AppData\Local\Temp\cc8JXkoo.s 			page 6


 282 0182 D8E7     		b	.L28
 283              	.L56:
 284              		.loc 1 149 0
 285 0184 2148     		ldr	r0, .L61+12
 286              		.loc 1 151 0
 287 0186 2349     		ldr	r1, .L61+20
 288              		.loc 1 149 0
 289 0188 0268     		ldr	r2, [r0, #0]
 290              		.loc 1 152 0
 291 018a B1F80EE0 		ldrh	lr, [r1, #14]
 292              		.loc 1 151 0
 293 018e 087B     		ldrb	r0, [r1, #12]	@ zero_extendqisi2
 294              		.loc 1 152 0
 295 0190 1E49     		ldr	r1, .L61+12
 296              		.loc 1 149 0
 297 0192 9342     		cmp	r3, r2
 298 0194 16D0     		beq	.L60
 299              	.L30:
 300 0196 0121     		movs	r1, #1
 301              		.loc 1 152 0
 302 0198 254A     		ldr	r2, .L61+48
 303 019a 29B1     		cbz	r1, .L16
 304              		.loc 1 149 0
 305 019c 1168     		ldr	r1, [r2, #0]
 306 019e 8B42     		cmp	r3, r1
 307 01a0 0CD0     		beq	.L47
 308              	.L35:
 309              		.loc 1 152 0
 310 01a2 1032     		adds	r2, r2, #16
 311              		.loc 1 148 0
 312 01a4 AA42     		cmp	r2, r5
 313 01a6 87D0     		beq	.L14
 314              	.L16:
 315              		.loc 1 149 0
 316 01a8 1168     		ldr	r1, [r2, #0]
 317 01aa 8B42     		cmp	r3, r1
 318 01ac 1169     		ldr	r1, [r2, #16]
 319              		.loc 1 151 0
 320 01ae 04BF     		itt	eq
 321 01b0 1072     		strbeq	r0, [r2, #8]
 322              		.loc 1 152 0
 323 01b2 A2F80EE0 		strheq	lr, [r2, #14]	@ movhi
 324 01b6 1032     		adds	r2, r2, #16
 325              		.loc 1 149 0
 326 01b8 8B42     		cmp	r3, r1
 327 01ba F2D1     		bne	.L35
 328              	.L47:
 329              		.loc 1 151 0
 330 01bc 1072     		strb	r0, [r2, #8]
 331              		.loc 1 152 0
 332 01be A2F80EE0 		strh	lr, [r2, #14]	@ movhi
 333 01c2 EEE7     		b	.L35
 334              	.L60:
 335              		.loc 1 151 0
 336 01c4 0872     		strb	r0, [r1, #8]
 337              		.loc 1 152 0
 338 01c6 A1F80EE0 		strh	lr, [r1, #14]	@ movhi
ARM GAS  C:\Users\DNIEL~1\AppData\Local\Temp\cc8JXkoo.s 			page 7


 339 01ca E4E7     		b	.L30
 340              	.L57:
 341              		.loc 1 137 0
 342 01cc 02F806EC 		strb	lr, [r2, #-6]
 343              		.loc 1 138 0
 344 01d0 02F805CC 		strb	ip, [r2, #-5]
 345              		.loc 1 139 0
 346 01d4 02F8048C 		strb	r8, [r2, #-4]
 347              		.loc 1 140 0
 348 01d8 02F8039C 		strb	r9, [r2, #-3]
 349              		.loc 1 141 0
 350 01dc A2F800A0 		strh	sl, [r2, #0]	@ movhi
 351              		.loc 1 142 0
 352 01e0 A2F802B0 		strh	fp, [r2, #2]	@ movhi
 353 01e4 97E7     		b	.L23
 354              	.L58:
 355              		.loc 1 137 0
 356 01e6 02F806EC 		strb	lr, [r2, #-6]
 357              		.loc 1 138 0
 358 01ea 02F805CC 		strb	ip, [r2, #-5]
 359              		.loc 1 139 0
 360 01ee 02F8048C 		strb	r8, [r2, #-4]
 361              		.loc 1 140 0
 362 01f2 02F8039C 		strb	r9, [r2, #-3]
 363              		.loc 1 141 0
 364 01f6 A2F800A0 		strh	sl, [r2, #0]	@ movhi
 365              		.loc 1 142 0
 366 01fa A2F802B0 		strh	fp, [r2, #2]	@ movhi
 367 01fe 90E7     		b	.L25
 368              	.L62:
 369              		.align	2
 370              	.L61:
 371 0200 00000000 		.word	rlist
 372 0204 00000000 		.word	.LC0
 373 0208 00000000 		.word	.LANCHOR0
 374 020c 00000000 		.word	.LANCHOR5
 375 0210 20000000 		.word	CAND1+32
 376 0214 00000000 		.word	.LANCHOR1
 377 0218 00000000 		.word	CAND1
 378 021c 00000000 		.word	.LANCHOR2
 379 0220 00000000 		.word	.LANCHOR3
 380 0224 00000000 		.word	.LANCHOR4
 381 0228 0A000000 		.word	.LANCHOR5+10
 382 022c 1A000000 		.word	.LANCHOR5+26
 383 0230 10000000 		.word	.LANCHOR5+16
 384              		.cfi_endproc
 385              	.LFE118:
 386              		.size	can_rx, .-can_rx
 387 0234 AFF30080 		.section	.text.can_commInit,"ax",%progbits
 387      AFF30080 
 387      AFF30080 
 388              		.align	2
 389              		.p2align 4,,15
 390              		.global	can_commInit
 391              		.thumb
 392              		.thumb_func
 393              		.type	can_commInit, %function
ARM GAS  C:\Users\DNIEL~1\AppData\Local\Temp\cc8JXkoo.s 			page 8


 394              	can_commInit:
 395              	.LFB120:
 396              		.loc 1 209 0
 397              		.cfi_startproc
 398              		@ args = 0, pretend = 0, frame = 0
 399              		@ frame_needed = 0, uses_anonymous_args = 0
 400 0000 00B5     		push	{lr}
 401              	.LCFI2:
 402              		.cfi_def_cfa_offset 4
 403              		.loc 1 210 0
 404 0002 0848     		ldr	r0, .L64
 405 0004 0849     		ldr	r1, .L64+4
 406              		.loc 1 209 0
 407 0006 83B0     		sub	sp, sp, #12
 408              	.LCFI3:
 409              		.cfi_def_cfa_offset 16
 410              		.loc 1 210 0
 411              		.cfi_offset 14, -4
 412 0008 FFF7FEFF 		bl	canStart
 413              		.loc 1 211 0
 414 000c 0022     		movs	r2, #0
 415 000e 0092     		str	r2, [sp, #0]
 416 0010 064B     		ldr	r3, .L64+8
 417 0012 0748     		ldr	r0, .L64+12
 418 0014 4FF4D871 		mov	r1, #432
 419 0018 4722     		movs	r2, #71
 420 001a FFF7FEFF 		bl	chThdCreateStatic
 421              		.loc 1 213 0
 422 001e 03B0     		add	sp, sp, #12
 423 0020 00BD     		pop	{pc}
 424              	.L65:
 425 0022 00BF     		.align	2
 426              	.L64:
 427 0024 00000000 		.word	CAND1
 428 0028 00000000 		.word	.LANCHOR6
 429 002c 00000000 		.word	can_rx
 430 0030 00000000 		.word	.LANCHOR7
 431              		.cfi_endproc
 432              	.LFE120:
 433              		.size	can_commInit, .-can_commInit
 434 0034 AFF30080 		.section	.text.cmd_can_commvalues,"ax",%progbits
 434      AFF30080 
 434      AFF30080 
 435              		.align	2
 436              		.p2align 4,,15
 437              		.global	cmd_can_commvalues
 438              		.thumb
 439              		.thumb_func
 440              		.type	cmd_can_commvalues, %function
 441              	cmd_can_commvalues:
 442              	.LFB121:
 443              		.loc 1 215 0
 444              		.cfi_startproc
 445              		@ args = 0, pretend = 0, frame = 0
 446              		@ frame_needed = 0, uses_anonymous_args = 0
 447              	.LVL3:
 448 0000 38B5     		push	{r3, r4, r5, lr}
ARM GAS  C:\Users\DNIEL~1\AppData\Local\Temp\cc8JXkoo.s 			page 9


 449              	.LCFI4:
 450              		.cfi_def_cfa_offset 16
 451              		.loc 1 219 0
 452 0002 1749     		ldr	r1, .L69
 453              	.LVL4:
 454              		.loc 1 223 0
 455 0004 174D     		ldr	r5, .L69+4
 456              		.cfi_offset 14, -4
 457              		.cfi_offset 5, -8
 458              		.cfi_offset 4, -12
 459              		.cfi_offset 3, -16
 460              		.loc 1 215 0
 461 0006 0446     		mov	r4, r0
 462              		.loc 1 219 0
 463 0008 FFF7FEFF 		bl	chprintf
 464              	.LVL5:
 465              		.loc 1 220 0
 466 000c 2046     		mov	r0, r4
 467 000e 1649     		ldr	r1, .L69+8
 468 0010 FFF7FEFF 		bl	chprintf
 469              		.loc 1 221 0
 470 0014 1AE0     		b	.L67
 471              	.L68:
 472              		.loc 1 222 0
 473 0016 0022     		movs	r2, #0
 474 0018 1346     		mov	r3, r2
 475 001a 2046     		mov	r0, r4
 476 001c 1349     		ldr	r1, .L69+12
 477 001e FFF7FEFF 		bl	chprintf
 478              		.loc 1 223 0
 479 0022 6A68     		ldr	r2, [r5, #4]
 480 0024 1249     		ldr	r1, .L69+16
 481 0026 22F06042 		bic	r2, r2, #-536870912
 482 002a 2046     		mov	r0, r4
 483 002c FFF7FEFF 		bl	chprintf
 484              		.loc 1 224 0
 485 0030 2046     		mov	r0, r4
 486 0032 1049     		ldr	r1, .L69+20
 487 0034 AA68     		ldr	r2, [r5, #8]
 488 0036 FFF7FEFF 		bl	chprintf
 489              		.loc 1 225 0
 490 003a 2046     		mov	r0, r4
 491 003c 0E49     		ldr	r1, .L69+24
 492 003e EA68     		ldr	r2, [r5, #12]
 493 0040 FFF7FEFF 		bl	chprintf
 494              		.loc 1 227 0
 495 0044 4FF47A70 		mov	r0, #1000
 496 0048 FFF7FEFF 		bl	chThdSleep
 497              	.L67:
 498              		.loc 1 221 0 discriminator 1
 499 004c 2168     		ldr	r1, [r4, #0]
 500 004e 2046     		mov	r0, r4
 501 0050 4B69     		ldr	r3, [r1, #20]
 502 0052 0021     		movs	r1, #0
 503 0054 9847     		blx	r3
 504 0056 B0F1FF3F 		cmp	r0, #-1
 505 005a DCD0     		beq	.L68
ARM GAS  C:\Users\DNIEL~1\AppData\Local\Temp\cc8JXkoo.s 			page 10


 506              		.loc 1 229 0
 507 005c 38BD     		pop	{r3, r4, r5, pc}
 508              	.L70:
 509 005e 00BF     		.align	2
 510              	.L69:
 511 0060 0C000000 		.word	.LC1
 512 0064 00000000 		.word	.LANCHOR8
 513 0068 10000000 		.word	.LC2
 514 006c 18000000 		.word	.LC3
 515 0070 24000000 		.word	.LC4
 516 0074 34000000 		.word	.LC5
 517 0078 48000000 		.word	.LC6
 518              		.cfi_endproc
 519              	.LFE121:
 520              		.size	cmd_can_commvalues, .-cmd_can_commvalues
 521 007c AFF30080 		.section	.text.cmd_canmppttest,"ax",%progbits
 522              		.align	2
 523              		.p2align 4,,15
 524              		.global	cmd_canmppttest
 525              		.thumb
 526              		.thumb_func
 527              		.type	cmd_canmppttest, %function
 528              	cmd_canmppttest:
 529              	.LFB122:
 530              		.loc 1 231 0
 531              		.cfi_startproc
 532              		@ args = 0, pretend = 0, frame = 0
 533              		@ frame_needed = 0, uses_anonymous_args = 0
 534              	.LVL6:
 535 0000 F8B5     		push	{r3, r4, r5, r6, r7, lr}
 536              	.LCFI5:
 537              		.cfi_def_cfa_offset 24
 538              		.loc 1 235 0
 539 0002 3A49     		ldr	r1, .L74
 540              	.LVL7:
 541              		.loc 1 241 0
 542 0004 3A4E     		ldr	r6, .L74+4
 543              		.cfi_offset 14, -4
 544              		.cfi_offset 7, -8
 545              		.cfi_offset 6, -12
 546              		.cfi_offset 5, -16
 547              		.cfi_offset 4, -20
 548              		.cfi_offset 3, -24
 549              		.loc 1 249 0
 550 0006 3B4D     		ldr	r5, .L74+8
 551              		.loc 1 257 0
 552 0008 3B4F     		ldr	r7, .L74+12
 553              		.loc 1 231 0
 554 000a 0446     		mov	r4, r0
 555              		.loc 1 235 0
 556 000c FFF7FEFF 		bl	chprintf
 557              	.LVL8:
 558              		.loc 1 236 0
 559 0010 2046     		mov	r0, r4
 560 0012 3A49     		ldr	r1, .L74+16
 561 0014 FFF7FEFF 		bl	chprintf
 562              		.loc 1 237 0
ARM GAS  C:\Users\DNIEL~1\AppData\Local\Temp\cc8JXkoo.s 			page 11


 563 0018 5FE0     		b	.L72
 564              	.L73:
 565              		.loc 1 238 0
 566 001a 0022     		movs	r2, #0
 567 001c 1346     		mov	r3, r2
 568 001e 3849     		ldr	r1, .L74+20
 569 0020 2046     		mov	r0, r4
 570 0022 FFF7FEFF 		bl	chprintf
 571              		.loc 1 240 0
 572 0026 2046     		mov	r0, r4
 573 0028 3649     		ldr	r1, .L74+24
 574 002a FFF7FEFF 		bl	chprintf
 575              		.loc 1 241 0
 576 002e 7368     		ldr	r3, [r6, #4]
 577 0030 3549     		ldr	r1, .L74+28
 578 0032 23F06042 		bic	r2, r3, #-536870912
 579 0036 2046     		mov	r0, r4
 580 0038 FFF7FEFF 		bl	chprintf
 581              		.loc 1 242 0
 582 003c 2046     		mov	r0, r4
 583 003e 3349     		ldr	r1, .L74+32
 584 0040 B268     		ldr	r2, [r6, #8]
 585 0042 FFF7FEFF 		bl	chprintf
 586              		.loc 1 243 0
 587 0046 F268     		ldr	r2, [r6, #12]
 588 0048 3149     		ldr	r1, .L74+36
 589 004a 2046     		mov	r0, r4
 590 004c FFF7FEFF 		bl	chprintf
 591              		.loc 1 244 0
 592 0050 2046     		mov	r0, r4
 593 0052 3049     		ldr	r1, .L74+40
 594 0054 FFF7FEFF 		bl	chprintf
 595              		.loc 1 248 0
 596 0058 2046     		mov	r0, r4
 597 005a 2F49     		ldr	r1, .L74+44
 598 005c FFF7FEFF 		bl	chprintf
 599              		.loc 1 249 0
 600 0060 AA68     		ldr	r2, [r5, #8]
 601 0062 2E49     		ldr	r1, .L74+48
 602 0064 22F06042 		bic	r2, r2, #-536870912
 603 0068 2046     		mov	r0, r4
 604 006a FFF7FEFF 		bl	chprintf
 605              		.loc 1 250 0
 606 006e 2046     		mov	r0, r4
 607 0070 2B49     		ldr	r1, .L74+52
 608 0072 2A7B     		ldrb	r2, [r5, #12]	@ zero_extendqisi2
 609 0074 FFF7FEFF 		bl	chprintf
 610              		.loc 1 251 0
 611 0078 2046     		mov	r0, r4
 612 007a 2A49     		ldr	r1, .L74+56
 613 007c 6A7B     		ldrb	r2, [r5, #13]	@ zero_extendqisi2
 614 007e FFF7FEFF 		bl	chprintf
 615              		.loc 1 252 0
 616 0082 2046     		mov	r0, r4
 617 0084 2849     		ldr	r1, .L74+60
 618 0086 AA7B     		ldrb	r2, [r5, #14]	@ zero_extendqisi2
 619 0088 FFF7FEFF 		bl	chprintf
ARM GAS  C:\Users\DNIEL~1\AppData\Local\Temp\cc8JXkoo.s 			page 12


 620              		.loc 1 253 0
 621 008c 2046     		mov	r0, r4
 622 008e 2749     		ldr	r1, .L74+64
 623 0090 EA7B     		ldrb	r2, [r5, #15]	@ zero_extendqisi2
 624 0092 FFF7FEFF 		bl	chprintf
 625              		.loc 1 254 0
 626 0096 2046     		mov	r0, r4
 627 0098 2549     		ldr	r1, .L74+68
 628 009a 2A8A     		ldrh	r2, [r5, #16]
 629 009c FFF7FEFF 		bl	chprintf
 630              		.loc 1 255 0
 631 00a0 6A8A     		ldrh	r2, [r5, #18]
 632 00a2 2449     		ldr	r1, .L74+72
 633 00a4 2046     		mov	r0, r4
 634 00a6 FFF7FEFF 		bl	chprintf
 635              		.loc 1 256 0
 636 00aa 2046     		mov	r0, r4
 637 00ac 1949     		ldr	r1, .L74+40
 638 00ae FFF7FEFF 		bl	chprintf
 639              		.loc 1 257 0
 640 00b2 2046     		mov	r0, r4
 641 00b4 2049     		ldr	r1, .L74+76
 642 00b6 3A68     		ldr	r2, [r7, #0]
 643 00b8 FFF7FEFF 		bl	chprintf
 644              		.loc 1 258 0
 645 00bc 1F48     		ldr	r0, .L74+80
 646 00be 2049     		ldr	r1, .L74+84
 647 00c0 0288     		ldrh	r2, [r0, #0]
 648 00c2 2046     		mov	r0, r4
 649 00c4 FFF7FEFF 		bl	chprintf
 650              		.loc 1 259 0
 651 00c8 1E4B     		ldr	r3, .L74+88
 652 00ca 1F49     		ldr	r1, .L74+92
 653 00cc 1A88     		ldrh	r2, [r3, #0]
 654 00ce 2046     		mov	r0, r4
 655 00d0 FFF7FEFF 		bl	chprintf
 656              		.loc 1 261 0
 657 00d4 FA20     		movs	r0, #250
 658 00d6 FFF7FEFF 		bl	chThdSleep
 659              	.L72:
 660              		.loc 1 237 0 discriminator 1
 661 00da 2168     		ldr	r1, [r4, #0]
 662 00dc 2046     		mov	r0, r4
 663 00de 4A69     		ldr	r2, [r1, #20]
 664 00e0 0021     		movs	r1, #0
 665 00e2 9047     		blx	r2
 666 00e4 B0F1FF3F 		cmp	r0, #-1
 667 00e8 97D0     		beq	.L73
 668              		.loc 1 263 0
 669 00ea F8BD     		pop	{r3, r4, r5, r6, r7, pc}
 670              	.L75:
 671              		.align	2
 672              	.L74:
 673 00ec 0C000000 		.word	.LC1
 674 00f0 00000000 		.word	.LANCHOR8
 675 00f4 00000000 		.word	.LANCHOR1
 676 00f8 00000000 		.word	.LANCHOR0
ARM GAS  C:\Users\DNIEL~1\AppData\Local\Temp\cc8JXkoo.s 			page 13


 677 00fc 10000000 		.word	.LC2
 678 0100 18000000 		.word	.LC3
 679 0104 5C000000 		.word	.LC7
 680 0108 84000000 		.word	.LC8
 681 010c A4000000 		.word	.LC9
 682 0110 C4000000 		.word	.LC10
 683 0114 E4000000 		.word	.LC11
 684 0118 E8000000 		.word	.LC12
 685 011c 10010000 		.word	.LC13
 686 0120 30010000 		.word	.LC14
 687 0124 50010000 		.word	.LC15
 688 0128 70010000 		.word	.LC16
 689 012c 90010000 		.word	.LC17
 690 0130 B0010000 		.word	.LC18
 691 0134 D0010000 		.word	.LC19
 692 0138 F0010000 		.word	.LC20
 693 013c 00000000 		.word	.LANCHOR2
 694 0140 10020000 		.word	.LC21
 695 0144 00000000 		.word	.LANCHOR3
 696 0148 30020000 		.word	.LC22
 697              		.cfi_endproc
 698              	.LFE122:
 699              		.size	cmd_canmppttest, .-cmd_canmppttest
 700 014c AFF30080 		.section	.text.cmd_candata,"ax",%progbits
 701              		.align	2
 702              		.p2align 4,,15
 703              		.global	cmd_candata
 704              		.thumb
 705              		.thumb_func
 706              		.type	cmd_candata, %function
 707              	cmd_candata:
 708              	.LFB123:
 709              		.loc 1 265 0
 710              		.cfi_startproc
 711              		@ args = 0, pretend = 0, frame = 0
 712              		@ frame_needed = 0, uses_anonymous_args = 0
 713              	.LVL9:
 714 0000 2DE9F041 		push	{r4, r5, r6, r7, r8, lr}
 715              	.LCFI6:
 716              		.cfi_def_cfa_offset 24
 717              		.loc 1 265 0
 718 0004 0446     		mov	r4, r0
 719              		.cfi_offset 14, -4
 720              		.cfi_offset 8, -8
 721              		.cfi_offset 7, -12
 722              		.cfi_offset 6, -16
 723              		.cfi_offset 5, -20
 724              		.cfi_offset 4, -24
 725 0006 0D46     		mov	r5, r1
 726              		.loc 1 272 0
 727 0008 3449     		ldr	r1, .L81
 728              	.LVL10:
 729              		.loc 1 265 0
 730 000a 1646     		mov	r6, r2
 731              		.loc 1 272 0
 732 000c FFF7FEFF 		bl	chprintf
 733              	.LVL11:
ARM GAS  C:\Users\DNIEL~1\AppData\Local\Temp\cc8JXkoo.s 			page 14


 734              		.loc 1 273 0
 735 0010 2046     		mov	r0, r4
 736 0012 3349     		ldr	r1, .L81+4
 737 0014 FFF7FEFF 		bl	chprintf
 738              		.loc 1 274 0
 739 0018 2168     		ldr	r1, [r4, #0]
 740 001a 2046     		mov	r0, r4
 741 001c 4B69     		ldr	r3, [r1, #20]
 742 001e 0021     		movs	r1, #0
 743 0020 9847     		blx	r3
 744 0022 B0F1FF3F 		cmp	r0, #-1
 745 0026 01D0     		beq	.L79
 746 0028 BDE8F081 		pop	{r4, r5, r6, r7, r8, pc}
 747              	.L79:
 748              	.LBB2:
 749              		.loc 1 275 0
 750 002c 0022     		movs	r2, #0
 751 002e 2046     		mov	r0, r4
 752 0030 2C49     		ldr	r1, .L81+8
 753 0032 1346     		mov	r3, r2
 754 0034 FFF7FEFF 		bl	chprintf
 755              		.loc 1 277 0
 756 0038 022D     		cmp	r5, #2
 757 003a 04D1     		bne	.L78
 758              		.loc 1 277 0 is_stmt 0 discriminator 1
 759 003c 3068     		ldr	r0, [r6, #0]
 760 003e 2A49     		ldr	r1, .L81+12
 761 0040 FFF7FEFF 		bl	strcmp
 762 0044 28B1     		cbz	r0, .L80
 763              	.L78:
 764              		.loc 1 294 0 is_stmt 1
 765 0046 2949     		ldr	r1, .L81+16
 766 0048 2046     		mov	r0, r4
 767              	.LBE2:
 768              		.loc 1 300 0
 769 004a BDE8F041 		pop	{r4, r5, r6, r7, r8, lr}
 770              	.LBB3:
 771              		.loc 1 294 0
 772 004e FFF7FEBF 		b	chprintf
 773              	.L80:
 774              		.loc 1 279 0
 775 0052 7068     		ldr	r0, [r6, #4]
 776 0054 FFF7FEFF 		bl	atol
 777              	.LVL12:
 778              		.loc 1 281 0
 779 0058 05B2     		sxth	r5, r0
 780              	.LVL13:
 781 005a 2A46     		mov	r2, r5
 782 005c 2046     		mov	r0, r4
 783              	.LVL14:
 784 005e 2023     		movs	r3, #32
 785 0060 2349     		ldr	r1, .L81+20
 786 0062 FFF7FEFF 		bl	chprintf
 787              		.loc 1 282 0
 788 0066 2348     		ldr	r0, .L81+24
 789 0068 2349     		ldr	r1, .L81+28
 790 006a 2B01     		lsls	r3, r5, #4
ARM GAS  C:\Users\DNIEL~1\AppData\Local\Temp\cc8JXkoo.s 			page 15


 791 006c C618     		adds	r6, r0, r3
 792              	.LVL15:
 793 006e 2A46     		mov	r2, r5
 794 0070 C358     		ldr	r3, [r0, r3]
 795 0072 2046     		mov	r0, r4
 796 0074 FFF7FEFF 		bl	chprintf
 797              		.loc 1 283 0
 798 0078 2046     		mov	r0, r4
 799 007a 3379     		ldrb	r3, [r6, #4]	@ zero_extendqisi2
 800 007c 1F49     		ldr	r1, .L81+32
 801 007e 2A46     		mov	r2, r5
 802 0080 FFF7FEFF 		bl	chprintf
 803              		.loc 1 284 0
 804 0084 2046     		mov	r0, r4
 805 0086 7379     		ldrb	r3, [r6, #5]	@ zero_extendqisi2
 806 0088 1D49     		ldr	r1, .L81+36
 807 008a 2A46     		mov	r2, r5
 808 008c FFF7FEFF 		bl	chprintf
 809              		.loc 1 285 0
 810 0090 2046     		mov	r0, r4
 811 0092 B379     		ldrb	r3, [r6, #6]	@ zero_extendqisi2
 812 0094 1B49     		ldr	r1, .L81+40
 813 0096 2A46     		mov	r2, r5
 814 0098 FFF7FEFF 		bl	chprintf
 815              		.loc 1 286 0
 816 009c 2046     		mov	r0, r4
 817 009e F379     		ldrb	r3, [r6, #7]	@ zero_extendqisi2
 818 00a0 1949     		ldr	r1, .L81+44
 819 00a2 2A46     		mov	r2, r5
 820 00a4 FFF7FEFF 		bl	chprintf
 821              		.loc 1 287 0
 822 00a8 337A     		ldrb	r3, [r6, #8]	@ zero_extendqisi2
 823 00aa 1849     		ldr	r1, .L81+48
 824 00ac 2A46     		mov	r2, r5
 825 00ae 2046     		mov	r0, r4
 826 00b0 FFF7FEFF 		bl	chprintf
 827              		.loc 1 288 0
 828 00b4 2046     		mov	r0, r4
 829 00b6 7389     		ldrh	r3, [r6, #10]
 830 00b8 1549     		ldr	r1, .L81+52
 831 00ba 2A46     		mov	r2, r5
 832 00bc FFF7FEFF 		bl	chprintf
 833              		.loc 1 289 0
 834 00c0 2046     		mov	r0, r4
 835 00c2 B389     		ldrh	r3, [r6, #12]
 836 00c4 1349     		ldr	r1, .L81+56
 837 00c6 2A46     		mov	r2, r5
 838 00c8 FFF7FEFF 		bl	chprintf
 839              		.loc 1 290 0
 840 00cc 1249     		ldr	r1, .L81+60
 841 00ce F389     		ldrh	r3, [r6, #14]
 842 00d0 2046     		mov	r0, r4
 843 00d2 2A46     		mov	r2, r5
 844              	.LBE3:
 845              		.loc 1 300 0
 846 00d4 BDE8F041 		pop	{r4, r5, r6, r7, r8, lr}
 847              	.LBB4:
ARM GAS  C:\Users\DNIEL~1\AppData\Local\Temp\cc8JXkoo.s 			page 16


 848              		.loc 1 290 0
 849 00d8 FFF7FEBF 		b	chprintf
 850              	.L82:
 851              		.align	2
 852              	.L81:
 853 00dc 0C000000 		.word	.LC1
 854 00e0 10000000 		.word	.LC2
 855 00e4 18000000 		.word	.LC3
 856 00e8 50020000 		.word	.LC23
 857 00ec 14040000 		.word	.LC34
 858 00f0 54020000 		.word	.LC24
 859 00f4 00000000 		.word	.LANCHOR5
 860 00f8 88020000 		.word	.LC25
 861 00fc B4020000 		.word	.LC26
 862 0100 E0020000 		.word	.LC27
 863 0104 0C030000 		.word	.LC28
 864 0108 38030000 		.word	.LC29
 865 010c 64030000 		.word	.LC30
 866 0110 90030000 		.word	.LC31
 867 0114 BC030000 		.word	.LC32
 868 0118 E8030000 		.word	.LC33
 869              	.LBE4:
 870              		.cfi_endproc
 871              	.LFE123:
 872              		.size	cmd_candata, .-cmd_candata
 873              		.global	canstate
 874 011c AFF30080 		.section	.bss.id,"aw",%nobits
 875              		.align	1
 876              		.set	.LANCHOR2,. + 0
 877              		.type	id, %object
 878              		.size	id, 2
 879              	id:
 880 0000 0000     		.space	2
 881              		.section	.bss.txmsg,"aw",%nobits
 882              		.align	2
 883              		.set	.LANCHOR8,. + 0
 884              		.type	txmsg, %object
 885              		.size	txmsg, 16
 886              	txmsg:
 887 0000 00000000 		.space	16
 887      00000000 
 887      00000000 
 887      00000000 
 888              		.section	.bss.seged,"aw",%nobits
 889              		.align	2
 890              		.set	.LANCHOR0,. + 0
 891              		.type	seged, %object
 892              		.size	seged, 4
 893              	seged:
 894 0000 00000000 		.space	4
 895              		.section	.bss.can_rx_wa,"aw",%nobits
 896              		.align	3
 897              		.set	.LANCHOR7,. + 0
 898              		.type	can_rx_wa, %object
 899              		.size	can_rx_wa, 432
 900              	can_rx_wa:
 901 0000 00000000 		.space	432
ARM GAS  C:\Users\DNIEL~1\AppData\Local\Temp\cc8JXkoo.s 			page 17


 901      00000000 
 901      00000000 
 901      00000000 
 901      00000000 
 902              		.section	.data.lcitems,"aw",%progbits
 903              		.align	2
 904              		.set	.LANCHOR5,. + 0
 905              		.type	lcitems, %object
 906              		.size	lcitems, 512
 907              	lcitems:
 908 0000 40000000 		.word	64
 909 0004 00       		.byte	0
 910 0005 00       		.byte	0
 911 0006 00       		.byte	0
 912 0007 00       		.byte	0
 913 0008 00       		.byte	0
 914 0009 00       		.space	1
 915 000a 0000     		.short	0
 916 000c 0000     		.short	0
 917 000e 0000     		.short	0
 918 0010 41000000 		.word	65
 919 0014 00       		.byte	0
 920 0015 00       		.byte	0
 921 0016 00       		.byte	0
 922 0017 00       		.byte	0
 923 0018 00       		.byte	0
 924 0019 00       		.space	1
 925 001a 0000     		.short	0
 926 001c 0000     		.short	0
 927 001e 0000     		.short	0
 928 0020 42000000 		.word	66
 929 0024 00       		.byte	0
 930 0025 00       		.byte	0
 931 0026 00       		.byte	0
 932 0027 00       		.byte	0
 933 0028 00       		.byte	0
 934 0029 00       		.space	1
 935 002a 0000     		.short	0
 936 002c 0000     		.short	0
 937 002e 0000     		.short	0
 938 0030 43000000 		.word	67
 939 0034 00       		.byte	0
 940 0035 00       		.byte	0
 941 0036 00       		.byte	0
 942 0037 00       		.byte	0
 943 0038 00       		.byte	0
 944 0039 00       		.space	1
 945 003a 0000     		.short	0
 946 003c 0000     		.short	0
 947 003e 0000     		.short	0
 948 0040 44000000 		.word	68
 949 0044 00       		.byte	0
 950 0045 00       		.byte	0
 951 0046 00       		.byte	0
 952 0047 00       		.byte	0
 953 0048 00       		.byte	0
 954 0049 00       		.space	1
ARM GAS  C:\Users\DNIEL~1\AppData\Local\Temp\cc8JXkoo.s 			page 18


 955 004a 0000     		.short	0
 956 004c 0000     		.short	0
 957 004e 0000     		.short	0
 958 0050 45000000 		.word	69
 959 0054 00       		.byte	0
 960 0055 00       		.byte	0
 961 0056 00       		.byte	0
 962 0057 00       		.byte	0
 963 0058 00       		.byte	0
 964 0059 00       		.space	1
 965 005a 0000     		.short	0
 966 005c 0000     		.short	0
 967 005e 0000     		.short	0
 968 0060 46000000 		.word	70
 969 0064 00       		.byte	0
 970 0065 00       		.byte	0
 971 0066 00       		.byte	0
 972 0067 00       		.byte	0
 973 0068 00       		.byte	0
 974 0069 00       		.space	1
 975 006a 0000     		.short	0
 976 006c 0000     		.short	0
 977 006e 0000     		.short	0
 978 0070 47000000 		.word	71
 979 0074 00       		.byte	0
 980 0075 00       		.byte	0
 981 0076 00       		.byte	0
 982 0077 00       		.byte	0
 983 0078 00       		.byte	0
 984 0079 00       		.space	1
 985 007a 0000     		.short	0
 986 007c 0000     		.short	0
 987 007e 0000     		.short	0
 988 0080 48000000 		.word	72
 989 0084 00       		.byte	0
 990 0085 00       		.byte	0
 991 0086 00       		.byte	0
 992 0087 00       		.byte	0
 993 0088 00       		.byte	0
 994 0089 00       		.space	1
 995 008a 0000     		.short	0
 996 008c 0000     		.short	0
 997 008e 0000     		.short	0
 998 0090 49000000 		.word	73
 999 0094 00       		.byte	0
 1000 0095 00       		.byte	0
 1001 0096 00       		.byte	0
 1002 0097 00       		.byte	0
 1003 0098 00       		.byte	0
 1004 0099 00       		.space	1
 1005 009a 0000     		.short	0
 1006 009c 0000     		.short	0
 1007 009e 0000     		.short	0
 1008 00a0 4A000000 		.word	74
 1009 00a4 00       		.byte	0
 1010 00a5 00       		.byte	0
 1011 00a6 00       		.byte	0
ARM GAS  C:\Users\DNIEL~1\AppData\Local\Temp\cc8JXkoo.s 			page 19


 1012 00a7 00       		.byte	0
 1013 00a8 00       		.byte	0
 1014 00a9 00       		.space	1
 1015 00aa 0000     		.short	0
 1016 00ac 0000     		.short	0
 1017 00ae 0000     		.short	0
 1018 00b0 4B000000 		.word	75
 1019 00b4 00       		.byte	0
 1020 00b5 00       		.byte	0
 1021 00b6 00       		.byte	0
 1022 00b7 00       		.byte	0
 1023 00b8 00       		.byte	0
 1024 00b9 00       		.space	1
 1025 00ba 0000     		.short	0
 1026 00bc 0000     		.short	0
 1027 00be 0000     		.short	0
 1028 00c0 4C000000 		.word	76
 1029 00c4 00       		.byte	0
 1030 00c5 00       		.byte	0
 1031 00c6 00       		.byte	0
 1032 00c7 00       		.byte	0
 1033 00c8 00       		.byte	0
 1034 00c9 00       		.space	1
 1035 00ca 0000     		.short	0
 1036 00cc 0000     		.short	0
 1037 00ce 0000     		.short	0
 1038 00d0 4D000000 		.word	77
 1039 00d4 00       		.byte	0
 1040 00d5 00       		.byte	0
 1041 00d6 00       		.byte	0
 1042 00d7 00       		.byte	0
 1043 00d8 00       		.byte	0
 1044 00d9 00       		.space	1
 1045 00da 0000     		.short	0
 1046 00dc 0000     		.short	0
 1047 00de 0000     		.short	0
 1048 00e0 4E000000 		.word	78
 1049 00e4 00       		.byte	0
 1050 00e5 00       		.byte	0
 1051 00e6 00       		.byte	0
 1052 00e7 00       		.byte	0
 1053 00e8 00       		.byte	0
 1054 00e9 00       		.space	1
 1055 00ea 0000     		.short	0
 1056 00ec 0000     		.short	0
 1057 00ee 0000     		.short	0
 1058 00f0 4F000000 		.word	79
 1059 00f4 00       		.byte	0
 1060 00f5 00       		.byte	0
 1061 00f6 00       		.byte	0
 1062 00f7 00       		.byte	0
 1063 00f8 00       		.byte	0
 1064 00f9 00       		.space	1
 1065 00fa 0000     		.short	0
 1066 00fc 0000     		.short	0
 1067 00fe 0000     		.short	0
 1068 0100 50000000 		.word	80
ARM GAS  C:\Users\DNIEL~1\AppData\Local\Temp\cc8JXkoo.s 			page 20


 1069 0104 00       		.byte	0
 1070 0105 00       		.byte	0
 1071 0106 00       		.byte	0
 1072 0107 00       		.byte	0
 1073 0108 00       		.byte	0
 1074 0109 00       		.space	1
 1075 010a 0000     		.short	0
 1076 010c 0000     		.short	0
 1077 010e 0000     		.short	0
 1078 0110 51000000 		.word	81
 1079 0114 00       		.byte	0
 1080 0115 00       		.byte	0
 1081 0116 00       		.byte	0
 1082 0117 00       		.byte	0
 1083 0118 00       		.byte	0
 1084 0119 00       		.space	1
 1085 011a 0000     		.short	0
 1086 011c 0000     		.short	0
 1087 011e 0000     		.short	0
 1088 0120 52000000 		.word	82
 1089 0124 00       		.byte	0
 1090 0125 00       		.byte	0
 1091 0126 00       		.byte	0
 1092 0127 00       		.byte	0
 1093 0128 00       		.byte	0
 1094 0129 00       		.space	1
 1095 012a 0000     		.short	0
 1096 012c 0000     		.short	0
 1097 012e 0000     		.short	0
 1098 0130 53000000 		.word	83
 1099 0134 00       		.byte	0
 1100 0135 00       		.byte	0
 1101 0136 00       		.byte	0
 1102 0137 00       		.byte	0
 1103 0138 00       		.byte	0
 1104 0139 00       		.space	1
 1105 013a 0000     		.short	0
 1106 013c 0000     		.short	0
 1107 013e 0000     		.short	0
 1108 0140 54000000 		.word	84
 1109 0144 00       		.byte	0
 1110 0145 00       		.byte	0
 1111 0146 00       		.byte	0
 1112 0147 00       		.byte	0
 1113 0148 00       		.byte	0
 1114 0149 00       		.space	1
 1115 014a 0000     		.short	0
 1116 014c 0000     		.short	0
 1117 014e 0000     		.short	0
 1118 0150 55000000 		.word	85
 1119 0154 00       		.byte	0
 1120 0155 00       		.byte	0
 1121 0156 00       		.byte	0
 1122 0157 00       		.byte	0
 1123 0158 00       		.byte	0
 1124 0159 00       		.space	1
 1125 015a 0000     		.short	0
ARM GAS  C:\Users\DNIEL~1\AppData\Local\Temp\cc8JXkoo.s 			page 21


 1126 015c 0000     		.short	0
 1127 015e 0000     		.short	0
 1128 0160 56000000 		.word	86
 1129 0164 00       		.byte	0
 1130 0165 00       		.byte	0
 1131 0166 00       		.byte	0
 1132 0167 00       		.byte	0
 1133 0168 00       		.byte	0
 1134 0169 00       		.space	1
 1135 016a 0000     		.short	0
 1136 016c 0000     		.short	0
 1137 016e 0000     		.short	0
 1138 0170 57000000 		.word	87
 1139 0174 00       		.byte	0
 1140 0175 00       		.byte	0
 1141 0176 00       		.byte	0
 1142 0177 00       		.byte	0
 1143 0178 00       		.byte	0
 1144 0179 00       		.space	1
 1145 017a 0000     		.short	0
 1146 017c 0000     		.short	0
 1147 017e 0000     		.short	0
 1148 0180 58000000 		.word	88
 1149 0184 00       		.byte	0
 1150 0185 00       		.byte	0
 1151 0186 00       		.byte	0
 1152 0187 00       		.byte	0
 1153 0188 00       		.byte	0
 1154 0189 00       		.space	1
 1155 018a 0000     		.short	0
 1156 018c 0000     		.short	0
 1157 018e 0000     		.short	0
 1158 0190 59000000 		.word	89
 1159 0194 00       		.byte	0
 1160 0195 00       		.byte	0
 1161 0196 00       		.byte	0
 1162 0197 00       		.byte	0
 1163 0198 00       		.byte	0
 1164 0199 00       		.space	1
 1165 019a 0000     		.short	0
 1166 019c 0000     		.short	0
 1167 019e 0000     		.short	0
 1168 01a0 5A000000 		.word	90
 1169 01a4 00       		.byte	0
 1170 01a5 00       		.byte	0
 1171 01a6 00       		.byte	0
 1172 01a7 00       		.byte	0
 1173 01a8 00       		.byte	0
 1174 01a9 00       		.space	1
 1175 01aa 0000     		.short	0
 1176 01ac 0000     		.short	0
 1177 01ae 0000     		.short	0
 1178 01b0 5B000000 		.word	91
 1179 01b4 00       		.byte	0
 1180 01b5 00       		.byte	0
 1181 01b6 00       		.byte	0
 1182 01b7 00       		.byte	0
ARM GAS  C:\Users\DNIEL~1\AppData\Local\Temp\cc8JXkoo.s 			page 22


 1183 01b8 00       		.byte	0
 1184 01b9 00       		.space	1
 1185 01ba 0000     		.short	0
 1186 01bc 0000     		.short	0
 1187 01be 0000     		.short	0
 1188 01c0 5C000000 		.word	92
 1189 01c4 00       		.byte	0
 1190 01c5 00       		.byte	0
 1191 01c6 00       		.byte	0
 1192 01c7 00       		.byte	0
 1193 01c8 00       		.byte	0
 1194 01c9 00       		.space	1
 1195 01ca 0000     		.short	0
 1196 01cc 0000     		.short	0
 1197 01ce 0000     		.short	0
 1198 01d0 5D000000 		.word	93
 1199 01d4 00       		.byte	0
 1200 01d5 00       		.byte	0
 1201 01d6 00       		.byte	0
 1202 01d7 00       		.byte	0
 1203 01d8 00       		.byte	0
 1204 01d9 00       		.space	1
 1205 01da 0000     		.short	0
 1206 01dc 0000     		.short	0
 1207 01de 0000     		.short	0
 1208 01e0 5E000000 		.word	94
 1209 01e4 00       		.byte	0
 1210 01e5 00       		.byte	0
 1211 01e6 00       		.byte	0
 1212 01e7 00       		.byte	0
 1213 01e8 00       		.byte	0
 1214 01e9 00       		.space	1
 1215 01ea 0000     		.short	0
 1216 01ec 0000     		.short	0
 1217 01ee 0000     		.short	0
 1218 01f0 5F000000 		.word	95
 1219 01f4 00       		.byte	0
 1220 01f5 00       		.byte	0
 1221 01f6 00       		.byte	0
 1222 01f7 00       		.byte	0
 1223 01f8 00       		.byte	0
 1224 01f9 00       		.space	1
 1225 01fa 0000     		.short	0
 1226 01fc 0000     		.short	0
 1227 01fe 0000     		.short	0
 1228              		.section	.rodata.str1.4,"aMS",%progbits,1
 1229              		.align	2
 1230              	.LC0:
 1231 0000 72656365 		.ascii	"receiver\000"
 1231      69766572 
 1231      00
 1232 0009 000000   		.space	3
 1233              	.LC1:
 1234 000c 1B6300   		.ascii	"\033c\000"
 1235 000f 00       		.space	1
 1236              	.LC2:
 1237 0010 1B5B324A 		.ascii	"\033[2J\000"
ARM GAS  C:\Users\DNIEL~1\AppData\Local\Temp\cc8JXkoo.s 			page 23


 1237      00
 1238 0015 000000   		.space	3
 1239              	.LC3:
 1240 0018 1B5B2564 		.ascii	"\033[%d;%dH\000"
 1240      3B256448 
 1240      00
 1241 0021 000000   		.space	3
 1242              	.LC4:
 1243 0024 52582E45 		.ascii	"RX.EID : %x \015\012\000"
 1243      4944203A 
 1243      20257820 
 1243      0D0A00
 1244 0033 00       		.space	1
 1245              	.LC5:
 1246 0034 52582E44 		.ascii	"RX.DATA1 : %x \015\012\000"
 1246      41544131 
 1246      203A2025 
 1246      78200D0A 
 1246      00
 1247 0045 000000   		.space	3
 1248              	.LC6:
 1249 0048 52582E44 		.ascii	"RX.DATA2 : %x \015\012\000"
 1249      41544132 
 1249      203A2025 
 1249      78200D0A 
 1249      00
 1250 0059 000000   		.space	3
 1251              	.LC7:
 1252 005c 2D2D2D2D 		.ascii	"----------- CAN Transmit ------------\015\012\000"
 1252      2D2D2D2D 
 1252      2D2D2D20 
 1252      43414E20 
 1252      5472616E 
 1253              	.LC8:
 1254 0084 54582E45 		.ascii	"TX.EID              : %15x \015\012\000"
 1254      49442020 
 1254      20202020 
 1254      20202020 
 1254      20202020 
 1255 00a2 0000     		.space	2
 1256              	.LC9:
 1257 00a4 54582E44 		.ascii	"TX.DATA32_1         : %15x \015\012\000"
 1257      41544133 
 1257      325F3120 
 1257      20202020 
 1257      20202020 
 1258 00c2 0000     		.space	2
 1259              	.LC10:
 1260 00c4 54582E44 		.ascii	"TX.DATA32_2         : %15x \015\012\000"
 1260      41544133 
 1260      325F3220 
 1260      20202020 
 1260      20202020 
 1261 00e2 0000     		.space	2
 1262              	.LC11:
 1263 00e4 0D0A00   		.ascii	"\015\012\000"
 1264 00e7 00       		.space	1
ARM GAS  C:\Users\DNIEL~1\AppData\Local\Temp\cc8JXkoo.s 			page 24


 1265              	.LC12:
 1266 00e8 2D2D2D2D 		.ascii	"----------- CAN Receive -------------\015\012\000"
 1266      2D2D2D2D 
 1266      2D2D2D20 
 1266      43414E20 
 1266      52656365 
 1267              	.LC13:
 1268 0110 52582E45 		.ascii	"RX.EID              : %15x \015\012\000"
 1268      49442020 
 1268      20202020 
 1268      20202020 
 1268      20202020 
 1269 012e 0000     		.space	2
 1270              	.LC14:
 1271 0130 52582E44 		.ascii	"RX.DATA8_1 (NTC)    : %15d \015\012\000"
 1271      41544138 
 1271      5F312028 
 1271      4E544329 
 1271      20202020 
 1272 014e 0000     		.space	2
 1273              	.LC15:
 1274 0150 52582E44 		.ascii	"RX.DATA8_2 (IN_CUR) : %15d \015\012\000"
 1274      41544138 
 1274      5F322028 
 1274      494E5F43 
 1274      55522920 
 1275 016e 0000     		.space	2
 1276              	.LC16:
 1277 0170 52582E44 		.ascii	"RX.DATA8_3 (OUT_CUR): %15d \015\012\000"
 1277      41544138 
 1277      5F332028 
 1277      4F55545F 
 1277      43555229 
 1278 018e 0000     		.space	2
 1279              	.LC17:
 1280 0190 52582E44 		.ascii	"RX.DATA8_4 (EFF)    : %15d \015\012\000"
 1280      41544138 
 1280      5F342028 
 1280      45464629 
 1280      20202020 
 1281 01ae 0000     		.space	2
 1282              	.LC18:
 1283 01b0 52582E44 		.ascii	"RX.DATA8_5 (VIN)    : %15d \015\012\000"
 1283      41544138 
 1283      5F352028 
 1283      56494E29 
 1283      20202020 
 1284 01ce 0000     		.space	2
 1285              	.LC19:
 1286 01d0 52582E44 		.ascii	"RX.DATA8_5 (VOUT)   : %15d \015\012\000"
 1286      41544138 
 1286      5F352028 
 1286      564F5554 
 1286      29202020 
 1287 01ee 0000     		.space	2
 1288              	.LC20:
 1289 01f0 73656765 		.ascii	"seged               : %15d \015\012\000"
ARM GAS  C:\Users\DNIEL~1\AppData\Local\Temp\cc8JXkoo.s 			page 25


 1289      64202020 
 1289      20202020 
 1289      20202020 
 1289      20202020 
 1290 020e 0000     		.space	2
 1291              	.LC21:
 1292 0210 69642020 		.ascii	"id                  : %15x \015\012\000"
 1292      20202020 
 1292      20202020 
 1292      20202020 
 1292      20202020 
 1293 022e 0000     		.space	2
 1294              	.LC22:
 1295 0230 6D657373 		.ascii	"messages            : %15x \015\012\000"
 1295      61676573 
 1295      20202020 
 1295      20202020 
 1295      20202020 
 1296 024e 0000     		.space	2
 1297              	.LC23:
 1298 0250 6C6300   		.ascii	"lc\000"
 1299 0253 00       		.space	1
 1300              	.LC24:
 1301 0254 2D2D2D2D 		.ascii	"-------------- luxCControl %d/%d --------------\015"
 1301      2D2D2D2D 
 1301      2D2D2D2D 
 1301      2D2D206C 
 1301      75784343 
 1302 0284 0A00     		.ascii	"\012\000"
 1303 0286 0000     		.space	2
 1304              	.LC25:
 1305 0288 6C636974 		.ascii	"lcitems[%d].id         (ID)     : %15x \015\012\000"
 1305      656D735B 
 1305      25645D2E 
 1305      69642020 
 1305      20202020 
 1306 02b2 0000     		.space	2
 1307              	.LC26:
 1308 02b4 6C636974 		.ascii	"lcitems[%d].temp       (NTC)    : %15d \015\012\000"
 1308      656D735B 
 1308      25645D2E 
 1308      74656D70 
 1308      20202020 
 1309 02de 0000     		.space	2
 1310              	.LC27:
 1311 02e0 6C636974 		.ascii	"lcitems[%d].curr_in    (IN_CUR) : %15d \015\012\000"
 1311      656D735B 
 1311      25645D2E 
 1311      63757272 
 1311      5F696E20 
 1312 030a 0000     		.space	2
 1313              	.LC28:
 1314 030c 6C636974 		.ascii	"lcitems[%d].curr_out   (OUT_CUR): %15d \015\012\000"
 1314      656D735B 
 1314      25645D2E 
 1314      63757272 
 1314      5F6F7574 
ARM GAS  C:\Users\DNIEL~1\AppData\Local\Temp\cc8JXkoo.s 			page 26


 1315 0336 0000     		.space	2
 1316              	.LC29:
 1317 0338 6C636974 		.ascii	"lcitems[%d].efficiency (EFF)    : %15d \015\012\000"
 1317      656D735B 
 1317      25645D2E 
 1317      65666669 
 1317      6369656E 
 1318 0362 0000     		.space	2
 1319              	.LC30:
 1320 0364 6C636974 		.ascii	"lcitems[%d].status     (STATUS) : %15d \015\012\000"
 1320      656D735B 
 1320      25645D2E 
 1320      73746174 
 1320      75732020 
 1321 038e 0000     		.space	2
 1322              	.LC31:
 1323 0390 6C636974 		.ascii	"lcitems[%d].volt_in    (VIN)    : %15d \015\012\000"
 1323      656D735B 
 1323      25645D2E 
 1323      766F6C74 
 1323      5F696E20 
 1324 03ba 0000     		.space	2
 1325              	.LC32:
 1326 03bc 6C636974 		.ascii	"lcitems[%d].volt_out   (VOUT)   : %15d \015\012\000"
 1326      656D735B 
 1326      25645D2E 
 1326      766F6C74 
 1326      5F6F7574 
 1327 03e6 0000     		.space	2
 1328              	.LC33:
 1329 03e8 6C636974 		.ascii	"lcitems[%d].pwm        (PWM)    : %15d \015\012\000"
 1329      656D735B 
 1329      25645D2E 
 1329      70776D20 
 1329      20202020 
 1330 0412 0000     		.space	2
 1331              	.LC34:
 1332 0414 54686973 		.ascii	"This not good parameters!\015\012\000"
 1332      206E6F74 
 1332      20676F6F 
 1332      64207061 
 1332      72616D65 
 1333              		.section	.bss.canstate,"aw",%nobits
 1334              		.set	.LANCHOR4,. + 0
 1335              		.type	canstate, %object
 1336              		.size	canstate, 1
 1337              	canstate:
 1338 0000 00       		.space	1
 1339              		.section	.bss.messages,"aw",%nobits
 1340              		.align	1
 1341              		.set	.LANCHOR3,. + 0
 1342              		.type	messages, %object
 1343              		.size	messages, 2
 1344              	messages:
 1345 0000 0000     		.space	2
 1346              		.section	.bss.rxmsg,"aw",%nobits
 1347              		.align	2
ARM GAS  C:\Users\DNIEL~1\AppData\Local\Temp\cc8JXkoo.s 			page 27


 1348              		.set	.LANCHOR1,. + 0
 1349              		.type	rxmsg, %object
 1350              		.size	rxmsg, 20
 1351              	rxmsg:
 1352 0000 00000000 		.space	20
 1352      00000000 
 1352      00000000 
 1352      00000000 
 1352      00000000 
 1353              		.section	.rodata.cancfg,"a",%progbits
 1354              		.align	2
 1355              		.set	.LANCHOR6,. + 0
 1356              		.type	cancfg, %object
 1357              		.size	cancfg, 16
 1358              	cancfg:
 1359 0000 40000000 		.word	64
 1360 0004 06001800 		.word	1572870
 1361 0008 00000000 		.word	0
 1362 000c 00000000 		.word	0
 1363              		.text
 1364              	.Letext0: