ARM GAS  C:\Users\DNIEL~1\AppData\Local\Temp\ccrV7HYC.s 			page 1


   1              		.syntax unified
   2              		.cpu cortex-m4
   3              		.fpu softvfp
   4              		.eabi_attribute 20, 1
   5              		.eabi_attribute 21, 1
   6              		.eabi_attribute 23, 3
   7              		.eabi_attribute 24, 1
   8              		.eabi_attribute 25, 1
   9              		.eabi_attribute 26, 1
  10              		.eabi_attribute 30, 2
  11              		.eabi_attribute 34, 1
  12              		.eabi_attribute 18, 4
  13              		.thumb
  14              		.file	"light.c"
  15              		.text
  16              	.Ltext0:
  17              		.cfi_sections	.debug_frame
  18              		.section	.text.light_blink,"ax",%progbits
  19              		.align	2
  20              		.p2align 4,,15
  21              		.thumb
  22              		.thumb_func
  23              		.type	light_blink, %function
  24              	light_blink:
  25              	.LFB118:
  26              		.file 1 "src/light.c"
  27              		.loc 1 32 0
  28              		.cfi_startproc
  29              		@ args = 0, pretend = 0, frame = 0
  30              		@ frame_needed = 0, uses_anonymous_args = 0
  31              	.LVL0:
  32 0000 F8B5     		push	{r3, r4, r5, r6, r7, lr}
  33              	.LCFI0:
  34              		.cfi_def_cfa_offset 24
  35              		.cfi_offset 3, -24
  36              		.cfi_offset 4, -20
  37              		.cfi_offset 5, -16
  38              		.cfi_offset 6, -12
  39              		.cfi_offset 7, -8
  40              		.cfi_offset 14, -4
  41              		.loc 1 35 0
  42 0002 274F     		ldr	r7, .L12
  43 0004 2749     		ldr	r1, .L12+4
  44 0006 BA69     		ldr	r2, [r7, #24]
  45              		.loc 1 37 0
  46 0008 274B     		ldr	r3, .L12+8
  47              		.loc 1 35 0
  48 000a 9161     		str	r1, [r2, #24]
  49              		.loc 1 37 0
  50 000c 1978     		ldrb	r1, [r3, #0]	@ zero_extendqisi2
  51              		.loc 1 38 0
  52 000e 5868     		ldr	r0, [r3, #4]
  53              	.LVL1:
  54 0010 44F26754 		movw	r4, #17767
  55 0014 C0F22314 		movt	r4, 291
  56              		.loc 1 39 0
  57 0018 41F02001 		orr	r1, r1, #32
ARM GAS  C:\Users\DNIEL~1\AppData\Local\Temp\ccrV7HYC.s 			page 2


  58              		.loc 1 38 0
  59 001c 64F31C00 		bfi	r0, r4, #0, #29
  60              		.loc 1 40 0
  61 0020 01F0EF01 		and	r1, r1, #239
  62 0024 0824     		movs	r4, #8
  63 0026 64F30301 		bfi	r1, r4, #0, #4
  64 002a 1970     		strb	r1, [r3, #0]
  65              		.loc 1 38 0
  66 002c 5860     		str	r0, [r3, #4]
  67              		.loc 1 44 0
  68 002e 507F     		ldrb	r0, [r2, #29]	@ zero_extendqisi2
  69              		.loc 1 41 0
  70 0030 45F2AA52 		movw	r2, #21930
  71 0034 62F31F42 		bfi	r2, r2, #16, #16
  72              		.loc 1 44 0
  73 0038 00F00401 		and	r1, r0, #4
  74              		.loc 1 41 0
  75 003c 9A60     		str	r2, [r3, #8]
  76              		.loc 1 44 0
  77 003e C8B2     		uxtb	r0, r1
  78              		.loc 1 42 0
  79 0040 4FF0FF12 		mov	r2, #16711935
  80 0044 DA60     		str	r2, [r3, #12]
  81              		.loc 1 44 0
  82 0046 48BB     		cbnz	r0, .L10
  83              		.loc 1 46 0
  84 0048 41F25974 		movw	r4, #5977
  85 004c 174E     		ldr	r6, .L12+12
  86 004e 42F21075 		movw	r5, #10000
  87 0052 CDF2B714 		movt	r4, 53687
  88              	.L2:
  89              		.loc 1 45 0
  90 0056 1449     		ldr	r1, .L12+8
  91 0058 1548     		ldr	r0, .L12+16
  92 005a 6422     		movs	r2, #100
  93 005c FFF7FEFF 		bl	canTransmit
  94              	.LVL2:
  95              		.loc 1 46 0
  96 0060 3389     		ldrh	r3, [r6, #8]
  97 0062 1248     		ldr	r0, .L12+12
  98 0064 05FB03F3 		mul	r3, r5, r3
  99 0068 A4FB0331 		umull	r3, r1, r4, r3
 100 006c C1F34F32 		ubfx	r2, r1, #13, #16
 101 0070 0121     		movs	r1, #1
 102 0072 FFF7FEFF 		bl	pwmEnableChannel
 103              	.LVL3:
 104              		.loc 1 47 0
 105 0076 4FF4C870 		mov	r0, #400
 106 007a FFF7FEFF 		bl	chThdSleep
 107              	.LVL4:
 108              		.loc 1 49 0
 109 007e 0121     		movs	r1, #1
 110 0080 0A48     		ldr	r0, .L12+12
 111 0082 FFF7FEFF 		bl	pwmDisableChannel
 112              	.LVL5:
 113              		.loc 1 50 0
 114 0086 4FF4C870 		mov	r0, #400
ARM GAS  C:\Users\DNIEL~1\AppData\Local\Temp\ccrV7HYC.s 			page 3


 115 008a FFF7FEFF 		bl	chThdSleep
 116              	.LVL6:
 117              		.loc 1 44 0
 118 008e B869     		ldr	r0, [r7, #24]
 119 0090 427F     		ldrb	r2, [r0, #29]	@ zero_extendqisi2
 120 0092 02F00403 		and	r3, r2, #4
 121 0096 D9B2     		uxtb	r1, r3
 122 0098 0029     		cmp	r1, #0
 123 009a DCD0     		beq	.L2
 124              	.L10:
 125              		.loc 1 53 0
 126 009c 0020     		movs	r0, #0
 127 009e F8BD     		pop	{r3, r4, r5, r6, r7, pc}
 128              	.L13:
 129              		.align	2
 130              	.L12:
 131 00a0 00000000 		.word	rlist
 132 00a4 00000000 		.word	.LC0
 133 00a8 00000000 		.word	.LANCHOR0
 134 00ac 00000000 		.word	PWMD4
 135 00b0 00000000 		.word	CAND1
 136              		.cfi_endproc
 137              	.LFE118:
 138              		.size	light_blink, .-light_blink
 139 00b4 AFF30080 		.section	.text.lightInit,"ax",%progbits
 139      AFF30080 
 139      AFF30080 
 140              		.align	2
 141              		.p2align 4,,15
 142              		.global	lightInit
 143              		.thumb
 144              		.thumb_func
 145              		.type	lightInit, %function
 146              	lightInit:
 147              	.LFB119:
 148              		.loc 1 57 0
 149              		.cfi_startproc
 150              		@ args = 0, pretend = 0, frame = 0
 151              		@ frame_needed = 0, uses_anonymous_args = 0
 152 0000 00B5     		push	{lr}
 153              	.LCFI1:
 154              		.cfi_def_cfa_offset 4
 155              		.cfi_offset 14, -4
 156              		.loc 1 58 0
 157 0002 40F20000 		movw	r0, #:lower16:PWMD4
 158 0006 40F20001 		movw	r1, #:lower16:.LANCHOR1
 159              		.loc 1 57 0
 160 000a 83B0     		sub	sp, sp, #12
 161              	.LCFI2:
 162              		.cfi_def_cfa_offset 16
 163              		.loc 1 58 0
 164 000c C0F20000 		movt	r0, #:upper16:PWMD4
 165 0010 C0F20001 		movt	r1, #:upper16:.LANCHOR1
 166 0014 FFF7FEFF 		bl	pwmStart
 167              	.LVL7:
 168              		.loc 1 63 0
 169 0018 0023     		movs	r3, #0
ARM GAS  C:\Users\DNIEL~1\AppData\Local\Temp\ccrV7HYC.s 			page 4


 170 001a 0093     		str	r3, [sp, #0]
 171 001c 40F20000 		movw	r0, #:lower16:.LANCHOR2
 172 0020 40F20003 		movw	r3, #:lower16:light_blink
 173 0024 4FF4D871 		mov	r1, #432
 174 0028 4022     		movs	r2, #64
 175 002a C0F20003 		movt	r3, #:upper16:light_blink
 176 002e C0F20000 		movt	r0, #:upper16:.LANCHOR2
 177 0032 FFF7FEFF 		bl	chThdCreateStatic
 178              	.LVL8:
 179              		.loc 1 64 0
 180 0036 03B0     		add	sp, sp, #12
 181 0038 00BD     		pop	{pc}
 182              		.cfi_endproc
 183              	.LFE119:
 184              		.size	lightInit, .-lightInit
 185 003a 00BFAFF3 		.section	.text.lightCalc,"ax",%progbits
 185      0080
 186              		.align	2
 187              		.p2align 4,,15
 188              		.global	lightCalc
 189              		.thumb
 190              		.thumb_func
 191              		.type	lightCalc, %function
 192              	lightCalc:
 193              	.LFB120:
 194              		.loc 1 66 0
 195              		.cfi_startproc
 196              		@ args = 0, pretend = 0, frame = 0
 197              		@ frame_needed = 0, uses_anonymous_args = 0
 198 0000 70B5     		push	{r4, r5, r6, lr}
 199              	.LCFI3:
 200              		.cfi_def_cfa_offset 16
 201              		.cfi_offset 4, -16
 202              		.cfi_offset 5, -12
 203              		.cfi_offset 6, -8
 204              		.cfi_offset 14, -4
 205              		.loc 1 68 0
 206 0002 40F20003 		movw	r3, #:lower16:vtlist
 207              		.loc 1 71 0
 208 0006 40F20004 		movw	r4, #:lower16:PWMD4
 209 000a C0F20004 		movt	r4, #:upper16:PWMD4
 210              		.loc 1 68 0
 211 000e C0F20003 		movt	r3, #:upper16:vtlist
 212              		.loc 1 71 0
 213 0012 2289     		ldrh	r2, [r4, #8]
 214              		.loc 1 68 0
 215 0014 DE68     		ldr	r6, [r3, #12]
 216 0016 48F21961 		movw	r1, #34329
 217              		.loc 1 71 0
 218 001a 42F21073 		movw	r3, #10000
 219 001e 41F25975 		movw	r5, #5977
 220 0022 CDF2B715 		movt	r5, 53687
 221              		.loc 1 68 0
 222 0026 F008     		lsrs	r0, r6, #3
 223 0028 C1F66101 		movt	r1, 6241
 224              		.loc 1 71 0
 225 002c 03FB02F2 		mul	r2, r3, r2
ARM GAS  C:\Users\DNIEL~1\AppData\Local\Temp\ccrV7HYC.s 			page 5


 226              		.loc 1 68 0
 227 0030 40F20003 		movw	r3, #:lower16:.LANCHOR3
 228 0034 A1FB0006 		umull	r0, r6, r1, r0
 229 0038 C0F20003 		movt	r3, #:upper16:.LANCHOR3
 230              		.loc 1 71 0
 231 003c A5FB0202 		umull	r0, r2, r5, r2
 232 0040 0021     		movs	r1, #0
 233 0042 2046     		mov	r0, r4
 234              		.loc 1 68 0
 235 0044 7608     		lsrs	r6, r6, #1
 236              		.loc 1 71 0
 237 0046 C2F34F32 		ubfx	r2, r2, #13, #16
 238              		.loc 1 68 0
 239 004a 1E60     		str	r6, [r3, #0]
 240              		.loc 1 71 0
 241 004c FFF7FEFF 		bl	pwmEnableChannel
 242              	.LVL9:
 243              		.loc 1 77 0
 244 0050 2189     		ldrh	r1, [r4, #8]
 245 0052 41F28830 		movw	r0, #5000
 246 0056 00FB01F3 		mul	r3, r0, r1
 247 005a A5FB0312 		umull	r1, r2, r5, r3
 248 005e 2046     		mov	r0, r4
 249 0060 0221     		movs	r1, #2
 250 0062 520B     		lsrs	r2, r2, #13
 251 0064 FFF7FEFF 		bl	pwmEnableChannel
 252              	.LVL10:
 253              		.loc 1 80 0
 254 0068 2189     		ldrh	r1, [r4, #8]
 255 006a 4FF47A70 		mov	r0, #1000
 256 006e 00FB01F1 		mul	r1, r0, r1
 257 0072 A5FB0103 		umull	r0, r3, r5, r1
 258 0076 5A0B     		lsrs	r2, r3, #13
 259 0078 2046     		mov	r0, r4
 260 007a 0321     		movs	r1, #3
 261              		.loc 1 81 0
 262 007c BDE87040 		pop	{r4, r5, r6, lr}
 263              		.loc 1 80 0
 264 0080 FFF7FEBF 		b	pwmEnableChannel
 265              	.LVL11:
 266              		.cfi_endproc
 267              	.LFE120:
 268              		.size	lightCalc, .-lightCalc
 269 0084 AFF30080 		.section	.text.cmd_lightvalues,"ax",%progbits
 269      AFF30080 
 269      AFF30080 
 270              		.align	2
 271              		.p2align 4,,15
 272              		.global	cmd_lightvalues
 273              		.thumb
 274              		.thumb_func
 275              		.type	cmd_lightvalues, %function
 276              	cmd_lightvalues:
 277              	.LFB121:
 278              		.loc 1 83 0
 279              		.cfi_startproc
 280              		@ args = 0, pretend = 0, frame = 0
ARM GAS  C:\Users\DNIEL~1\AppData\Local\Temp\ccrV7HYC.s 			page 6


 281              		@ frame_needed = 0, uses_anonymous_args = 0
 282              	.LVL12:
 283 0000 38B5     		push	{r3, r4, r5, lr}
 284              	.LCFI4:
 285              		.cfi_def_cfa_offset 16
 286              		.cfi_offset 3, -16
 287              		.cfi_offset 4, -12
 288              		.cfi_offset 5, -8
 289              		.cfi_offset 14, -4
 290              		.loc 1 87 0
 291 0002 1249     		ldr	r1, .L19
 292              	.LVL13:
 293              		.loc 1 93 0
 294 0004 124D     		ldr	r5, .L19+4
 295              		.loc 1 83 0
 296 0006 0446     		mov	r4, r0
 297              		.loc 1 87 0
 298 0008 FFF7FEFF 		bl	chprintf
 299              	.LVL14:
 300              		.loc 1 88 0
 301 000c 2046     		mov	r0, r4
 302 000e 1149     		ldr	r1, .L19+8
 303 0010 FFF7FEFF 		bl	chprintf
 304              	.LVL15:
 305              		.loc 1 89 0
 306 0014 0EE0     		b	.L17
 307              	.LVL16:
 308              	.L18:
 309              		.loc 1 90 0
 310 0016 FFF7FEFF 		bl	chprintf
 311              	.LVL17:
 312              		.loc 1 92 0
 313 001a 2046     		mov	r0, r4
 314 001c 0E49     		ldr	r1, .L19+12
 315 001e FFF7FEFF 		bl	chprintf
 316              	.LVL18:
 317              		.loc 1 93 0
 318 0022 2046     		mov	r0, r4
 319 0024 0D49     		ldr	r1, .L19+16
 320 0026 2A68     		ldr	r2, [r5, #0]
 321 0028 FFF7FEFF 		bl	chprintf
 322              	.LVL19:
 323              		.loc 1 94 0
 324 002c 4FF47A70 		mov	r0, #1000
 325 0030 FFF7FEFF 		bl	chThdSleep
 326              	.LVL20:
 327              	.L17:
 328              		.loc 1 89 0 discriminator 1
 329 0034 2368     		ldr	r3, [r4, #0]
 330 0036 0021     		movs	r1, #0
 331 0038 5A69     		ldr	r2, [r3, #20]
 332 003a 2046     		mov	r0, r4
 333 003c 9047     		blx	r2
 334              	.LVL21:
 335              		.loc 1 90 0 discriminator 1
 336 003e 0022     		movs	r2, #0
 337              		.loc 1 89 0 discriminator 1
ARM GAS  C:\Users\DNIEL~1\AppData\Local\Temp\ccrV7HYC.s 			page 7


 338 0040 0130     		adds	r0, r0, #1
 339              		.loc 1 90 0 discriminator 1
 340 0042 1346     		mov	r3, r2
 341 0044 0649     		ldr	r1, .L19+20
 342 0046 2046     		mov	r0, r4
 343              		.loc 1 89 0 discriminator 1
 344 0048 E5D0     		beq	.L18
 345              	.LVL22:
 346              		.loc 1 96 0
 347 004a 38BD     		pop	{r3, r4, r5, pc}
 348              	.L20:
 349              		.align	2
 350              	.L19:
 351 004c 0C000000 		.word	.LC1
 352 0050 00000000 		.word	.LANCHOR3
 353 0054 10000000 		.word	.LC2
 354 0058 24000000 		.word	.LC4
 355 005c 38000000 		.word	.LC5
 356 0060 18000000 		.word	.LC3
 357              		.cfi_endproc
 358              	.LFE121:
 359              		.size	cmd_lightvalues, .-cmd_lightvalues
 360 0064 AFF30080 		.section	.bss.ido,"aw",%nobits
 360      AFF30080 
 360      AFF30080 
 361              		.align	2
 362              		.set	.LANCHOR3,. + 0
 363              		.type	ido, %object
 364              		.size	ido, 4
 365              	ido:
 366 0000 00000000 		.space	4
 367              		.section	.bss.txmsg,"aw",%nobits
 368              		.align	2
 369              		.set	.LANCHOR0,. + 0
 370              		.type	txmsg, %object
 371              		.size	txmsg, 16
 372              	txmsg:
 373 0000 00000000 		.space	16
 373      00000000 
 373      00000000 
 373      00000000 
 374              		.section	.bss.light_blink_wa,"aw",%nobits
 375              		.align	3
 376              		.set	.LANCHOR2,. + 0
 377              		.type	light_blink_wa, %object
 378              		.size	light_blink_wa, 432
 379              	light_blink_wa:
 380 0000 00000000 		.space	432
 380      00000000 
 380      00000000 
 380      00000000 
 380      00000000 
 381              		.section	.data.pwmcfg,"aw",%progbits
 382              		.align	2
 383              		.set	.LANCHOR1,. + 0
 384              		.type	pwmcfg, %object
 385              		.size	pwmcfg, 48
ARM GAS  C:\Users\DNIEL~1\AppData\Local\Temp\ccrV7HYC.s 			page 8


 386              	pwmcfg:
 387 0000 40420F00 		.word	1000000
 388 0004 E803     		.short	1000
 389 0006 0000     		.space	2
 390 0008 00000000 		.word	0
 391 000c 01000000 		.word	1
 392 0010 00000000 		.word	0
 393 0014 01000000 		.word	1
 394 0018 00000000 		.word	0
 395 001c 01000000 		.word	1
 396 0020 00000000 		.word	0
 397 0024 01000000 		.word	1
 398 0028 00000000 		.word	0
 399 002c 0000     		.short	0
 400 002e 0000     		.space	2
 401              		.section	.rodata.str1.4,"aMS",%progbits,1
 402              		.align	2
 403              	.LC0:
 404 0000 6C696768 		.ascii	"light_blink\000"
 404      745F626C 
 404      696E6B00 
 405              	.LC1:
 406 000c 1B6300   		.ascii	"\033c\000"
 407 000f 00       		.space	1
 408              	.LC2:
 409 0010 1B5B324A 		.ascii	"\033[2J\000"
 409      00
 410 0015 000000   		.space	3
 411              	.LC3:
 412 0018 1B5B2564 		.ascii	"\033[%d;%dH\000"
 412      3B256448 
 412      00
 413 0021 000000   		.space	3
 414              	.LC4:
 415 0024 2D2D2D2D 		.ascii	"---- PWM START ----\000"
 415      2050574D 
 415      20535441 
 415      5254202D 
 415      2D2D2D00 
 416              	.LC5:
 417 0038 69646F20 		.ascii	"ido : %x \015\012\000"
 417      3A202578 
 417      200D0A00 
 418              		.text
 419              	.Letext0:
 420              		.file 2 "c:\\chibistudio\\tools\\gnu tools arm embedded\\4.7 2014q2\\bin\\../lib/gcc/arm-none-eabi
 421              		.file 3 "c:\\chibistudio\\tools\\gnu tools arm embedded\\4.7 2014q2\\bin\\../lib/gcc/arm-none-eabi
 422              		.file 4 "../../../ChibiOS/os/ports/GCC/ARMCMx/chtypes.h"
 423              		.file 5 "../../../ChibiOS/os/kernel/include/chlists.h"
 424              		.file 6 "../../../ChibiOS/os/kernel/include/chthreads.h"
 425              		.file 7 "../../../ChibiOS/os/ports/GCC/ARMCMx/chcore_v7m.h"
 426              		.file 8 "../../../ChibiOS/os/kernel/include/chvt.h"
 427              		.file 9 "../../../ChibiOS/os/kernel/include/chschd.h"
 428              		.file 10 "../../../ChibiOS/os/kernel/include/chsem.h"
 429              		.file 11 "../../../ChibiOS/os/kernel/include/chmtx.h"
 430              		.file 12 "../../../ChibiOS/os/kernel/include/chevents.h"
 431              		.file 13 "../../../ChibiOS/os/kernel/include/chstreams.h"
ARM GAS  C:\Users\DNIEL~1\AppData\Local\Temp\ccrV7HYC.s 			page 9


 432              		.file 14 "../../../ChibiOS/os/hal/platforms/STM32F4xx/stm32f4xx.h"
 433              		.file 15 "../../../ChibiOS/os/hal/platforms/STM32/stm32.h"
 434              		.file 16 "../../../ChibiOS/os/hal/include/io_channel.h"
 435              		.file 17 "../../../ChibiOS/os/hal/include/can.h"
 436              		.file 18 "../../../ChibiOS/os/hal/platforms/STM32/can_lld.h"
 437              		.file 19 "../../../ChibiOS/os/hal/include/pwm.h"
 438              		.file 20 "../../../ChibiOS/os/hal/platforms/STM32/pwm_lld.h"
 439              		.file 21 "../../../ChibiOS/os/ports/common/ARMCMx/CMSIS/include/core_cm4.h"
 440              		.file 22 "../../../ChibiOS/os/various/chprintf.h"