ARM GAS  C:\Users\DNIEL~1\AppData\Local\Temp\ccrV7HYC.s 			page 1


   1              		.syntax unified
   2              		.cpu cortex-m4
   3              		.fpu softvfp
   4              		.eabi_attribute 20, 1
   5              		.eabi_attribute 21, 1
   6              		.eabi_attribute 23, 3
   7              		.eabi_attribute 24, 1
   8              		.eabi_attribute 25, 1
   9              		.eabi_attribute 26, 1
  10              		.eabi_attribute 30, 2
  11              		.eabi_attribute 34, 1
  12              		.eabi_attribute 18, 4
  13              		.thumb
  14              		.file	"light.c"
  15              		.text
  16              	.Ltext0:
  17              		.cfi_sections	.debug_frame
  18              		.section	.text.light_blink,"ax",%progbits
  19              		.align	2
  20              		.p2align 4,,15
  21              		.thumb
  22              		.thumb_func
  23              		.type	light_blink, %function
  24              	light_blink:
  25              	.LFB118:
  26              		.file 1 "src/light.c"
  27              		.loc 1 32 0
  28              		.cfi_startproc
  29              		@ args = 0, pretend = 0, frame = 0
  30              		@ frame_needed = 0, uses_anonymous_args = 0
  31              	.LVL0:
  32 0000 F8B5     		push	{r3, r4, r5, r6, r7, lr}
  33              	.LCFI0:
  34              		.cfi_def_cfa_offset 24
  35              		.cfi_offset 3, -24
  36              		.cfi_offset 4, -20
  37              		.cfi_offset 5, -16
  38              		.cfi_offset 6, -12
  39              		.cfi_offset 7, -8
  40              		.cfi_offset 14, -4
  41              		.loc 1 35 0
  42 0002 274F     		ldr	r7, .L12
  43 0004 2749     		ldr	r1, .L12+4
  44 0006 BA69     		ldr	r2, [r7, #24]
  45              		.loc 1 37 0
  46 0008 274B     		ldr	r3, .L12+8
  47              		.loc 1 35 0
  48 000a 9161     		str	r1, [r2, #24]
  49              		.loc 1 37 0
  50 000c 1978     		ldrb	r1, [r3, #0]	@ zero_extendqisi2
  51              		.loc 1 38 0
  52 000e 5868     		ldr	r0, [r3, #4]
  53              	.LVL1:
  54 0010 44F26754 		movw	r4, #17767
  55 0014 C0F22314 		movt	r4, 291
  56              		.loc 1 39 0
  57 0018 41F02001 		orr	r1, r1, #32
ARM GAS  C:\Users\DNIEL~1\AppData\Local\Temp\ccrV7HYC.s 			page 2


  58              		.loc 1 38 0
  59 001c 64F31C00 		bfi	r0, r4, #0, #29
  60              		.loc 1 40 0
  61 0020 01F0EF01 		and	r1, r1, #239
  62 0024 0824     		movs	r4, #8
  63 0026 64F30301 		bfi	r1, r4, #0, #4
  64 002a 1970     		strb	r1, [r3, #0]
  65              		.loc 1 38 0
  66 002c 5860     		str	r0, [r3, #4]
  67              		.loc 1 44 0
  68 002e 507F     		ldrb	r0, [r2, #29]	@ zero_extendqisi2
  69              		.loc 1 41 0
  70 0030 45F2AA52 		movw	r2, #21930
  71 0034 62F31F42 		bfi	r2, r2, #16, #16
  72              		.loc 1 44 0
  73 0038 00F00401 		and	r1, r0, #4
  74              		.loc 1 41 0
  75 003c 9A60     		str	r2, [r3, #8]
  76              		.loc 1 44 0
  77 003e C8B2     		uxtb	r0, r1
  78              		.loc 1 42 0
  79 0040 4FF0FF12 		mov	r2, #16711935
  80 0044 DA60     		str	r2, [r3, #12]
  81              		.loc 1 44 0
  82 0046 48BB     		cbnz	r0, .L10
  83              		.loc 1 46 0
  84 0048 41F25974 		movw	r4, #5977
  85 004c 174E     		ldr	r6, .L12+12
  86 004e 42F21075 		movw	r5, #10000
  87 0052 CDF2B714 		movt	r4, 53687
  88              	.L2:
  89              		.loc 1 45 0
  90 0056 1449     		ldr	r1, .L12+8
  91 0058 1548     		ldr	r0, .L12+16
  92 005a 6422     		movs	r2, #100
  93 005c FFF7FEFF 		bl	canTransmit
  94              	.LVL2:
  95              		.loc 1 46 0
  96 0060 3389     		ldrh	r3, [r6, #8]
  97 0062 1248     		ldr	r0, .L12+12
  98 0064 05FB03F3 		mul	r3, r5, r3
  99 0068 A4FB0331 		umull	r3, r1, r4, r3
 100 006c C1F34F32 		ubfx	r2, r1, #13, #16
 101 0070 0121     		movs	r1, #1
 102 0072 FFF7FEFF 		bl	pwmEnableChannel
 103              	.LVL3:
 104              		.loc 1 47 0
 105 0076 4FF4C870 		mov	r0, #400
 106 007a FFF7FEFF 		bl	chThdSleep
 107              	.LVL4:
 108              		.loc 1 49 0
 109 007e 0121     		movs	r1, #1
 110 0080 0A48     		ldr	r0, .L12+12
 111 0082 FFF7FEFF 		bl	pwmDisableChannel
 112              	.LVL5:
 113              		.loc 1 50 0
 114 0086 4FF4C870 		mov	r0, #400
ARM GAS  C:\Users\DNIEL~1\AppData\Local\Temp\ccrV7HYC.s 			page 3


 115 008a FFF7FEFF 		bl	chThdSleep
 116              	.LVL6:
 117              		.loc 1 44 0
 118 008e B869     		ldr	r0, [r7, #24]
 119 0090 427F     		ldrb	r2, [r0, #29]	@ zero_extendqisi2
 120 0092 02F00403 		and	r3, r2, #4
 121 0096 D9B2     		uxtb	r1, r3
 122 0098 0029     		cmp	r1, #0
 123 009a DCD0     		beq	.L2
 124              	.L10:
 125              		.loc 1 53 0
 126 009c 0020     		movs	r0, #0
 127 009e F8BD     		pop	{r3, r4, r5, r6, r7, pc}
 128              	.L13:
 129              		.align	2
 130              	.L12:
 131 00a0 00000000 		.word	rlist
 132 00a4 00000000 		.word	.LC0
 133 00a8 00000000 		.word	.LANCHOR0
 134 00ac 00000000 		.word	PWMD4
 135 00b0 00000000 		.word	CAND1
 136              		.cfi_endproc
 137              	.LFE118:
 138              		.size	light_blink, .-light_blink
 139 00b4 AFF30080 		.section	.text.lightInit,"ax",%progbits
 139      AFF30080 
 139      AFF30080 
 140              		.align	2
 141              		.p2align 4,,15
 142              		.global	lightInit
 143              		.thumb
 144              		.thumb_func
 145              		.type	lightInit, %function
 146              	lightInit:
 147              	.LFB119:
 148              		.loc 1 57 0
 149              		.cfi_startproc
 150              		@ args = 0, pretend = 0, frame = 0
 151              		@ frame_needed = 0, uses_anonymous_args = 0
 152 0000 00B5     		push	{lr}
 153              	.LCFI1:
 154              		.cfi_def_cfa_offset 4
 155              		.cfi_offset 14, -4
 156              		.loc 1 58 0
 157 0002 40F20000 		movw	r0, #:lower16:PWMD4
 158 0006 40F20001 		movw	r1, #:lower16:.LANCHOR1
 159              		.loc 1 57 0
 160 000a 83B0     		sub	sp, sp, #12
 161              	.LCFI2:
 162              		.cfi_def_cfa_offset 16
 163              		.loc 1 58 0
 164 000c C0F20000 		movt	r0, #:upper16:PWMD4
 165 0010 C0F20001 		movt	r1, #:upper16:.LANCHOR1
 166 0014 FFF7FEFF 		bl	pwmStart
 167              	.LVL7:
 168              		.loc 1 63 0
 169 0018 0023     		movs	r3, #0
ARM GAS  C:\Users\DNIEL~1\AppData\Local\Temp\ccrV7HYC.s 			page 4


 170 001a 0093     		str	r3, [sp, #0]
 171 001c 40F20000 		movw	r0, #:lower16:.LANCHOR2
 172 0020 40F20003 		movw	r3, #:lower16:light_blink
 173 0024 4FF4D871 		mov	r1, #432
 174 0028 4022     		movs	r2, #64
 175 002a C0F20003 		movt	r3, #:upper16:light_blink
 176 002e C0F20000 		movt	r0, #:upper16:.LANCHOR2
 177 0032 FFF7FEFF 		bl	chThdCreateStatic
 178              	.LVL8:
 179              		.loc 1 64 0
 180 0036 03B0     		add	sp, sp, #12
 181 0038 00BD     		pop	{pc}
 182              		.cfi_endproc
 183              	.LFE119:
 184              		.size	lightInit, .-lightInit
 185 003a 00BFAFF3 		.section	.text.lightCalc,"ax",%progbits
 185      0080
 186              		.align	2
 187              		.p2align 4,,15
 188              		.global	lightCalc
 189              		.thumb
 190              		.thumb_func
 191              		.type	lightCalc, %function
 192              	lightCalc:
 193              	.LFB120:
 194              		.loc 1 66 0
 195              		.cfi_startproc
 196              		@ args = 0, pretend = 0, frame = 0
 197              		@ frame_needed = 0, uses_anonymous_args = 0
 198 0000 70B5     		push	{r4, r5, r6, lr}
 199              	.LCFI3:
 200              		.cfi_def_cfa_offset 16
 201              		.cfi_offset 4, -16
 202              		.cfi_offset 5, -12
 203              		.cfi_offset 6, -8
 204              		.cfi_offset 14, -4
 205              		.loc 1 68 0
 206 0002 40F20003 		movw	r3, #:lower16:vtlist
 207              		.loc 1 71 0
 208 0006 40F20004 		movw	r4, #:lower16:PWMD4
 209 000a C0F20004 		movt	r4, #:upper16:PWMD4
 210              		.loc 1 68 0
 211 000e C0F20003 		movt	r3, #:upper16:vtlist
 212              		.loc 1 71 0
 213 0012 2289     		ldrh	r2, [r4, #8]
 214              		.loc 1 68 0
 215 0014 DE68     		ldr	r6, [r3, #12]
 216 0016 48F21961 		movw	r1, #34329
 217              		.loc 1 71 0
 218 001a 42F21073 		movw	r3, #10000
 219 001e 41F25975 		movw	r5, #5977
 220 0022 CDF2B715 		movt	r5, 53687
 221              		.loc 1 68 0
 222 0026 F008     		lsrs	r0, r6, #3
 223 0028 C1F66101 		movt	r1, 6241
 224              		.loc 1 71 0
 225 002c 03FB02F2 		mul	r2, r3, r2
ARM GAS  C:\Users\DNIEL~1\AppData\Local\Temp\ccrV7HYC.s 			page 5


 226              		.loc 1 68 0
 227 0030 40F20003 		movw	r3, #:lower16:.LANCHOR3
 228 0034 A1FB0006 		umull	r0, r6, r1, r0
 229 0038 C0F20003 		movt	r3, #:upper16:.LANCHOR3
 230              		.loc 1 71 0
 231 003c A5FB0202 		umull	r0, r2, r5, r2
 232 0040 0021     		movs	r1, #0
 233 0042 2046     		mov	r0, r4
 234              		.loc 1 68 0
 235 0044 7608     		lsrs	r6, r6, #1
 236              		.loc 1 71 0
 237 0046 C2F34F32 		ubfx	r2, r2, #13, #16
 238              		.loc 1 68 0
 239 004a 1E60     		str	r6, [r3, #0]
 240              		.loc 1 71 0
 241 004c FFF7FEFF 		bl	pwmEnableChannel
 242              	.LVL9:
 243              		.loc 1 77 0
 244 0050 2189     		ldrh	r1, [r4, #8]
 245 0052 41F28830 		movw	r0, #5000
 246 0056 00FB01F3 		mul	r3, r0, r1
 247 005a A5FB0312 		umull	r1, r2, r5, r3
 248 005e 2046     		mov	r0, r4
 249 0060 0221     		movs	r1, #2
 250 0062 520B     		lsrs	r2, r2, #13
 251 0064 FFF7FEFF 		bl	pwmEnableChannel
 252              	.LVL10:
 253              		.loc 1 80 0
 254 0068 2189     		ldrh	r1, [r4, #8]
 255 006a 4FF47A70 		mov	r0, #1000
 256 006e 00FB01F1 		mul	r1, r0, r1
 257 0072 A5FB0103 		umull	r0, r3, r5, r1
 258 0076 5A0B     		lsrs	r2, r3, #13
 259 0078 2046     		mov	r0, r4
 260 007a 0321     		movs	r1, #3
 261              		.loc 1 81 0
 262 007c BDE87040 		pop	{r4, r5, r6, lr}
 263              		.loc 1 80 0
 264 0080 FFF7FEBF 		b	pwmEnableChannel
 265              	.LVL11:
 266              		.cfi_endproc
 267              	.LFE120:
 268              		.size	lightCalc, .-lightCalc
 269 0084 AFF30080 		.section	.text.cmd_lightvalues,"ax",%progbits
 269      AFF30080 
 269      AFF30080 
 270              		.align	2
 271              		.p2align 4,,15
 272              		.global	cmd_lightvalues
 273              		.thumb
 274              		.thumb_func
 275              		.type	cmd_lightvalues, %function
 276              	cmd_lightvalues:
 277              	.LFB121:
 278              		.loc 1 83 0
 279              		.cfi_startproc
 280              		@ args = 0, pretend = 0, frame = 0
ARM GAS  C:\Users\DNIEL~1\AppData\Local\Temp\ccrV7HYC.s 			page 6


 281              		@ frame_needed = 0, uses_anonymous_args = 0
 282              	.LVL12:
 283 0000 38B5     		push	{r3, r4, r5, lr}
 284              	.LCFI4:
 285              		.cfi_def_cfa_offset 16
 286              		.cfi_offset 3, -16
 287              		.cfi_offset 4, -12
 288              		.cfi_offset 5, -8
 289              		.cfi_offset 14, -4
 290              		.loc 1 87 0
 291 0002 1249     		ldr	r1, .L19
 292              	.LVL13:
 293              		.loc 1 93 0
 294 0004 124D     		ldr	r5, .L19+4
 295              		.loc 1 83 0
 296 0006 0446     		mov	r4, r0
 297              		.loc 1 87 0
 298 0008 FFF7FEFF 		bl	chprintf
 299              	.LVL14:
 300              		.loc 1 88 0
 301 000c 2046     		mov	r0, r4
 302 000e 1149     		ldr	r1, .L19+8
 303 0010 FFF7FEFF 		bl	chprintf
 304              	.LVL15:
 305              		.loc 1 89 0
 306 0014 0EE0     		b	.L17
 307              	.LVL16:
 308              	.L18:
 309              		.loc 1 90 0
 310 0016 FFF7FEFF 		bl	chprintf
 311              	.LVL17:
 312              		.loc 1 92 0
 313 001a 2046     		mov	r0, r4
 314 001c 0E49     		ldr	r1, .L19+12
 315 001e FFF7FEFF 		bl	chprintf
 316              	.LVL18:
 317              		.loc 1 93 0
 318 0022 2046     		mov	r0, r4
 319 0024 0D49     		ldr	r1, .L19+16
 320 0026 2A68     		ldr	r2, [r5, #0]
 321 0028 FFF7FEFF 		bl	chprintf
 322              	.LVL19:
 323              		.loc 1 94 0
 324 002c 4FF47A70 		mov	r0, #1000
 325 0030 FFF7FEFF 		bl	chThdSleep
 326              	.LVL20:
 327              	.L17:
 328              		.loc 1 89 0 discriminator 1
 329 0034 2368     		ldr	r3, [r4, #0]
 330 0036 0021     		movs	r1, #0
 331 0038 5A69     		ldr	r2, [r3, #20]
 332 003a 2046     		mov	r0, r4
 333 003c 9047     		blx	r2
 334              	.LVL21:
 335              		.loc 1 90 0 discriminator 1
 336 003e 0022     		movs	r2, #0
 337              		.loc 1 89 0 discriminator 1
ARM GAS  C:\Users\DNIEL~1\AppData\Local\Temp\ccrV7HYC.s 			page 7


 338 0040 0130     		adds	r0, r0, #1
 339              		.loc 1 90 0 discriminator 1
 340 0042 1346     		mov	r3, r2
 341 0044 0649     		ldr	r1, .L19+20
 342 0046 2046     		mov	r0, r4
 343              		.loc 1 89 0 discriminator 1
 344 0048 E5D0     		beq	.L18
 345              	.LVL22:
 346              		.loc 1 96 0
 347 004a 38BD     		pop	{r3, r4, r5, pc}
 348              	.L20:
 349              		.align	2
 350              	.L19:
 351 004c 0C000000 		.word	.LC1
 352 0050 00000000 		.word	.LANCHOR3
 353 0054 10000000 		.word	.LC2
 354 0058 24000000 		.word	.LC4
 355 005c 38000000 		.word	.LC5
 356 0060 18000000 		.word	.LC3
 357              		.cfi_endproc
 358              	.LFE121:
 359              		.size	cmd_lightvalues, .-cmd_lightvalues
 360 0064 AFF30080 		.section	.bss.ido,"aw",%nobits
 360      AFF30080 
 360      AFF30080 
 361              		.align	2
 362              		.set	.LANCHOR3,. + 0
 363              		.type	ido, %object
 364              		.size	ido, 4
 365              	ido:
 366 0000 00000000 		.space	4
 367              		.section	.bss.txmsg,"aw",%nobits
 368              		.align	2
 369              		.set	.LANCHOR0,. + 0
 370              		.type	txmsg, %object
 371              		.size	txmsg, 16
 372              	txmsg:
 373 0000 00000000 		.space	16
 373      00000000 
 373      00000000 
 373      00000000 
 374              		.section	.bss.light_blink_wa,"aw",%nobits
 375              		.align	3
 376              		.set	.LANCHOR2,. + 0
 377              		.type	light_blink_wa, %object
 378              		.size	light_blink_wa, 432
 379              	light_blink_wa:
 380 0000 00000000 		.space	432
 380      00000000 
 380      00000000 
 380      00000000 
 380      00000000 
 381              		.section	.data.pwmcfg,"aw",%progbits
 382              		.align	2
 383              		.set	.LANCHOR1,. + 0
 384              		.type	pwmcfg, %object
 385              		.size	pwmcfg, 48
ARM GAS  C:\Users\DNIEL~1\AppData\Local\Temp\ccrV7HYC.s 			page 8


 386              	pwmcfg:
 387 0000 40420F00 		.word	1000000
 388 0004 E803     		.short	1000
 389 0006 0000     		.space	2
 390 0008 00000000 		.word	0
 391 000c 01000000 		.word	1
 392 0010 00000000 		.word	0
 393 0014 01000000 		.word	1
 394 0018 00000000 		.word	0
 395 001c 01000000 		.word	1
 396 0020 00000000 		.word	0
 397 0024 01000000 		.word	1
 398 0028 00000000 		.word	0
 399 002c 0000     		.short	0
 400 002e 0000     		.space	2
 401              		.section	.rodata.str1.4,"aMS",%progbits,1
 402              		.align	2
 403              	.LC0:
 404 0000 6C696768 		.ascii	"light_blink\000"
 404      745F626C 
 404      696E6B00 
 405              	.LC1:
 406 000c 1B6300   		.ascii	"\033c\000"
 407 000f 00       		.space	1
 408              	.LC2:
 409 0010 1B5B324A 		.ascii	"\033[2J\000"
 409      00
 410 0015 000000   		.space	3
 411              	.LC3:
 412 0018 1B5B2564 		.ascii	"\033[%d;%dH\000"
 412      3B256448 
 412      00
 413 0021 000000   		.space	3
 414              	.LC4:
 415 0024 2D2D2D2D 		.ascii	"---- PWM START ----\000"
 415      2050574D 
 415      20535441 
 415      5254202D 
 415      2D2D2D00 
 416              	.LC5:
 417 0038 69646F20 		.ascii	"ido : %x \015\012\000"
 417      3A202578 
 417      200D0A00 
 418              		.text
 419              	.Letext0:
 420              		.file 2 "c:\\chibistudio\\tools\\gnu tools arm embedded\\4.7 2014q2\\bin\\../lib/gcc/arm-none-eabi
 421              		.file 3 "c:\\chibistudio\\tools\\gnu tools arm embedded\\4.7 2014q2\\bin\\../lib/gcc/arm-none-eabi
 422              		.file 4 "../../../ChibiOS/os/ports/GCC/ARMCMx/chtypes.h"
 423              		.file 5 "../../../ChibiOS/os/kernel/include/chlists.h"
 424              		.file 6 "../../../ChibiOS/os/kernel/include/chthreads.h"
 425              		.file 7 "../../../ChibiOS/os/ports/GCC/ARMCMx/chcore_v7m.h"
 426              		.file 8 "../../../ChibiOS/os/kernel/include/chvt.h"
 427              		.file 9 "../../../ChibiOS/os/kernel/include/chschd.h"
 428              		.file 10 "../../../ChibiOS/os/kernel/include/chsem.h"
 429              		.file 11 "../../../ChibiOS/os/kernel/include/chmtx.h"
 430              		.file 12 "../../../ChibiOS/os/kernel/include/chevents.h"
 431              		.file 13 "../../../ChibiOS/os/kernel/include/chstreams.h"
ARM GAS  C:\Users\DNIEL~1\AppData\Local\Temp\ccrV7HYC.s 			page 9


 432              		.file 14 "../../../ChibiOS/os/hal/platforms/STM32F4xx/stm32f4xx.h"
 433              		.file 15 "../../../ChibiOS/os/hal/platforms/STM32/stm32.h"
 434              		.file 16 "../../../ChibiOS/os/hal/include/io_channel.h"
 435              		.file 17 "../../../ChibiOS/os/hal/include/can.h"
 436              		.file 18 "../../../ChibiOS/os/hal/platforms/STM32/can_lld.h"
 437              		.file 19 "../../../ChibiOS/os/hal/include/pwm.h"
 438              		.file 20 "../../../ChibiOS/os/hal/platforms/STM32/pwm_lld.h"
 439              		.file 21 "../../../ChibiOS/os/ports/common/ARMCMx/CMSIS/include/core_cm4.h"
 440              		.file 22 "../../../ChibiOS/os/various/chprintf.h"
 441              		.section	.debug_info,"",%progbits
 442              	.Ldebug_info0:
 443 0000 E8140000 		.4byte	0x14e8
 444 0004 0200     		.2byte	0x2
 445 0006 00000000 		.4byte	.Ldebug_abbrev0
 446 000a 04       		.byte	0x4
 447 000b 01       		.uleb128 0x1
 448 000c ED040000 		.4byte	.LASF212
 449 0010 01       		.byte	0x1
 450 0011 0F030000 		.4byte	.LASF213
 451 0015 FB000000 		.4byte	.LASF214
 452 0019 00000000 		.4byte	.Ldebug_ranges0+0
 453 001d 00000000 		.4byte	0
 454 0021 00000000 		.4byte	0
 455 0025 00000000 		.4byte	.Ldebug_line0
 456 0029 02       		.uleb128 0x2
 457 002a 04       		.byte	0x4
 458 002b 05       		.byte	0x5
 459 002c 696E7400 		.ascii	"int\000"
 460 0030 03       		.uleb128 0x3
 461 0031 00000000 		.4byte	.LASF2
 462 0035 02       		.byte	0x2
 463 0036 D5       		.byte	0xd5
 464 0037 3B000000 		.4byte	0x3b
 465 003b 04       		.uleb128 0x4
 466 003c 04       		.byte	0x4
 467 003d 07       		.byte	0x7
 468 003e 3D040000 		.4byte	.LASF0
 469 0042 04       		.uleb128 0x4
 470 0043 01       		.byte	0x1
 471 0044 06       		.byte	0x6
 472 0045 C5010000 		.4byte	.LASF1
 473 0049 03       		.uleb128 0x3
 474 004a DB010000 		.4byte	.LASF3
 475 004e 03       		.byte	0x3
 476 004f 2A       		.byte	0x2a
 477 0050 54000000 		.4byte	0x54
 478 0054 04       		.uleb128 0x4
 479 0055 01       		.byte	0x1
 480 0056 08       		.byte	0x8
 481 0057 42020000 		.4byte	.LASF4
 482 005b 04       		.uleb128 0x4
 483 005c 02       		.byte	0x2
 484 005d 05       		.byte	0x5
 485 005e C8060000 		.4byte	.LASF5
 486 0062 03       		.uleb128 0x3
 487 0063 7F050000 		.4byte	.LASF6
 488 0067 03       		.byte	0x3
ARM GAS  C:\Users\DNIEL~1\AppData\Local\Temp\ccrV7HYC.s 			page 10


 489 0068 36       		.byte	0x36
 490 0069 6D000000 		.4byte	0x6d
 491 006d 04       		.uleb128 0x4
 492 006e 02       		.byte	0x2
 493 006f 07       		.byte	0x7
 494 0070 C5070000 		.4byte	.LASF7
 495 0074 03       		.uleb128 0x3
 496 0075 40000000 		.4byte	.LASF8
 497 0079 03       		.byte	0x3
 498 007a 4F       		.byte	0x4f
 499 007b 7F000000 		.4byte	0x7f
 500 007f 04       		.uleb128 0x4
 501 0080 04       		.byte	0x4
 502 0081 05       		.byte	0x5
 503 0082 6F010000 		.4byte	.LASF9
 504 0086 03       		.uleb128 0x3
 505 0087 94070000 		.4byte	.LASF10
 506 008b 03       		.byte	0x3
 507 008c 50       		.byte	0x50
 508 008d 91000000 		.4byte	0x91
 509 0091 04       		.uleb128 0x4
 510 0092 04       		.byte	0x4
 511 0093 07       		.byte	0x7
 512 0094 61030000 		.4byte	.LASF11
 513 0098 04       		.uleb128 0x4
 514 0099 08       		.byte	0x8
 515 009a 05       		.byte	0x5
 516 009b A9030000 		.4byte	.LASF12
 517 009f 03       		.uleb128 0x3
 518 00a0 EA060000 		.4byte	.LASF13
 519 00a4 03       		.byte	0x3
 520 00a5 78       		.byte	0x78
 521 00a6 AA000000 		.4byte	0xaa
 522 00aa 04       		.uleb128 0x4
 523 00ab 08       		.byte	0x8
 524 00ac 07       		.byte	0x7
 525 00ad 57050000 		.4byte	.LASF14
 526 00b1 03       		.uleb128 0x3
 527 00b2 36060000 		.4byte	.LASF15
 528 00b6 04       		.byte	0x4
 529 00b7 28       		.byte	0x28
 530 00b8 49000000 		.4byte	0x49
 531 00bc 03       		.uleb128 0x3
 532 00bd 8B010000 		.4byte	.LASF16
 533 00c1 04       		.byte	0x4
 534 00c2 29       		.byte	0x29
 535 00c3 49000000 		.4byte	0x49
 536 00c7 03       		.uleb128 0x3
 537 00c8 4F070000 		.4byte	.LASF17
 538 00cc 04       		.byte	0x4
 539 00cd 2A       		.byte	0x2a
 540 00ce 49000000 		.4byte	0x49
 541 00d2 03       		.uleb128 0x3
 542 00d3 93050000 		.4byte	.LASF18
 543 00d7 04       		.byte	0x4
 544 00d8 2B       		.byte	0x2b
 545 00d9 49000000 		.4byte	0x49
ARM GAS  C:\Users\DNIEL~1\AppData\Local\Temp\ccrV7HYC.s 			page 11


 546 00dd 03       		.uleb128 0x3
 547 00de 27000000 		.4byte	.LASF19
 548 00e2 04       		.byte	0x4
 549 00e3 2C       		.byte	0x2c
 550 00e4 86000000 		.4byte	0x86
 551 00e8 03       		.uleb128 0x3
 552 00e9 88050000 		.4byte	.LASF20
 553 00ed 04       		.byte	0x4
 554 00ee 2D       		.byte	0x2d
 555 00ef 74000000 		.4byte	0x74
 556 00f3 03       		.uleb128 0x3
 557 00f4 E3010000 		.4byte	.LASF21
 558 00f8 04       		.byte	0x4
 559 00f9 2F       		.byte	0x2f
 560 00fa 86000000 		.4byte	0x86
 561 00fe 03       		.uleb128 0x3
 562 00ff B2040000 		.4byte	.LASF22
 563 0103 04       		.byte	0x4
 564 0104 30       		.byte	0x30
 565 0105 86000000 		.4byte	0x86
 566 0109 03       		.uleb128 0x3
 567 010a 10000000 		.4byte	.LASF23
 568 010e 04       		.byte	0x4
 569 010f 31       		.byte	0x31
 570 0110 86000000 		.4byte	0x86
 571 0114 03       		.uleb128 0x3
 572 0115 F5020000 		.4byte	.LASF24
 573 0119 04       		.byte	0x4
 574 011a 32       		.byte	0x32
 575 011b 74000000 		.4byte	0x74
 576 011f 03       		.uleb128 0x3
 577 0120 34070000 		.4byte	.LASF25
 578 0124 05       		.byte	0x5
 579 0125 23       		.byte	0x23
 580 0126 2A010000 		.4byte	0x12a
 581 012a 05       		.uleb128 0x5
 582 012b 34070000 		.4byte	.LASF25
 583 012f 48       		.byte	0x48
 584 0130 06       		.byte	0x6
 585 0131 57       		.byte	0x57
 586 0132 4F020000 		.4byte	0x24f
 587 0136 06       		.uleb128 0x6
 588 0137 78010000 		.4byte	.LASF26
 589 013b 06       		.byte	0x6
 590 013c 58       		.byte	0x58
 591 013d 74020000 		.4byte	0x274
 592 0141 02       		.byte	0x2
 593 0142 23       		.byte	0x23
 594 0143 00       		.uleb128 0
 595 0144 06       		.uleb128 0x6
 596 0145 7F010000 		.4byte	.LASF27
 597 0149 06       		.byte	0x6
 598 014a 5A       		.byte	0x5a
 599 014b 74020000 		.4byte	0x274
 600 014f 02       		.byte	0x2
 601 0150 23       		.byte	0x23
 602 0151 04       		.uleb128 0x4
ARM GAS  C:\Users\DNIEL~1\AppData\Local\Temp\ccrV7HYC.s 			page 12


 603 0152 06       		.uleb128 0x6
 604 0153 9E020000 		.4byte	.LASF28
 605 0157 06       		.byte	0x6
 606 0158 5C       		.byte	0x5c
 607 0159 DD000000 		.4byte	0xdd
 608 015d 02       		.byte	0x2
 609 015e 23       		.byte	0x23
 610 015f 08       		.uleb128 0x8
 611 0160 06       		.uleb128 0x6
 612 0161 21000000 		.4byte	.LASF29
 613 0165 06       		.byte	0x6
 614 0166 5D       		.byte	0x5d
 615 0167 4D030000 		.4byte	0x34d
 616 016b 02       		.byte	0x2
 617 016c 23       		.byte	0x23
 618 016d 0C       		.uleb128 0xc
 619 016e 06       		.uleb128 0x6
 620 016f 67010000 		.4byte	.LASF30
 621 0173 06       		.byte	0x6
 622 0174 5F       		.byte	0x5f
 623 0175 74020000 		.4byte	0x274
 624 0179 02       		.byte	0x2
 625 017a 23       		.byte	0x23
 626 017b 10       		.uleb128 0x10
 627 017c 06       		.uleb128 0x6
 628 017d 77050000 		.4byte	.LASF31
 629 0181 06       		.byte	0x6
 630 0182 60       		.byte	0x60
 631 0183 74020000 		.4byte	0x274
 632 0187 02       		.byte	0x2
 633 0188 23       		.byte	0x23
 634 0189 14       		.uleb128 0x14
 635 018a 06       		.uleb128 0x6
 636 018b 15080000 		.4byte	.LASF32
 637 018f 06       		.byte	0x6
 638 0190 67       		.byte	0x67
 639 0191 E3050000 		.4byte	0x5e3
 640 0195 02       		.byte	0x2
 641 0196 23       		.byte	0x23
 642 0197 18       		.uleb128 0x18
 643 0198 06       		.uleb128 0x6
 644 0199 57080000 		.4byte	.LASF33
 645 019d 06       		.byte	0x6
 646 019e 72       		.byte	0x72
 647 019f BC000000 		.4byte	0xbc
 648 01a3 02       		.byte	0x2
 649 01a4 23       		.byte	0x23
 650 01a5 1C       		.uleb128 0x1c
 651 01a6 06       		.uleb128 0x6
 652 01a7 30040000 		.4byte	.LASF34
 653 01ab 06       		.byte	0x6
 654 01ac 76       		.byte	0x76
 655 01ad B1000000 		.4byte	0xb1
 656 01b1 02       		.byte	0x2
 657 01b2 23       		.byte	0x23
 658 01b3 1D       		.uleb128 0x1d
 659 01b4 06       		.uleb128 0x6
ARM GAS  C:\Users\DNIEL~1\AppData\Local\Temp\ccrV7HYC.s 			page 13


 660 01b5 62040000 		.4byte	.LASF35
 661 01b9 06       		.byte	0x6
 662 01ba 7B       		.byte	0x7b
 663 01bb C7000000 		.4byte	0xc7
 664 01bf 02       		.byte	0x2
 665 01c0 23       		.byte	0x23
 666 01c1 1E       		.uleb128 0x1e
 667 01c2 06       		.uleb128 0x6
 668 01c3 D1010000 		.4byte	.LASF36
 669 01c7 06       		.byte	0x6
 670 01c8 81       		.byte	0x81
 671 01c9 D2000000 		.4byte	0xd2
 672 01cd 02       		.byte	0x2
 673 01ce 23       		.byte	0x23
 674 01cf 1F       		.uleb128 0x1f
 675 01d0 06       		.uleb128 0x6
 676 01d1 D6040000 		.4byte	.LASF37
 677 01d5 06       		.byte	0x6
 678 01d6 88       		.byte	0x88
 679 01d7 3E040000 		.4byte	0x43e
 680 01db 02       		.byte	0x2
 681 01dc 23       		.byte	0x23
 682 01dd 20       		.uleb128 0x20
 683 01de 07       		.uleb128 0x7
 684 01df 705F7500 		.ascii	"p_u\000"
 685 01e3 06       		.byte	0x6
 686 01e4 AD       		.byte	0xad
 687 01e5 AE050000 		.4byte	0x5ae
 688 01e9 02       		.byte	0x2
 689 01ea 23       		.byte	0x23
 690 01eb 24       		.uleb128 0x24
 691 01ec 06       		.uleb128 0x6
 692 01ed 26040000 		.4byte	.LASF38
 693 01f1 06       		.byte	0x6
 694 01f2 B2       		.byte	0xb2
 695 01f3 9C020000 		.4byte	0x29c
 696 01f7 02       		.byte	0x2
 697 01f8 23       		.byte	0x23
 698 01f9 28       		.uleb128 0x28
 699 01fa 06       		.uleb128 0x6
 700 01fb 2F000000 		.4byte	.LASF39
 701 01ff 06       		.byte	0x6
 702 0200 B8       		.byte	0xb8
 703 0201 7A020000 		.4byte	0x27a
 704 0205 02       		.byte	0x2
 705 0206 23       		.byte	0x23
 706 0207 2C       		.uleb128 0x2c
 707 0208 06       		.uleb128 0x6
 708 0209 45080000 		.4byte	.LASF40
 709 020d 06       		.byte	0x6
 710 020e BC       		.byte	0xbc
 711 020f E8000000 		.4byte	0xe8
 712 0213 02       		.byte	0x2
 713 0214 23       		.byte	0x23
 714 0215 34       		.uleb128 0x34
 715 0216 06       		.uleb128 0x6
 716 0217 2A030000 		.4byte	.LASF41
ARM GAS  C:\Users\DNIEL~1\AppData\Local\Temp\ccrV7HYC.s 			page 14


 717 021b 06       		.byte	0x6
 718 021c C2       		.byte	0xc2
 719 021d F3000000 		.4byte	0xf3
 720 0221 02       		.byte	0x2
 721 0222 23       		.byte	0x23
 722 0223 38       		.uleb128 0x38
 723 0224 06       		.uleb128 0x6
 724 0225 A0010000 		.4byte	.LASF42
 725 0229 06       		.byte	0x6
 726 022a C9       		.byte	0xc9
 727 022b F5050000 		.4byte	0x5f5
 728 022f 02       		.byte	0x2
 729 0230 23       		.byte	0x23
 730 0231 3C       		.uleb128 0x3c
 731 0232 06       		.uleb128 0x6
 732 0233 40050000 		.4byte	.LASF43
 733 0237 06       		.byte	0x6
 734 0238 CD       		.byte	0xcd
 735 0239 DD000000 		.4byte	0xdd
 736 023d 02       		.byte	0x2
 737 023e 23       		.byte	0x23
 738 023f 40       		.uleb128 0x40
 739 0240 06       		.uleb128 0x6
 740 0241 4A040000 		.4byte	.LASF44
 741 0245 06       		.byte	0x6
 742 0246 D3       		.byte	0xd3
 743 0247 B2020000 		.4byte	0x2b2
 744 024b 02       		.byte	0x2
 745 024c 23       		.byte	0x23
 746 024d 44       		.uleb128 0x44
 747 024e 00       		.byte	0
 748 024f 08       		.uleb128 0x8
 749 0250 08       		.byte	0x8
 750 0251 05       		.byte	0x5
 751 0252 5A       		.byte	0x5a
 752 0253 74020000 		.4byte	0x274
 753 0257 06       		.uleb128 0x6
 754 0258 78010000 		.4byte	.LASF26
 755 025c 05       		.byte	0x5
 756 025d 5B       		.byte	0x5b
 757 025e 74020000 		.4byte	0x274
 758 0262 02       		.byte	0x2
 759 0263 23       		.byte	0x23
 760 0264 00       		.uleb128 0
 761 0265 06       		.uleb128 0x6
 762 0266 7F010000 		.4byte	.LASF27
 763 026a 05       		.byte	0x5
 764 026b 5D       		.byte	0x5d
 765 026c 74020000 		.4byte	0x274
 766 0270 02       		.byte	0x2
 767 0271 23       		.byte	0x23
 768 0272 04       		.uleb128 0x4
 769 0273 00       		.byte	0
 770 0274 09       		.uleb128 0x9
 771 0275 04       		.byte	0x4
 772 0276 1F010000 		.4byte	0x11f
 773 027a 03       		.uleb128 0x3
ARM GAS  C:\Users\DNIEL~1\AppData\Local\Temp\ccrV7HYC.s 			page 15


 774 027b AA070000 		.4byte	.LASF45
 775 027f 05       		.byte	0x5
 776 0280 5F       		.byte	0x5f
 777 0281 4F020000 		.4byte	0x24f
 778 0285 08       		.uleb128 0x8
 779 0286 04       		.byte	0x4
 780 0287 05       		.byte	0x5
 781 0288 64       		.byte	0x64
 782 0289 9C020000 		.4byte	0x29c
 783 028d 06       		.uleb128 0x6
 784 028e 78010000 		.4byte	.LASF26
 785 0292 05       		.byte	0x5
 786 0293 66       		.byte	0x66
 787 0294 74020000 		.4byte	0x274
 788 0298 02       		.byte	0x2
 789 0299 23       		.byte	0x23
 790 029a 00       		.uleb128 0
 791 029b 00       		.byte	0
 792 029c 03       		.uleb128 0x3
 793 029d 92040000 		.4byte	.LASF46
 794 02a1 05       		.byte	0x5
 795 02a2 69       		.byte	0x69
 796 02a3 85020000 		.4byte	0x285
 797 02a7 03       		.uleb128 0x3
 798 02a8 AA010000 		.4byte	.LASF47
 799 02ac 07       		.byte	0x7
 800 02ad DE       		.byte	0xde
 801 02ae B2020000 		.4byte	0x2b2
 802 02b2 0A       		.uleb128 0xa
 803 02b3 04       		.byte	0x4
 804 02b4 03       		.uleb128 0x3
 805 02b5 B1020000 		.4byte	.LASF48
 806 02b9 07       		.byte	0x7
 807 02ba E4       		.byte	0xe4
 808 02bb 9F000000 		.4byte	0x9f
 809 02bf 0B       		.uleb128 0xb
 810 02c0 23030000 		.4byte	.LASF49
 811 02c4 24       		.byte	0x24
 812 02c5 07       		.byte	0x7
 813 02c6 0501     		.2byte	0x105
 814 02c8 4D030000 		.4byte	0x34d
 815 02cc 0C       		.uleb128 0xc
 816 02cd 723400   		.ascii	"r4\000"
 817 02d0 07       		.byte	0x7
 818 02d1 1801     		.2byte	0x118
 819 02d3 A7020000 		.4byte	0x2a7
 820 02d7 02       		.byte	0x2
 821 02d8 23       		.byte	0x23
 822 02d9 00       		.uleb128 0
 823 02da 0C       		.uleb128 0xc
 824 02db 723500   		.ascii	"r5\000"
 825 02de 07       		.byte	0x7
 826 02df 1901     		.2byte	0x119
 827 02e1 A7020000 		.4byte	0x2a7
 828 02e5 02       		.byte	0x2
 829 02e6 23       		.byte	0x23
 830 02e7 04       		.uleb128 0x4
ARM GAS  C:\Users\DNIEL~1\AppData\Local\Temp\ccrV7HYC.s 			page 16


 831 02e8 0C       		.uleb128 0xc
 832 02e9 723600   		.ascii	"r6\000"
 833 02ec 07       		.byte	0x7
 834 02ed 1A01     		.2byte	0x11a
 835 02ef A7020000 		.4byte	0x2a7
 836 02f3 02       		.byte	0x2
 837 02f4 23       		.byte	0x23
 838 02f5 08       		.uleb128 0x8
 839 02f6 0C       		.uleb128 0xc
 840 02f7 723700   		.ascii	"r7\000"
 841 02fa 07       		.byte	0x7
 842 02fb 1B01     		.2byte	0x11b
 843 02fd A7020000 		.4byte	0x2a7
 844 0301 02       		.byte	0x2
 845 0302 23       		.byte	0x23
 846 0303 0C       		.uleb128 0xc
 847 0304 0C       		.uleb128 0xc
 848 0305 723800   		.ascii	"r8\000"
 849 0308 07       		.byte	0x7
 850 0309 1C01     		.2byte	0x11c
 851 030b A7020000 		.4byte	0x2a7
 852 030f 02       		.byte	0x2
 853 0310 23       		.byte	0x23
 854 0311 10       		.uleb128 0x10
 855 0312 0C       		.uleb128 0xc
 856 0313 723900   		.ascii	"r9\000"
 857 0316 07       		.byte	0x7
 858 0317 1D01     		.2byte	0x11d
 859 0319 A7020000 		.4byte	0x2a7
 860 031d 02       		.byte	0x2
 861 031e 23       		.byte	0x23
 862 031f 14       		.uleb128 0x14
 863 0320 0C       		.uleb128 0xc
 864 0321 72313000 		.ascii	"r10\000"
 865 0325 07       		.byte	0x7
 866 0326 1E01     		.2byte	0x11e
 867 0328 A7020000 		.4byte	0x2a7
 868 032c 02       		.byte	0x2
 869 032d 23       		.byte	0x23
 870 032e 18       		.uleb128 0x18
 871 032f 0C       		.uleb128 0xc
 872 0330 72313100 		.ascii	"r11\000"
 873 0334 07       		.byte	0x7
 874 0335 1F01     		.2byte	0x11f
 875 0337 A7020000 		.4byte	0x2a7
 876 033b 02       		.byte	0x2
 877 033c 23       		.byte	0x23
 878 033d 1C       		.uleb128 0x1c
 879 033e 0C       		.uleb128 0xc
 880 033f 6C7200   		.ascii	"lr\000"
 881 0342 07       		.byte	0x7
 882 0343 2001     		.2byte	0x120
 883 0345 A7020000 		.4byte	0x2a7
 884 0349 02       		.byte	0x2
 885 034a 23       		.byte	0x23
 886 034b 20       		.uleb128 0x20
 887 034c 00       		.byte	0
ARM GAS  C:\Users\DNIEL~1\AppData\Local\Temp\ccrV7HYC.s 			page 17


 888 034d 0B       		.uleb128 0xb
 889 034e 0A020000 		.4byte	.LASF50
 890 0352 04       		.byte	0x4
 891 0353 07       		.byte	0x7
 892 0354 2A01     		.2byte	0x12a
 893 0356 6A030000 		.4byte	0x36a
 894 035a 0C       		.uleb128 0xc
 895 035b 72313300 		.ascii	"r13\000"
 896 035f 07       		.byte	0x7
 897 0360 2B01     		.2byte	0x12b
 898 0362 6A030000 		.4byte	0x36a
 899 0366 02       		.byte	0x2
 900 0367 23       		.byte	0x23
 901 0368 00       		.uleb128 0
 902 0369 00       		.byte	0
 903 036a 09       		.uleb128 0x9
 904 036b 04       		.byte	0x4
 905 036c BF020000 		.4byte	0x2bf
 906 0370 0D       		.uleb128 0xd
 907 0371 86000000 		.4byte	0x86
 908 0375 04       		.uleb128 0x4
 909 0376 04       		.byte	0x4
 910 0377 07       		.byte	0x7
 911 0378 07000000 		.4byte	.LASF51
 912 037c 03       		.uleb128 0x3
 913 037d 4F000000 		.4byte	.LASF52
 914 0381 08       		.byte	0x8
 915 0382 4E       		.byte	0x4e
 916 0383 87030000 		.4byte	0x387
 917 0387 09       		.uleb128 0x9
 918 0388 04       		.byte	0x4
 919 0389 8D030000 		.4byte	0x38d
 920 038d 0E       		.uleb128 0xe
 921 038e 01       		.byte	0x1
 922 038f 99030000 		.4byte	0x399
 923 0393 0F       		.uleb128 0xf
 924 0394 B2020000 		.4byte	0x2b2
 925 0398 00       		.byte	0
 926 0399 03       		.uleb128 0x3
 927 039a 9D070000 		.4byte	.LASF53
 928 039e 08       		.byte	0x8
 929 039f 53       		.byte	0x53
 930 03a0 A4030000 		.4byte	0x3a4
 931 03a4 05       		.uleb128 0x5
 932 03a5 9D070000 		.4byte	.LASF53
 933 03a9 14       		.byte	0x14
 934 03aa 08       		.byte	0x8
 935 03ab 5A       		.byte	0x5a
 936 03ac F7030000 		.4byte	0x3f7
 937 03b0 06       		.uleb128 0x6
 938 03b1 CC030000 		.4byte	.LASF54
 939 03b5 08       		.byte	0x8
 940 03b6 5B       		.byte	0x5b
 941 03b7 F7030000 		.4byte	0x3f7
 942 03bb 02       		.byte	0x2
 943 03bc 23       		.byte	0x23
 944 03bd 00       		.uleb128 0
ARM GAS  C:\Users\DNIEL~1\AppData\Local\Temp\ccrV7HYC.s 			page 18


 945 03be 06       		.uleb128 0x6
 946 03bf 6E020000 		.4byte	.LASF55
 947 03c3 08       		.byte	0x8
 948 03c4 5D       		.byte	0x5d
 949 03c5 F7030000 		.4byte	0x3f7
 950 03c9 02       		.byte	0x2
 951 03ca 23       		.byte	0x23
 952 03cb 04       		.uleb128 0x4
 953 03cc 06       		.uleb128 0x6
 954 03cd 1C080000 		.4byte	.LASF56
 955 03d1 08       		.byte	0x8
 956 03d2 5F       		.byte	0x5f
 957 03d3 09010000 		.4byte	0x109
 958 03d7 02       		.byte	0x2
 959 03d8 23       		.byte	0x23
 960 03d9 08       		.uleb128 0x8
 961 03da 06       		.uleb128 0x6
 962 03db 1B030000 		.4byte	.LASF57
 963 03df 08       		.byte	0x8
 964 03e0 60       		.byte	0x60
 965 03e1 7C030000 		.4byte	0x37c
 966 03e5 02       		.byte	0x2
 967 03e6 23       		.byte	0x23
 968 03e7 0C       		.uleb128 0xc
 969 03e8 06       		.uleb128 0x6
 970 03e9 38010000 		.4byte	.LASF58
 971 03ed 08       		.byte	0x8
 972 03ee 62       		.byte	0x62
 973 03ef B2020000 		.4byte	0x2b2
 974 03f3 02       		.byte	0x2
 975 03f4 23       		.byte	0x23
 976 03f5 10       		.uleb128 0x10
 977 03f6 00       		.byte	0
 978 03f7 09       		.uleb128 0x9
 979 03f8 04       		.byte	0x4
 980 03f9 99030000 		.4byte	0x399
 981 03fd 08       		.uleb128 0x8
 982 03fe 10       		.byte	0x10
 983 03ff 08       		.byte	0x8
 984 0400 6C       		.byte	0x6c
 985 0401 3E040000 		.4byte	0x43e
 986 0405 06       		.uleb128 0x6
 987 0406 CC030000 		.4byte	.LASF54
 988 040a 08       		.byte	0x8
 989 040b 6D       		.byte	0x6d
 990 040c F7030000 		.4byte	0x3f7
 991 0410 02       		.byte	0x2
 992 0411 23       		.byte	0x23
 993 0412 00       		.uleb128 0
 994 0413 06       		.uleb128 0x6
 995 0414 6E020000 		.4byte	.LASF55
 996 0418 08       		.byte	0x8
 997 0419 6F       		.byte	0x6f
 998 041a F7030000 		.4byte	0x3f7
 999 041e 02       		.byte	0x2
 1000 041f 23       		.byte	0x23
 1001 0420 04       		.uleb128 0x4
ARM GAS  C:\Users\DNIEL~1\AppData\Local\Temp\ccrV7HYC.s 			page 19


 1002 0421 06       		.uleb128 0x6
 1003 0422 1C080000 		.4byte	.LASF56
 1004 0426 08       		.byte	0x8
 1005 0427 71       		.byte	0x71
 1006 0428 09010000 		.4byte	0x109
 1007 042c 02       		.byte	0x2
 1008 042d 23       		.byte	0x23
 1009 042e 08       		.uleb128 0x8
 1010 042f 06       		.uleb128 0x6
 1011 0430 4A060000 		.4byte	.LASF59
 1012 0434 08       		.byte	0x8
 1013 0435 72       		.byte	0x72
 1014 0436 3E040000 		.4byte	0x43e
 1015 043a 02       		.byte	0x2
 1016 043b 23       		.byte	0x23
 1017 043c 0C       		.uleb128 0xc
 1018 043d 00       		.byte	0
 1019 043e 0D       		.uleb128 0xd
 1020 043f 09010000 		.4byte	0x109
 1021 0443 03       		.uleb128 0x3
 1022 0444 AC050000 		.4byte	.LASF60
 1023 0448 08       		.byte	0x8
 1024 0449 73       		.byte	0x73
 1025 044a FD030000 		.4byte	0x3fd
 1026 044e 08       		.uleb128 0x8
 1027 044f 1C       		.byte	0x1c
 1028 0450 09       		.byte	0x9
 1029 0451 57       		.byte	0x57
 1030 0452 AB040000 		.4byte	0x4ab
 1031 0456 06       		.uleb128 0x6
 1032 0457 0A060000 		.4byte	.LASF61
 1033 045b 09       		.byte	0x9
 1034 045c 58       		.byte	0x58
 1035 045d 7A020000 		.4byte	0x27a
 1036 0461 02       		.byte	0x2
 1037 0462 23       		.byte	0x23
 1038 0463 00       		.uleb128 0
 1039 0464 06       		.uleb128 0x6
 1040 0465 18070000 		.4byte	.LASF62
 1041 0469 09       		.byte	0x9
 1042 046a 59       		.byte	0x59
 1043 046b DD000000 		.4byte	0xdd
 1044 046f 02       		.byte	0x2
 1045 0470 23       		.byte	0x23
 1046 0471 08       		.uleb128 0x8
 1047 0472 06       		.uleb128 0x6
 1048 0473 3A000000 		.4byte	.LASF63
 1049 0477 09       		.byte	0x9
 1050 0478 5B       		.byte	0x5b
 1051 0479 4D030000 		.4byte	0x34d
 1052 047d 02       		.byte	0x2
 1053 047e 23       		.byte	0x23
 1054 047f 0C       		.uleb128 0xc
 1055 0480 06       		.uleb128 0x6
 1056 0481 7B020000 		.4byte	.LASF64
 1057 0485 09       		.byte	0x9
 1058 0486 5E       		.byte	0x5e
ARM GAS  C:\Users\DNIEL~1\AppData\Local\Temp\ccrV7HYC.s 			page 20


 1059 0487 74020000 		.4byte	0x274
 1060 048b 02       		.byte	0x2
 1061 048c 23       		.byte	0x23
 1062 048d 10       		.uleb128 0x10
 1063 048e 06       		.uleb128 0x6
 1064 048f 68060000 		.4byte	.LASF65
 1065 0493 09       		.byte	0x9
 1066 0494 5F       		.byte	0x5f
 1067 0495 74020000 		.4byte	0x274
 1068 0499 02       		.byte	0x2
 1069 049a 23       		.byte	0x23
 1070 049b 14       		.uleb128 0x14
 1071 049c 06       		.uleb128 0x6
 1072 049d A2050000 		.4byte	.LASF66
 1073 04a1 09       		.byte	0x9
 1074 04a2 62       		.byte	0x62
 1075 04a3 74020000 		.4byte	0x274
 1076 04a7 02       		.byte	0x2
 1077 04a8 23       		.byte	0x23
 1078 04a9 18       		.uleb128 0x18
 1079 04aa 00       		.byte	0
 1080 04ab 03       		.uleb128 0x3
 1081 04ac 02080000 		.4byte	.LASF67
 1082 04b0 09       		.byte	0x9
 1083 04b1 64       		.byte	0x64
 1084 04b2 4E040000 		.4byte	0x44e
 1085 04b6 05       		.uleb128 0x5
 1086 04b7 36050000 		.4byte	.LASF68
 1087 04bb 0C       		.byte	0xc
 1088 04bc 0A       		.byte	0xa
 1089 04bd 25       		.byte	0x25
 1090 04be DF040000 		.4byte	0x4df
 1091 04c2 06       		.uleb128 0x6
 1092 04c3 70060000 		.4byte	.LASF69
 1093 04c7 0A       		.byte	0xa
 1094 04c8 26       		.byte	0x26
 1095 04c9 7A020000 		.4byte	0x27a
 1096 04cd 02       		.byte	0x2
 1097 04ce 23       		.byte	0x23
 1098 04cf 00       		.uleb128 0
 1099 04d0 06       		.uleb128 0x6
 1100 04d1 51050000 		.4byte	.LASF70
 1101 04d5 0A       		.byte	0xa
 1102 04d6 28       		.byte	0x28
 1103 04d7 14010000 		.4byte	0x114
 1104 04db 02       		.byte	0x2
 1105 04dc 23       		.byte	0x23
 1106 04dd 08       		.uleb128 0x8
 1107 04de 00       		.byte	0
 1108 04df 03       		.uleb128 0x3
 1109 04e0 36050000 		.4byte	.LASF68
 1110 04e4 0A       		.byte	0xa
 1111 04e5 29       		.byte	0x29
 1112 04e6 B6040000 		.4byte	0x4b6
 1113 04ea 05       		.uleb128 0x5
 1114 04eb A3030000 		.4byte	.LASF71
 1115 04ef 10       		.byte	0x10
ARM GAS  C:\Users\DNIEL~1\AppData\Local\Temp\ccrV7HYC.s 			page 21


 1116 04f0 0B       		.byte	0xb
 1117 04f1 25       		.byte	0x25
 1118 04f2 21050000 		.4byte	0x521
 1119 04f6 06       		.uleb128 0x6
 1120 04f7 C4030000 		.4byte	.LASF72
 1121 04fb 0B       		.byte	0xb
 1122 04fc 26       		.byte	0x26
 1123 04fd 7A020000 		.4byte	0x27a
 1124 0501 02       		.byte	0x2
 1125 0502 23       		.byte	0x23
 1126 0503 00       		.uleb128 0
 1127 0504 06       		.uleb128 0x6
 1128 0505 30010000 		.4byte	.LASF73
 1129 0509 0B       		.byte	0xb
 1130 050a 28       		.byte	0x28
 1131 050b 74020000 		.4byte	0x274
 1132 050f 02       		.byte	0x2
 1133 0510 23       		.byte	0x23
 1134 0511 08       		.uleb128 0x8
 1135 0512 06       		.uleb128 0x6
 1136 0513 24080000 		.4byte	.LASF74
 1137 0517 0B       		.byte	0xb
 1138 0518 2A       		.byte	0x2a
 1139 0519 21050000 		.4byte	0x521
 1140 051d 02       		.byte	0x2
 1141 051e 23       		.byte	0x23
 1142 051f 0C       		.uleb128 0xc
 1143 0520 00       		.byte	0
 1144 0521 09       		.uleb128 0x9
 1145 0522 04       		.byte	0x4
 1146 0523 EA040000 		.4byte	0x4ea
 1147 0527 03       		.uleb128 0x3
 1148 0528 A3030000 		.4byte	.LASF71
 1149 052c 0B       		.byte	0xb
 1150 052d 2C       		.byte	0x2c
 1151 052e EA040000 		.4byte	0x4ea
 1152 0532 03       		.uleb128 0x3
 1153 0533 57070000 		.4byte	.LASF75
 1154 0537 0C       		.byte	0xc
 1155 0538 25       		.byte	0x25
 1156 0539 3D050000 		.4byte	0x53d
 1157 053d 05       		.uleb128 0x5
 1158 053e 57070000 		.4byte	.LASF75
 1159 0542 10       		.byte	0x10
 1160 0543 0C       		.byte	0xc
 1161 0544 2A       		.byte	0x2a
 1162 0545 82050000 		.4byte	0x582
 1163 0549 06       		.uleb128 0x6
 1164 054a 78030000 		.4byte	.LASF76
 1165 054e 0C       		.byte	0xc
 1166 054f 2B       		.byte	0x2b
 1167 0550 82050000 		.4byte	0x582
 1168 0554 02       		.byte	0x2
 1169 0555 23       		.byte	0x23
 1170 0556 00       		.uleb128 0
 1171 0557 06       		.uleb128 0x6
 1172 0558 4B080000 		.4byte	.LASF77
ARM GAS  C:\Users\DNIEL~1\AppData\Local\Temp\ccrV7HYC.s 			page 22


 1173 055c 0C       		.byte	0xc
 1174 055d 2E       		.byte	0x2e
 1175 055e 74020000 		.4byte	0x274
 1176 0562 02       		.byte	0x2
 1177 0563 23       		.byte	0x23
 1178 0564 04       		.uleb128 0x4
 1179 0565 06       		.uleb128 0x6
 1180 0566 FA070000 		.4byte	.LASF78
 1181 056a 0C       		.byte	0xc
 1182 056b 30       		.byte	0x30
 1183 056c F3000000 		.4byte	0xf3
 1184 0570 02       		.byte	0x2
 1185 0571 23       		.byte	0x23
 1186 0572 08       		.uleb128 0x8
 1187 0573 06       		.uleb128 0x6
 1188 0574 9B000000 		.4byte	.LASF79
 1189 0578 0C       		.byte	0xc
 1190 0579 33       		.byte	0x33
 1191 057a FE000000 		.4byte	0xfe
 1192 057e 02       		.byte	0x2
 1193 057f 23       		.byte	0x23
 1194 0580 0C       		.uleb128 0xc
 1195 0581 00       		.byte	0
 1196 0582 09       		.uleb128 0x9
 1197 0583 04       		.byte	0x4
 1198 0584 32050000 		.4byte	0x532
 1199 0588 05       		.uleb128 0x5
 1200 0589 55030000 		.4byte	.LASF80
 1201 058d 04       		.byte	0x4
 1202 058e 0C       		.byte	0xc
 1203 058f 3A       		.byte	0x3a
 1204 0590 A3050000 		.4byte	0x5a3
 1205 0594 06       		.uleb128 0x6
 1206 0595 4D030000 		.4byte	.LASF81
 1207 0599 0C       		.byte	0xc
 1208 059a 3B       		.byte	0x3b
 1209 059b 82050000 		.4byte	0x582
 1210 059f 02       		.byte	0x2
 1211 05a0 23       		.byte	0x23
 1212 05a1 00       		.uleb128 0
 1213 05a2 00       		.byte	0
 1214 05a3 03       		.uleb128 0x3
 1215 05a4 55030000 		.4byte	.LASF80
 1216 05a8 0C       		.byte	0xc
 1217 05a9 3E       		.byte	0x3e
 1218 05aa 88050000 		.4byte	0x588
 1219 05ae 10       		.uleb128 0x10
 1220 05af 04       		.byte	0x4
 1221 05b0 06       		.byte	0x6
 1222 05b1 8F       		.byte	0x8f
 1223 05b2 E3050000 		.4byte	0x5e3
 1224 05b6 11       		.uleb128 0x11
 1225 05b7 BE070000 		.4byte	.LASF82
 1226 05bb 06       		.byte	0x6
 1227 05bc 96       		.byte	0x96
 1228 05bd E8000000 		.4byte	0xe8
 1229 05c1 11       		.uleb128 0x11
ARM GAS  C:\Users\DNIEL~1\AppData\Local\Temp\ccrV7HYC.s 			page 23


 1230 05c2 3F010000 		.4byte	.LASF83
 1231 05c6 06       		.byte	0x6
 1232 05c7 9D       		.byte	0x9d
 1233 05c8 E8000000 		.4byte	0xe8
 1234 05cc 11       		.uleb128 0x11
 1235 05cd A5020000 		.4byte	.LASF84
 1236 05d1 06       		.byte	0x6
 1237 05d2 A4       		.byte	0xa4
 1238 05d3 B2020000 		.4byte	0x2b2
 1239 05d7 11       		.uleb128 0x11
 1240 05d8 48010000 		.4byte	.LASF85
 1241 05dc 06       		.byte	0x6
 1242 05dd AB       		.byte	0xab
 1243 05de F3000000 		.4byte	0xf3
 1244 05e2 00       		.byte	0
 1245 05e3 09       		.uleb128 0x9
 1246 05e4 04       		.byte	0x4
 1247 05e5 E9050000 		.4byte	0x5e9
 1248 05e9 12       		.uleb128 0x12
 1249 05ea EE050000 		.4byte	0x5ee
 1250 05ee 04       		.uleb128 0x4
 1251 05ef 01       		.byte	0x1
 1252 05f0 08       		.byte	0x8
 1253 05f1 99020000 		.4byte	.LASF86
 1254 05f5 09       		.uleb128 0x9
 1255 05f6 04       		.byte	0x4
 1256 05f7 27050000 		.4byte	0x527
 1257 05fb 03       		.uleb128 0x3
 1258 05fc 03040000 		.4byte	.LASF87
 1259 0600 06       		.byte	0x6
 1260 0601 DE       		.byte	0xde
 1261 0602 06060000 		.4byte	0x606
 1262 0606 09       		.uleb128 0x9
 1263 0607 04       		.byte	0x4
 1264 0608 0C060000 		.4byte	0x60c
 1265 060c 13       		.uleb128 0x13
 1266 060d 01       		.byte	0x1
 1267 060e E8000000 		.4byte	0xe8
 1268 0612 1C060000 		.4byte	0x61c
 1269 0616 0F       		.uleb128 0xf
 1270 0617 B2020000 		.4byte	0x2b2
 1271 061b 00       		.byte	0
 1272 061c 09       		.uleb128 0x9
 1273 061d 04       		.byte	0x4
 1274 061e 49000000 		.4byte	0x49
 1275 0622 05       		.uleb128 0x5
 1276 0623 18060000 		.4byte	.LASF88
 1277 0627 10       		.byte	0x10
 1278 0628 0D       		.byte	0xd
 1279 0629 41       		.byte	0x41
 1280 062a 67060000 		.4byte	0x667
 1281 062e 06       		.uleb128 0x6
 1282 062f 73000000 		.4byte	.LASF89
 1283 0633 0D       		.byte	0xd
 1284 0634 42       		.byte	0x42
 1285 0635 8C060000 		.4byte	0x68c
 1286 0639 02       		.byte	0x2
ARM GAS  C:\Users\DNIEL~1\AppData\Local\Temp\ccrV7HYC.s 			page 24


 1287 063a 23       		.byte	0x23
 1288 063b 00       		.uleb128 0
 1289 063c 06       		.uleb128 0x6
 1290 063d 38040000 		.4byte	.LASF90
 1291 0641 0D       		.byte	0xd
 1292 0642 42       		.byte	0x42
 1293 0643 AC060000 		.4byte	0x6ac
 1294 0647 02       		.byte	0x2
 1295 0648 23       		.byte	0x23
 1296 0649 04       		.uleb128 0x4
 1297 064a 07       		.uleb128 0x7
 1298 064b 70757400 		.ascii	"put\000"
 1299 064f 0D       		.byte	0xd
 1300 0650 42       		.byte	0x42
 1301 0651 C7060000 		.4byte	0x6c7
 1302 0655 02       		.byte	0x2
 1303 0656 23       		.byte	0x23
 1304 0657 08       		.uleb128 0x8
 1305 0658 07       		.uleb128 0x7
 1306 0659 67657400 		.ascii	"get\000"
 1307 065d 0D       		.byte	0xd
 1308 065e 42       		.byte	0x42
 1309 065f 06060000 		.4byte	0x606
 1310 0663 02       		.byte	0x2
 1311 0664 23       		.byte	0x23
 1312 0665 0C       		.uleb128 0xc
 1313 0666 00       		.byte	0
 1314 0667 13       		.uleb128 0x13
 1315 0668 01       		.byte	0x1
 1316 0669 30000000 		.4byte	0x30
 1317 066d 81060000 		.4byte	0x681
 1318 0671 0F       		.uleb128 0xf
 1319 0672 B2020000 		.4byte	0x2b2
 1320 0676 0F       		.uleb128 0xf
 1321 0677 81060000 		.4byte	0x681
 1322 067b 0F       		.uleb128 0xf
 1323 067c 30000000 		.4byte	0x30
 1324 0680 00       		.byte	0
 1325 0681 09       		.uleb128 0x9
 1326 0682 04       		.byte	0x4
 1327 0683 87060000 		.4byte	0x687
 1328 0687 12       		.uleb128 0x12
 1329 0688 49000000 		.4byte	0x49
 1330 068c 09       		.uleb128 0x9
 1331 068d 04       		.byte	0x4
 1332 068e 67060000 		.4byte	0x667
 1333 0692 13       		.uleb128 0x13
 1334 0693 01       		.byte	0x1
 1335 0694 30000000 		.4byte	0x30
 1336 0698 AC060000 		.4byte	0x6ac
 1337 069c 0F       		.uleb128 0xf
 1338 069d B2020000 		.4byte	0x2b2
 1339 06a1 0F       		.uleb128 0xf
 1340 06a2 1C060000 		.4byte	0x61c
 1341 06a6 0F       		.uleb128 0xf
 1342 06a7 30000000 		.4byte	0x30
 1343 06ab 00       		.byte	0
ARM GAS  C:\Users\DNIEL~1\AppData\Local\Temp\ccrV7HYC.s 			page 25


 1344 06ac 09       		.uleb128 0x9
 1345 06ad 04       		.byte	0x4
 1346 06ae 92060000 		.4byte	0x692
 1347 06b2 13       		.uleb128 0x13
 1348 06b3 01       		.byte	0x1
 1349 06b4 E8000000 		.4byte	0xe8
 1350 06b8 C7060000 		.4byte	0x6c7
 1351 06bc 0F       		.uleb128 0xf
 1352 06bd B2020000 		.4byte	0x2b2
 1353 06c1 0F       		.uleb128 0xf
 1354 06c2 49000000 		.4byte	0x49
 1355 06c6 00       		.byte	0
 1356 06c7 09       		.uleb128 0x9
 1357 06c8 04       		.byte	0x4
 1358 06c9 B2060000 		.4byte	0x6b2
 1359 06cd 08       		.uleb128 0x8
 1360 06ce 04       		.byte	0x4
 1361 06cf 0D       		.byte	0xd
 1362 06d0 4A       		.byte	0x4a
 1363 06d1 E4060000 		.4byte	0x6e4
 1364 06d5 07       		.uleb128 0x7
 1365 06d6 766D7400 		.ascii	"vmt\000"
 1366 06da 0D       		.byte	0xd
 1367 06db 4C       		.byte	0x4c
 1368 06dc E4060000 		.4byte	0x6e4
 1369 06e0 02       		.byte	0x2
 1370 06e1 23       		.byte	0x23
 1371 06e2 00       		.uleb128 0
 1372 06e3 00       		.byte	0
 1373 06e4 09       		.uleb128 0x9
 1374 06e5 04       		.byte	0x4
 1375 06e6 EA060000 		.4byte	0x6ea
 1376 06ea 12       		.uleb128 0x12
 1377 06eb 22060000 		.4byte	0x622
 1378 06ef 03       		.uleb128 0x3
 1379 06f0 79000000 		.4byte	.LASF91
 1380 06f4 0D       		.byte	0xd
 1381 06f5 4E       		.byte	0x4e
 1382 06f6 CD060000 		.4byte	0x6cd
 1383 06fa 14       		.uleb128 0x14
 1384 06fb 86000000 		.4byte	0x86
 1385 06ff 0A070000 		.4byte	0x70a
 1386 0703 15       		.uleb128 0x15
 1387 0704 75030000 		.4byte	0x375
 1388 0708 07       		.byte	0x7
 1389 0709 00       		.byte	0
 1390 070a 14       		.uleb128 0x14
 1391 070b 86000000 		.4byte	0x86
 1392 070f 1A070000 		.4byte	0x71a
 1393 0713 15       		.uleb128 0x15
 1394 0714 75030000 		.4byte	0x375
 1395 0718 01       		.byte	0x1
 1396 0719 00       		.byte	0
 1397 071a 14       		.uleb128 0x14
 1398 071b 86000000 		.4byte	0x86
 1399 071f 2A070000 		.4byte	0x72a
 1400 0723 15       		.uleb128 0x15
ARM GAS  C:\Users\DNIEL~1\AppData\Local\Temp\ccrV7HYC.s 			page 26


 1401 0724 75030000 		.4byte	0x375
 1402 0728 03       		.byte	0x3
 1403 0729 00       		.byte	0
 1404 072a 0D       		.uleb128 0xd
 1405 072b 62000000 		.4byte	0x62
 1406 072f 0D       		.uleb128 0xd
 1407 0730 74000000 		.4byte	0x74
 1408 0734 16       		.uleb128 0x16
 1409 0735 10       		.byte	0x10
 1410 0736 0E       		.byte	0xe
 1411 0737 5101     		.2byte	0x151
 1412 0739 7A070000 		.4byte	0x77a
 1413 073d 0C       		.uleb128 0xc
 1414 073e 54495200 		.ascii	"TIR\000"
 1415 0742 0E       		.byte	0xe
 1416 0743 5301     		.2byte	0x153
 1417 0745 70030000 		.4byte	0x370
 1418 0749 02       		.byte	0x2
 1419 074a 23       		.byte	0x23
 1420 074b 00       		.uleb128 0
 1421 074c 17       		.uleb128 0x17
 1422 074d 40080000 		.4byte	.LASF92
 1423 0751 0E       		.byte	0xe
 1424 0752 5401     		.2byte	0x154
 1425 0754 70030000 		.4byte	0x370
 1426 0758 02       		.byte	0x2
 1427 0759 23       		.byte	0x23
 1428 075a 04       		.uleb128 0x4
 1429 075b 17       		.uleb128 0x17
 1430 075c DD050000 		.4byte	.LASF93
 1431 0760 0E       		.byte	0xe
 1432 0761 5501     		.2byte	0x155
 1433 0763 70030000 		.4byte	0x370
 1434 0767 02       		.byte	0x2
 1435 0768 23       		.byte	0x23
 1436 0769 08       		.uleb128 0x8
 1437 076a 17       		.uleb128 0x17
 1438 076b 58000000 		.4byte	.LASF94
 1439 076f 0E       		.byte	0xe
 1440 0770 5601     		.2byte	0x156
 1441 0772 70030000 		.4byte	0x370
 1442 0776 02       		.byte	0x2
 1443 0777 23       		.byte	0x23
 1444 0778 0C       		.uleb128 0xc
 1445 0779 00       		.byte	0
 1446 077a 18       		.uleb128 0x18
 1447 077b 82060000 		.4byte	.LASF95
 1448 077f 0E       		.byte	0xe
 1449 0780 5701     		.2byte	0x157
 1450 0782 34070000 		.4byte	0x734
 1451 0786 16       		.uleb128 0x16
 1452 0787 10       		.byte	0x10
 1453 0788 0E       		.byte	0xe
 1454 0789 5D01     		.2byte	0x15d
 1455 078b CC070000 		.4byte	0x7cc
 1456 078f 0C       		.uleb128 0xc
 1457 0790 52495200 		.ascii	"RIR\000"
ARM GAS  C:\Users\DNIEL~1\AppData\Local\Temp\ccrV7HYC.s 			page 27


 1458 0794 0E       		.byte	0xe
 1459 0795 5F01     		.2byte	0x15f
 1460 0797 70030000 		.4byte	0x370
 1461 079b 02       		.byte	0x2
 1462 079c 23       		.byte	0x23
 1463 079d 00       		.uleb128 0
 1464 079e 17       		.uleb128 0x17
 1465 079f 2B080000 		.4byte	.LASF96
 1466 07a3 0E       		.byte	0xe
 1467 07a4 6001     		.2byte	0x160
 1468 07a6 70030000 		.4byte	0x370
 1469 07aa 02       		.byte	0x2
 1470 07ab 23       		.byte	0x23
 1471 07ac 04       		.uleb128 0x4
 1472 07ad 17       		.uleb128 0x17
 1473 07ae 9D050000 		.4byte	.LASF97
 1474 07b2 0E       		.byte	0xe
 1475 07b3 6101     		.2byte	0x161
 1476 07b5 70030000 		.4byte	0x370
 1477 07b9 02       		.byte	0x2
 1478 07ba 23       		.byte	0x23
 1479 07bb 08       		.uleb128 0x8
 1480 07bc 17       		.uleb128 0x17
 1481 07bd 6E040000 		.4byte	.LASF98
 1482 07c1 0E       		.byte	0xe
 1483 07c2 6201     		.2byte	0x162
 1484 07c4 70030000 		.4byte	0x370
 1485 07c8 02       		.byte	0x2
 1486 07c9 23       		.byte	0x23
 1487 07ca 0C       		.uleb128 0xc
 1488 07cb 00       		.byte	0
 1489 07cc 18       		.uleb128 0x18
 1490 07cd B3050000 		.4byte	.LASF99
 1491 07d1 0E       		.byte	0xe
 1492 07d2 6301     		.2byte	0x163
 1493 07d4 86070000 		.4byte	0x786
 1494 07d8 16       		.uleb128 0x16
 1495 07d9 08       		.byte	0x8
 1496 07da 0E       		.byte	0xe
 1497 07db 6901     		.2byte	0x169
 1498 07dd 00080000 		.4byte	0x800
 1499 07e1 0C       		.uleb128 0xc
 1500 07e2 46523100 		.ascii	"FR1\000"
 1501 07e6 0E       		.byte	0xe
 1502 07e7 6B01     		.2byte	0x16b
 1503 07e9 70030000 		.4byte	0x370
 1504 07ed 02       		.byte	0x2
 1505 07ee 23       		.byte	0x23
 1506 07ef 00       		.uleb128 0
 1507 07f0 0C       		.uleb128 0xc
 1508 07f1 46523200 		.ascii	"FR2\000"
 1509 07f5 0E       		.byte	0xe
 1510 07f6 6C01     		.2byte	0x16c
 1511 07f8 70030000 		.4byte	0x370
 1512 07fc 02       		.byte	0x2
 1513 07fd 23       		.byte	0x23
 1514 07fe 04       		.uleb128 0x4
ARM GAS  C:\Users\DNIEL~1\AppData\Local\Temp\ccrV7HYC.s 			page 28


 1515 07ff 00       		.byte	0
 1516 0800 18       		.uleb128 0x18
 1517 0801 EF010000 		.4byte	.LASF100
 1518 0805 0E       		.byte	0xe
 1519 0806 6D01     		.2byte	0x16d
 1520 0808 D8070000 		.4byte	0x7d8
 1521 080c 19       		.uleb128 0x19
 1522 080d 2003     		.2byte	0x320
 1523 080f 0E       		.byte	0xe
 1524 0810 7301     		.2byte	0x173
 1525 0812 6E090000 		.4byte	0x96e
 1526 0816 0C       		.uleb128 0xc
 1527 0817 4D435200 		.ascii	"MCR\000"
 1528 081b 0E       		.byte	0xe
 1529 081c 7501     		.2byte	0x175
 1530 081e 70030000 		.4byte	0x370
 1531 0822 02       		.byte	0x2
 1532 0823 23       		.byte	0x23
 1533 0824 00       		.uleb128 0
 1534 0825 0C       		.uleb128 0xc
 1535 0826 4D535200 		.ascii	"MSR\000"
 1536 082a 0E       		.byte	0xe
 1537 082b 7601     		.2byte	0x176
 1538 082d 70030000 		.4byte	0x370
 1539 0831 02       		.byte	0x2
 1540 0832 23       		.byte	0x23
 1541 0833 04       		.uleb128 0x4
 1542 0834 0C       		.uleb128 0xc
 1543 0835 54535200 		.ascii	"TSR\000"
 1544 0839 0E       		.byte	0xe
 1545 083a 7701     		.2byte	0x177
 1546 083c 70030000 		.4byte	0x370
 1547 0840 02       		.byte	0x2
 1548 0841 23       		.byte	0x23
 1549 0842 08       		.uleb128 0x8
 1550 0843 17       		.uleb128 0x17
 1551 0844 C0010000 		.4byte	.LASF101
 1552 0848 0E       		.byte	0xe
 1553 0849 7801     		.2byte	0x178
 1554 084b 70030000 		.4byte	0x370
 1555 084f 02       		.byte	0x2
 1556 0850 23       		.byte	0x23
 1557 0851 0C       		.uleb128 0xc
 1558 0852 17       		.uleb128 0x17
 1559 0853 76020000 		.4byte	.LASF102
 1560 0857 0E       		.byte	0xe
 1561 0858 7901     		.2byte	0x179
 1562 085a 70030000 		.4byte	0x370
 1563 085e 02       		.byte	0x2
 1564 085f 23       		.byte	0x23
 1565 0860 10       		.uleb128 0x10
 1566 0861 0C       		.uleb128 0xc
 1567 0862 49455200 		.ascii	"IER\000"
 1568 0866 0E       		.byte	0xe
 1569 0867 7A01     		.2byte	0x17a
 1570 0869 70030000 		.4byte	0x370
 1571 086d 02       		.byte	0x2
ARM GAS  C:\Users\DNIEL~1\AppData\Local\Temp\ccrV7HYC.s 			page 29


 1572 086e 23       		.byte	0x23
 1573 086f 14       		.uleb128 0x14
 1574 0870 0C       		.uleb128 0xc
 1575 0871 45535200 		.ascii	"ESR\000"
 1576 0875 0E       		.byte	0xe
 1577 0876 7B01     		.2byte	0x17b
 1578 0878 70030000 		.4byte	0x370
 1579 087c 02       		.byte	0x2
 1580 087d 23       		.byte	0x23
 1581 087e 18       		.uleb128 0x18
 1582 087f 0C       		.uleb128 0xc
 1583 0880 42545200 		.ascii	"BTR\000"
 1584 0884 0E       		.byte	0xe
 1585 0885 7C01     		.2byte	0x17c
 1586 0887 70030000 		.4byte	0x370
 1587 088b 02       		.byte	0x2
 1588 088c 23       		.byte	0x23
 1589 088d 1C       		.uleb128 0x1c
 1590 088e 17       		.uleb128 0x17
 1591 088f 2E020000 		.4byte	.LASF103
 1592 0893 0E       		.byte	0xe
 1593 0894 7D01     		.2byte	0x17d
 1594 0896 6E090000 		.4byte	0x96e
 1595 089a 02       		.byte	0x2
 1596 089b 23       		.byte	0x23
 1597 089c 20       		.uleb128 0x20
 1598 089d 17       		.uleb128 0x17
 1599 089e E0070000 		.4byte	.LASF104
 1600 08a2 0E       		.byte	0xe
 1601 08a3 7E01     		.2byte	0x17e
 1602 08a5 7E090000 		.4byte	0x97e
 1603 08a9 03       		.byte	0x3
 1604 08aa 23       		.byte	0x23
 1605 08ab 8003     		.uleb128 0x180
 1606 08ad 17       		.uleb128 0x17
 1607 08ae 77070000 		.4byte	.LASF105
 1608 08b2 0E       		.byte	0xe
 1609 08b3 7F01     		.2byte	0x17f
 1610 08b5 8E090000 		.4byte	0x98e
 1611 08b9 03       		.byte	0x3
 1612 08ba 23       		.byte	0x23
 1613 08bb B003     		.uleb128 0x1b0
 1614 08bd 17       		.uleb128 0x17
 1615 08be 38020000 		.4byte	.LASF106
 1616 08c2 0E       		.byte	0xe
 1617 08c3 8001     		.2byte	0x180
 1618 08c5 9E090000 		.4byte	0x99e
 1619 08c9 03       		.byte	0x3
 1620 08ca 23       		.byte	0x23
 1621 08cb D003     		.uleb128 0x1d0
 1622 08cd 0C       		.uleb128 0xc
 1623 08ce 464D5200 		.ascii	"FMR\000"
 1624 08d2 0E       		.byte	0xe
 1625 08d3 8101     		.2byte	0x181
 1626 08d5 70030000 		.4byte	0x370
 1627 08d9 03       		.byte	0x3
 1628 08da 23       		.byte	0x23
ARM GAS  C:\Users\DNIEL~1\AppData\Local\Temp\ccrV7HYC.s 			page 30


 1629 08db 8004     		.uleb128 0x200
 1630 08dd 17       		.uleb128 0x17
 1631 08de 69040000 		.4byte	.LASF107
 1632 08e2 0E       		.byte	0xe
 1633 08e3 8201     		.2byte	0x182
 1634 08e5 70030000 		.4byte	0x370
 1635 08e9 03       		.byte	0x3
 1636 08ea 23       		.byte	0x23
 1637 08eb 8404     		.uleb128 0x204
 1638 08ed 17       		.uleb128 0x17
 1639 08ee 83020000 		.4byte	.LASF108
 1640 08f2 0E       		.byte	0xe
 1641 08f3 8301     		.2byte	0x183
 1642 08f5 86000000 		.4byte	0x86
 1643 08f9 03       		.byte	0x3
 1644 08fa 23       		.byte	0x23
 1645 08fb 8804     		.uleb128 0x208
 1646 08fd 17       		.uleb128 0x17
 1647 08fe 55060000 		.4byte	.LASF109
 1648 0902 0E       		.byte	0xe
 1649 0903 8401     		.2byte	0x184
 1650 0905 70030000 		.4byte	0x370
 1651 0909 03       		.byte	0x3
 1652 090a 23       		.byte	0x23
 1653 090b 8C04     		.uleb128 0x20c
 1654 090d 17       		.uleb128 0x17
 1655 090e 50020000 		.4byte	.LASF110
 1656 0912 0E       		.byte	0xe
 1657 0913 8501     		.2byte	0x185
 1658 0915 86000000 		.4byte	0x86
 1659 0919 03       		.byte	0x3
 1660 091a 23       		.byte	0x23
 1661 091b 9004     		.uleb128 0x210
 1662 091d 17       		.uleb128 0x17
 1663 091e 07070000 		.4byte	.LASF111
 1664 0922 0E       		.byte	0xe
 1665 0923 8601     		.2byte	0x186
 1666 0925 70030000 		.4byte	0x370
 1667 0929 03       		.byte	0x3
 1668 092a 23       		.byte	0x23
 1669 092b 9404     		.uleb128 0x214
 1670 092d 17       		.uleb128 0x17
 1671 092e 5A020000 		.4byte	.LASF112
 1672 0932 0E       		.byte	0xe
 1673 0933 8701     		.2byte	0x187
 1674 0935 86000000 		.4byte	0x86
 1675 0939 03       		.byte	0x3
 1676 093a 23       		.byte	0x23
 1677 093b 9804     		.uleb128 0x218
 1678 093d 17       		.uleb128 0x17
 1679 093e 86010000 		.4byte	.LASF113
 1680 0942 0E       		.byte	0xe
 1681 0943 8801     		.2byte	0x188
 1682 0945 70030000 		.4byte	0x370
 1683 0949 03       		.byte	0x3
 1684 094a 23       		.byte	0x23
 1685 094b 9C04     		.uleb128 0x21c
ARM GAS  C:\Users\DNIEL~1\AppData\Local\Temp\ccrV7HYC.s 			page 31


 1686 094d 17       		.uleb128 0x17
 1687 094e 64020000 		.4byte	.LASF114
 1688 0952 0E       		.byte	0xe
 1689 0953 8901     		.2byte	0x189
 1690 0955 FA060000 		.4byte	0x6fa
 1691 0959 03       		.byte	0x3
 1692 095a 23       		.byte	0x23
 1693 095b A004     		.uleb128 0x220
 1694 095d 17       		.uleb128 0x17
 1695 095e DD040000 		.4byte	.LASF115
 1696 0962 0E       		.byte	0xe
 1697 0963 8A01     		.2byte	0x18a
 1698 0965 AE090000 		.4byte	0x9ae
 1699 0969 03       		.byte	0x3
 1700 096a 23       		.byte	0x23
 1701 096b C004     		.uleb128 0x240
 1702 096d 00       		.byte	0
 1703 096e 14       		.uleb128 0x14
 1704 096f 86000000 		.4byte	0x86
 1705 0973 7E090000 		.4byte	0x97e
 1706 0977 15       		.uleb128 0x15
 1707 0978 75030000 		.4byte	0x375
 1708 097c 57       		.byte	0x57
 1709 097d 00       		.byte	0
 1710 097e 14       		.uleb128 0x14
 1711 097f 7A070000 		.4byte	0x77a
 1712 0983 8E090000 		.4byte	0x98e
 1713 0987 15       		.uleb128 0x15
 1714 0988 75030000 		.4byte	0x375
 1715 098c 02       		.byte	0x2
 1716 098d 00       		.byte	0
 1717 098e 14       		.uleb128 0x14
 1718 098f CC070000 		.4byte	0x7cc
 1719 0993 9E090000 		.4byte	0x99e
 1720 0997 15       		.uleb128 0x15
 1721 0998 75030000 		.4byte	0x375
 1722 099c 01       		.byte	0x1
 1723 099d 00       		.byte	0
 1724 099e 14       		.uleb128 0x14
 1725 099f 86000000 		.4byte	0x86
 1726 09a3 AE090000 		.4byte	0x9ae
 1727 09a7 15       		.uleb128 0x15
 1728 09a8 75030000 		.4byte	0x375
 1729 09ac 0B       		.byte	0xb
 1730 09ad 00       		.byte	0
 1731 09ae 14       		.uleb128 0x14
 1732 09af 00080000 		.4byte	0x800
 1733 09b3 BE090000 		.4byte	0x9be
 1734 09b7 15       		.uleb128 0x15
 1735 09b8 75030000 		.4byte	0x375
 1736 09bc 1B       		.byte	0x1b
 1737 09bd 00       		.byte	0
 1738 09be 18       		.uleb128 0x18
 1739 09bf CA040000 		.4byte	.LASF116
 1740 09c3 0E       		.byte	0xe
 1741 09c4 8B01     		.2byte	0x18b
 1742 09c6 0C080000 		.4byte	0x80c
ARM GAS  C:\Users\DNIEL~1\AppData\Local\Temp\ccrV7HYC.s 			page 32


 1743 09ca 08       		.uleb128 0x8
 1744 09cb 54       		.byte	0x54
 1745 09cc 0F       		.byte	0xf
 1746 09cd 60       		.byte	0x60
 1747 09ce 9F0B0000 		.4byte	0xb9f
 1748 09d2 07       		.uleb128 0x7
 1749 09d3 43523100 		.ascii	"CR1\000"
 1750 09d7 0F       		.byte	0xf
 1751 09d8 61       		.byte	0x61
 1752 09d9 2A070000 		.4byte	0x72a
 1753 09dd 02       		.byte	0x2
 1754 09de 23       		.byte	0x23
 1755 09df 00       		.uleb128 0
 1756 09e0 06       		.uleb128 0x6
 1757 09e1 98060000 		.4byte	.LASF117
 1758 09e5 0F       		.byte	0xf
 1759 09e6 62       		.byte	0x62
 1760 09e7 62000000 		.4byte	0x62
 1761 09eb 02       		.byte	0x2
 1762 09ec 23       		.byte	0x23
 1763 09ed 02       		.uleb128 0x2
 1764 09ee 07       		.uleb128 0x7
 1765 09ef 43523200 		.ascii	"CR2\000"
 1766 09f3 0F       		.byte	0xf
 1767 09f4 63       		.byte	0x63
 1768 09f5 2A070000 		.4byte	0x72a
 1769 09f9 02       		.byte	0x2
 1770 09fa 23       		.byte	0x23
 1771 09fb 04       		.uleb128 0x4
 1772 09fc 06       		.uleb128 0x6
 1773 09fd A0060000 		.4byte	.LASF118
 1774 0a01 0F       		.byte	0xf
 1775 0a02 64       		.byte	0x64
 1776 0a03 62000000 		.4byte	0x62
 1777 0a07 02       		.byte	0x2
 1778 0a08 23       		.byte	0x23
 1779 0a09 06       		.uleb128 0x6
 1780 0a0a 06       		.uleb128 0x6
 1781 0a0b FE050000 		.4byte	.LASF119
 1782 0a0f 0F       		.byte	0xf
 1783 0a10 65       		.byte	0x65
 1784 0a11 2A070000 		.4byte	0x72a
 1785 0a15 02       		.byte	0x2
 1786 0a16 23       		.byte	0x23
 1787 0a17 08       		.uleb128 0x8
 1788 0a18 06       		.uleb128 0x6
 1789 0a19 A8060000 		.4byte	.LASF120
 1790 0a1d 0F       		.byte	0xf
 1791 0a1e 66       		.byte	0x66
 1792 0a1f 62000000 		.4byte	0x62
 1793 0a23 02       		.byte	0x2
 1794 0a24 23       		.byte	0x23
 1795 0a25 0A       		.uleb128 0xa
 1796 0a26 06       		.uleb128 0x6
 1797 0a27 73030000 		.4byte	.LASF121
 1798 0a2b 0F       		.byte	0xf
 1799 0a2c 67       		.byte	0x67
ARM GAS  C:\Users\DNIEL~1\AppData\Local\Temp\ccrV7HYC.s 			page 33


 1800 0a2d 2A070000 		.4byte	0x72a
 1801 0a31 02       		.byte	0x2
 1802 0a32 23       		.byte	0x23
 1803 0a33 0C       		.uleb128 0xc
 1804 0a34 06       		.uleb128 0x6
 1805 0a35 B0060000 		.4byte	.LASF122
 1806 0a39 0F       		.byte	0xf
 1807 0a3a 68       		.byte	0x68
 1808 0a3b 62000000 		.4byte	0x62
 1809 0a3f 02       		.byte	0x2
 1810 0a40 23       		.byte	0x23
 1811 0a41 0E       		.uleb128 0xe
 1812 0a42 07       		.uleb128 0x7
 1813 0a43 535200   		.ascii	"SR\000"
 1814 0a46 0F       		.byte	0xf
 1815 0a47 69       		.byte	0x69
 1816 0a48 2A070000 		.4byte	0x72a
 1817 0a4c 02       		.byte	0x2
 1818 0a4d 23       		.byte	0x23
 1819 0a4e 10       		.uleb128 0x10
 1820 0a4f 06       		.uleb128 0x6
 1821 0a50 B8060000 		.4byte	.LASF123
 1822 0a54 0F       		.byte	0xf
 1823 0a55 6A       		.byte	0x6a
 1824 0a56 62000000 		.4byte	0x62
 1825 0a5a 02       		.byte	0x2
 1826 0a5b 23       		.byte	0x23
 1827 0a5c 12       		.uleb128 0x12
 1828 0a5d 07       		.uleb128 0x7
 1829 0a5e 45475200 		.ascii	"EGR\000"
 1830 0a62 0F       		.byte	0xf
 1831 0a63 6B       		.byte	0x6b
 1832 0a64 2A070000 		.4byte	0x72a
 1833 0a68 02       		.byte	0x2
 1834 0a69 23       		.byte	0x23
 1835 0a6a 14       		.uleb128 0x14
 1836 0a6b 06       		.uleb128 0x6
 1837 0a6c C0060000 		.4byte	.LASF124
 1838 0a70 0F       		.byte	0xf
 1839 0a71 6C       		.byte	0x6c
 1840 0a72 62000000 		.4byte	0x62
 1841 0a76 02       		.byte	0x2
 1842 0a77 23       		.byte	0x23
 1843 0a78 16       		.uleb128 0x16
 1844 0a79 06       		.uleb128 0x6
 1845 0a7a 8D020000 		.4byte	.LASF125
 1846 0a7e 0F       		.byte	0xf
 1847 0a7f 6D       		.byte	0x6d
 1848 0a80 2A070000 		.4byte	0x72a
 1849 0a84 02       		.byte	0x2
 1850 0a85 23       		.byte	0x23
 1851 0a86 18       		.uleb128 0x18
 1852 0a87 06       		.uleb128 0x6
 1853 0a88 D8070000 		.4byte	.LASF126
 1854 0a8c 0F       		.byte	0xf
 1855 0a8d 6E       		.byte	0x6e
 1856 0a8e 62000000 		.4byte	0x62
ARM GAS  C:\Users\DNIEL~1\AppData\Local\Temp\ccrV7HYC.s 			page 34


 1857 0a92 02       		.byte	0x2
 1858 0a93 23       		.byte	0x23
 1859 0a94 1A       		.uleb128 0x1a
 1860 0a95 06       		.uleb128 0x6
 1861 0a96 93020000 		.4byte	.LASF127
 1862 0a9a 0F       		.byte	0xf
 1863 0a9b 6F       		.byte	0x6f
 1864 0a9c 2A070000 		.4byte	0x72a
 1865 0aa0 02       		.byte	0x2
 1866 0aa1 23       		.byte	0x23
 1867 0aa2 1C       		.uleb128 0x1c
 1868 0aa3 06       		.uleb128 0x6
 1869 0aa4 D2060000 		.4byte	.LASF128
 1870 0aa8 0F       		.byte	0xf
 1871 0aa9 70       		.byte	0x70
 1872 0aaa 62000000 		.4byte	0x62
 1873 0aae 02       		.byte	0x2
 1874 0aaf 23       		.byte	0x23
 1875 0ab0 1E       		.uleb128 0x1e
 1876 0ab1 06       		.uleb128 0x6
 1877 0ab2 8E050000 		.4byte	.LASF129
 1878 0ab6 0F       		.byte	0xf
 1879 0ab7 71       		.byte	0x71
 1880 0ab8 2A070000 		.4byte	0x72a
 1881 0abc 02       		.byte	0x2
 1882 0abd 23       		.byte	0x23
 1883 0abe 20       		.uleb128 0x20
 1884 0abf 06       		.uleb128 0x6
 1885 0ac0 DA060000 		.4byte	.LASF130
 1886 0ac4 0F       		.byte	0xf
 1887 0ac5 72       		.byte	0x72
 1888 0ac6 62000000 		.4byte	0x62
 1889 0aca 02       		.byte	0x2
 1890 0acb 23       		.byte	0x23
 1891 0acc 22       		.uleb128 0x22
 1892 0acd 07       		.uleb128 0x7
 1893 0ace 434E5400 		.ascii	"CNT\000"
 1894 0ad2 0F       		.byte	0xf
 1895 0ad3 73       		.byte	0x73
 1896 0ad4 70030000 		.4byte	0x370
 1897 0ad8 02       		.byte	0x2
 1898 0ad9 23       		.byte	0x23
 1899 0ada 24       		.uleb128 0x24
 1900 0adb 07       		.uleb128 0x7
 1901 0adc 50534300 		.ascii	"PSC\000"
 1902 0ae0 0F       		.byte	0xf
 1903 0ae1 74       		.byte	0x74
 1904 0ae2 2A070000 		.4byte	0x72a
 1905 0ae6 02       		.byte	0x2
 1906 0ae7 23       		.byte	0x23
 1907 0ae8 28       		.uleb128 0x28
 1908 0ae9 06       		.uleb128 0x6
 1909 0aea E2060000 		.4byte	.LASF131
 1910 0aee 0F       		.byte	0xf
 1911 0aef 75       		.byte	0x75
 1912 0af0 62000000 		.4byte	0x62
 1913 0af4 02       		.byte	0x2
ARM GAS  C:\Users\DNIEL~1\AppData\Local\Temp\ccrV7HYC.s 			page 35


 1914 0af5 23       		.byte	0x23
 1915 0af6 2A       		.uleb128 0x2a
 1916 0af7 07       		.uleb128 0x7
 1917 0af8 41525200 		.ascii	"ARR\000"
 1918 0afc 0F       		.byte	0xf
 1919 0afd 76       		.byte	0x76
 1920 0afe 70030000 		.4byte	0x370
 1921 0b02 02       		.byte	0x2
 1922 0b03 23       		.byte	0x23
 1923 0b04 2C       		.uleb128 0x2c
 1924 0b05 07       		.uleb128 0x7
 1925 0b06 52435200 		.ascii	"RCR\000"
 1926 0b0a 0F       		.byte	0xf
 1927 0b0b 77       		.byte	0x77
 1928 0b0c 2A070000 		.4byte	0x72a
 1929 0b10 02       		.byte	0x2
 1930 0b11 23       		.byte	0x23
 1931 0b12 30       		.uleb128 0x30
 1932 0b13 06       		.uleb128 0x6
 1933 0b14 CB050000 		.4byte	.LASF132
 1934 0b18 0F       		.byte	0xf
 1935 0b19 78       		.byte	0x78
 1936 0b1a 62000000 		.4byte	0x62
 1937 0b1e 02       		.byte	0x2
 1938 0b1f 23       		.byte	0x23
 1939 0b20 32       		.uleb128 0x32
 1940 0b21 07       		.uleb128 0x7
 1941 0b22 43435200 		.ascii	"CCR\000"
 1942 0b26 0F       		.byte	0xf
 1943 0b27 79       		.byte	0x79
 1944 0b28 9F0B0000 		.4byte	0xb9f
 1945 0b2c 02       		.byte	0x2
 1946 0b2d 23       		.byte	0x23
 1947 0b2e 34       		.uleb128 0x34
 1948 0b2f 06       		.uleb128 0x6
 1949 0b30 8F070000 		.4byte	.LASF133
 1950 0b34 0F       		.byte	0xf
 1951 0b35 7A       		.byte	0x7a
 1952 0b36 2A070000 		.4byte	0x72a
 1953 0b3a 02       		.byte	0x2
 1954 0b3b 23       		.byte	0x23
 1955 0b3c 44       		.uleb128 0x44
 1956 0b3d 06       		.uleb128 0x6
 1957 0b3e D4050000 		.4byte	.LASF134
 1958 0b42 0F       		.byte	0xf
 1959 0b43 7B       		.byte	0x7b
 1960 0b44 62000000 		.4byte	0x62
 1961 0b48 02       		.byte	0x2
 1962 0b49 23       		.byte	0x23
 1963 0b4a 46       		.uleb128 0x46
 1964 0b4b 07       		.uleb128 0x7
 1965 0b4c 44435200 		.ascii	"DCR\000"
 1966 0b50 0F       		.byte	0xf
 1967 0b51 7C       		.byte	0x7c
 1968 0b52 2A070000 		.4byte	0x72a
 1969 0b56 02       		.byte	0x2
 1970 0b57 23       		.byte	0x23
ARM GAS  C:\Users\DNIEL~1\AppData\Local\Temp\ccrV7HYC.s 			page 36


 1971 0b58 48       		.uleb128 0x48
 1972 0b59 06       		.uleb128 0x6
 1973 0b5a 2B070000 		.4byte	.LASF135
 1974 0b5e 0F       		.byte	0xf
 1975 0b5f 7D       		.byte	0x7d
 1976 0b60 62000000 		.4byte	0x62
 1977 0b64 02       		.byte	0x2
 1978 0b65 23       		.byte	0x23
 1979 0b66 4A       		.uleb128 0x4a
 1980 0b67 06       		.uleb128 0x6
 1981 0b68 D8000000 		.4byte	.LASF136
 1982 0b6c 0F       		.byte	0xf
 1983 0b6d 7E       		.byte	0x7e
 1984 0b6e 2A070000 		.4byte	0x72a
 1985 0b72 02       		.byte	0x2
 1986 0b73 23       		.byte	0x23
 1987 0b74 4C       		.uleb128 0x4c
 1988 0b75 06       		.uleb128 0x6
 1989 0b76 E2050000 		.4byte	.LASF137
 1990 0b7a 0F       		.byte	0xf
 1991 0b7b 7F       		.byte	0x7f
 1992 0b7c 62000000 		.4byte	0x62
 1993 0b80 02       		.byte	0x2
 1994 0b81 23       		.byte	0x23
 1995 0b82 4E       		.uleb128 0x4e
 1996 0b83 07       		.uleb128 0x7
 1997 0b84 4F5200   		.ascii	"OR\000"
 1998 0b87 0F       		.byte	0xf
 1999 0b88 80       		.byte	0x80
 2000 0b89 2A070000 		.4byte	0x72a
 2001 0b8d 02       		.byte	0x2
 2002 0b8e 23       		.byte	0x23
 2003 0b8f 50       		.uleb128 0x50
 2004 0b90 06       		.uleb128 0x6
 2005 0b91 EB050000 		.4byte	.LASF138
 2006 0b95 0F       		.byte	0xf
 2007 0b96 81       		.byte	0x81
 2008 0b97 62000000 		.4byte	0x62
 2009 0b9b 02       		.byte	0x2
 2010 0b9c 23       		.byte	0x23
 2011 0b9d 52       		.uleb128 0x52
 2012 0b9e 00       		.byte	0
 2013 0b9f 0D       		.uleb128 0xd
 2014 0ba0 1A070000 		.4byte	0x71a
 2015 0ba4 03       		.uleb128 0x3
 2016 0ba5 87030000 		.4byte	.LASF139
 2017 0ba9 0F       		.byte	0xf
 2018 0baa 82       		.byte	0x82
 2019 0bab CA090000 		.4byte	0x9ca
 2020 0baf 05       		.uleb128 0x5
 2021 0bb0 EB070000 		.4byte	.LASF140
 2022 0bb4 20       		.byte	0x20
 2023 0bb5 10       		.byte	0x10
 2024 0bb6 46       		.byte	0x46
 2025 0bb7 2C0C0000 		.4byte	0xc2c
 2026 0bbb 06       		.uleb128 0x6
 2027 0bbc 73000000 		.4byte	.LASF89
ARM GAS  C:\Users\DNIEL~1\AppData\Local\Temp\ccrV7HYC.s 			page 37


 2028 0bc0 10       		.byte	0x10
 2029 0bc1 47       		.byte	0x47
 2030 0bc2 8C060000 		.4byte	0x68c
 2031 0bc6 02       		.byte	0x2
 2032 0bc7 23       		.byte	0x23
 2033 0bc8 00       		.uleb128 0
 2034 0bc9 06       		.uleb128 0x6
 2035 0bca 38040000 		.4byte	.LASF90
 2036 0bce 10       		.byte	0x10
 2037 0bcf 47       		.byte	0x47
 2038 0bd0 AC060000 		.4byte	0x6ac
 2039 0bd4 02       		.byte	0x2
 2040 0bd5 23       		.byte	0x23
 2041 0bd6 04       		.uleb128 0x4
 2042 0bd7 07       		.uleb128 0x7
 2043 0bd8 70757400 		.ascii	"put\000"
 2044 0bdc 10       		.byte	0x10
 2045 0bdd 47       		.byte	0x47
 2046 0bde C7060000 		.4byte	0x6c7
 2047 0be2 02       		.byte	0x2
 2048 0be3 23       		.byte	0x23
 2049 0be4 08       		.uleb128 0x8
 2050 0be5 07       		.uleb128 0x7
 2051 0be6 67657400 		.ascii	"get\000"
 2052 0bea 10       		.byte	0x10
 2053 0beb 47       		.byte	0x47
 2054 0bec 06060000 		.4byte	0x606
 2055 0bf0 02       		.byte	0x2
 2056 0bf1 23       		.byte	0x23
 2057 0bf2 0C       		.uleb128 0xc
 2058 0bf3 06       		.uleb128 0x6
 2059 0bf4 C2000000 		.4byte	.LASF141
 2060 0bf8 10       		.byte	0x10
 2061 0bf9 47       		.byte	0x47
 2062 0bfa 460C0000 		.4byte	0xc46
 2063 0bfe 02       		.byte	0x2
 2064 0bff 23       		.byte	0x23
 2065 0c00 10       		.uleb128 0x10
 2066 0c01 06       		.uleb128 0x6
 2067 0c02 AC020000 		.4byte	.LASF142
 2068 0c06 10       		.byte	0x10
 2069 0c07 47       		.byte	0x47
 2070 0c08 610C0000 		.4byte	0xc61
 2071 0c0c 02       		.byte	0x2
 2072 0c0d 23       		.byte	0x23
 2073 0c0e 14       		.uleb128 0x14
 2074 0c0f 06       		.uleb128 0x6
 2075 0c10 48000000 		.4byte	.LASF143
 2076 0c14 10       		.byte	0x10
 2077 0c15 47       		.byte	0x47
 2078 0c16 860C0000 		.4byte	0xc86
 2079 0c1a 02       		.byte	0x2
 2080 0c1b 23       		.byte	0x23
 2081 0c1c 18       		.uleb128 0x18
 2082 0c1d 06       		.uleb128 0x6
 2083 0c1e 59010000 		.4byte	.LASF144
 2084 0c22 10       		.byte	0x10
ARM GAS  C:\Users\DNIEL~1\AppData\Local\Temp\ccrV7HYC.s 			page 38


 2085 0c23 47       		.byte	0x47
 2086 0c24 AB0C0000 		.4byte	0xcab
 2087 0c28 02       		.byte	0x2
 2088 0c29 23       		.byte	0x23
 2089 0c2a 1C       		.uleb128 0x1c
 2090 0c2b 00       		.byte	0
 2091 0c2c 13       		.uleb128 0x13
 2092 0c2d 01       		.byte	0x1
 2093 0c2e E8000000 		.4byte	0xe8
 2094 0c32 460C0000 		.4byte	0xc46
 2095 0c36 0F       		.uleb128 0xf
 2096 0c37 B2020000 		.4byte	0x2b2
 2097 0c3b 0F       		.uleb128 0xf
 2098 0c3c 49000000 		.4byte	0x49
 2099 0c40 0F       		.uleb128 0xf
 2100 0c41 09010000 		.4byte	0x109
 2101 0c45 00       		.byte	0
 2102 0c46 09       		.uleb128 0x9
 2103 0c47 04       		.byte	0x4
 2104 0c48 2C0C0000 		.4byte	0xc2c
 2105 0c4c 13       		.uleb128 0x13
 2106 0c4d 01       		.byte	0x1
 2107 0c4e E8000000 		.4byte	0xe8
 2108 0c52 610C0000 		.4byte	0xc61
 2109 0c56 0F       		.uleb128 0xf
 2110 0c57 B2020000 		.4byte	0x2b2
 2111 0c5b 0F       		.uleb128 0xf
 2112 0c5c 09010000 		.4byte	0x109
 2113 0c60 00       		.byte	0
 2114 0c61 09       		.uleb128 0x9
 2115 0c62 04       		.byte	0x4
 2116 0c63 4C0C0000 		.4byte	0xc4c
 2117 0c67 13       		.uleb128 0x13
 2118 0c68 01       		.byte	0x1
 2119 0c69 30000000 		.4byte	0x30
 2120 0c6d 860C0000 		.4byte	0xc86
 2121 0c71 0F       		.uleb128 0xf
 2122 0c72 B2020000 		.4byte	0x2b2
 2123 0c76 0F       		.uleb128 0xf
 2124 0c77 81060000 		.4byte	0x681
 2125 0c7b 0F       		.uleb128 0xf
 2126 0c7c 30000000 		.4byte	0x30
 2127 0c80 0F       		.uleb128 0xf
 2128 0c81 09010000 		.4byte	0x109
 2129 0c85 00       		.byte	0
 2130 0c86 09       		.uleb128 0x9
 2131 0c87 04       		.byte	0x4
 2132 0c88 670C0000 		.4byte	0xc67
 2133 0c8c 13       		.uleb128 0x13
 2134 0c8d 01       		.byte	0x1
 2135 0c8e 30000000 		.4byte	0x30
 2136 0c92 AB0C0000 		.4byte	0xcab
 2137 0c96 0F       		.uleb128 0xf
 2138 0c97 B2020000 		.4byte	0x2b2
 2139 0c9b 0F       		.uleb128 0xf
 2140 0c9c 1C060000 		.4byte	0x61c
 2141 0ca0 0F       		.uleb128 0xf
ARM GAS  C:\Users\DNIEL~1\AppData\Local\Temp\ccrV7HYC.s 			page 39


 2142 0ca1 30000000 		.4byte	0x30
 2143 0ca5 0F       		.uleb128 0xf
 2144 0ca6 09010000 		.4byte	0x109
 2145 0caa 00       		.byte	0
 2146 0cab 09       		.uleb128 0x9
 2147 0cac 04       		.byte	0x4
 2148 0cad 8C0C0000 		.4byte	0xc8c
 2149 0cb1 08       		.uleb128 0x8
 2150 0cb2 04       		.byte	0x4
 2151 0cb3 10       		.byte	0x10
 2152 0cb4 51       		.byte	0x51
 2153 0cb5 C80C0000 		.4byte	0xcc8
 2154 0cb9 07       		.uleb128 0x7
 2155 0cba 766D7400 		.ascii	"vmt\000"
 2156 0cbe 10       		.byte	0x10
 2157 0cbf 53       		.byte	0x53
 2158 0cc0 C80C0000 		.4byte	0xcc8
 2159 0cc4 02       		.byte	0x2
 2160 0cc5 23       		.byte	0x23
 2161 0cc6 00       		.uleb128 0
 2162 0cc7 00       		.byte	0
 2163 0cc8 09       		.uleb128 0x9
 2164 0cc9 04       		.byte	0x4
 2165 0cca CE0C0000 		.4byte	0xcce
 2166 0cce 12       		.uleb128 0x12
 2167 0ccf AF0B0000 		.4byte	0xbaf
 2168 0cd3 03       		.uleb128 0x3
 2169 0cd4 1F070000 		.4byte	.LASF145
 2170 0cd8 10       		.byte	0x10
 2171 0cd9 55       		.byte	0x55
 2172 0cda B10C0000 		.4byte	0xcb1
 2173 0cde 1A       		.uleb128 0x1a
 2174 0cdf 01       		.byte	0x1
 2175 0ce0 11       		.byte	0x11
 2176 0ce1 62       		.byte	0x62
 2177 0ce2 050D0000 		.4byte	0xd05
 2178 0ce6 1B       		.uleb128 0x1b
 2179 0ce7 1B040000 		.4byte	.LASF146
 2180 0ceb 00       		.sleb128 0
 2181 0cec 1B       		.uleb128 0x1b
 2182 0ced 0C080000 		.4byte	.LASF147
 2183 0cf1 01       		.sleb128 1
 2184 0cf2 1B       		.uleb128 0x1b
 2185 0cf3 B7030000 		.4byte	.LASF148
 2186 0cf7 02       		.sleb128 2
 2187 0cf8 1B       		.uleb128 0x1b
 2188 0cf9 E1020000 		.4byte	.LASF149
 2189 0cfd 03       		.sleb128 3
 2190 0cfe 1B       		.uleb128 0x1b
 2191 0cff F1000000 		.4byte	.LASF150
 2192 0d03 04       		.sleb128 4
 2193 0d04 00       		.byte	0
 2194 0d05 03       		.uleb128 0x3
 2195 0d06 D6020000 		.4byte	.LASF151
 2196 0d0a 11       		.byte	0x11
 2197 0d0b 68       		.byte	0x68
 2198 0d0c DE0C0000 		.4byte	0xcde
ARM GAS  C:\Users\DNIEL~1\AppData\Local\Temp\ccrV7HYC.s 			page 40


 2199 0d10 08       		.uleb128 0x8
 2200 0d11 01       		.byte	0x1
 2201 0d12 12       		.byte	0x12
 2202 0d13 78       		.byte	0x78
 2203 0d14 4C0D0000 		.4byte	0xd4c
 2204 0d18 1C       		.uleb128 0x1c
 2205 0d19 444C4300 		.ascii	"DLC\000"
 2206 0d1d 12       		.byte	0x12
 2207 0d1e 79       		.byte	0x79
 2208 0d1f 49000000 		.4byte	0x49
 2209 0d23 01       		.byte	0x1
 2210 0d24 04       		.byte	0x4
 2211 0d25 04       		.byte	0x4
 2212 0d26 02       		.byte	0x2
 2213 0d27 23       		.byte	0x23
 2214 0d28 00       		.uleb128 0
 2215 0d29 1C       		.uleb128 0x1c
 2216 0d2a 52545200 		.ascii	"RTR\000"
 2217 0d2e 12       		.byte	0x12
 2218 0d2f 7A       		.byte	0x7a
 2219 0d30 49000000 		.4byte	0x49
 2220 0d34 01       		.byte	0x1
 2221 0d35 01       		.byte	0x1
 2222 0d36 03       		.byte	0x3
 2223 0d37 02       		.byte	0x2
 2224 0d38 23       		.byte	0x23
 2225 0d39 00       		.uleb128 0
 2226 0d3a 1C       		.uleb128 0x1c
 2227 0d3b 49444500 		.ascii	"IDE\000"
 2228 0d3f 12       		.byte	0x12
 2229 0d40 7B       		.byte	0x7b
 2230 0d41 49000000 		.4byte	0x49
 2231 0d45 01       		.byte	0x1
 2232 0d46 01       		.byte	0x1
 2233 0d47 02       		.byte	0x2
 2234 0d48 02       		.byte	0x2
 2235 0d49 23       		.byte	0x23
 2236 0d4a 00       		.uleb128 0
 2237 0d4b 00       		.byte	0
 2238 0d4c 08       		.uleb128 0x8
 2239 0d4d 04       		.byte	0x4
 2240 0d4e 12       		.byte	0x12
 2241 0d4f 7E       		.byte	0x7e
 2242 0d50 660D0000 		.4byte	0xd66
 2243 0d54 1C       		.uleb128 0x1c
 2244 0d55 53494400 		.ascii	"SID\000"
 2245 0d59 12       		.byte	0x12
 2246 0d5a 7F       		.byte	0x7f
 2247 0d5b 86000000 		.4byte	0x86
 2248 0d5f 04       		.byte	0x4
 2249 0d60 0B       		.byte	0xb
 2250 0d61 15       		.byte	0x15
 2251 0d62 02       		.byte	0x2
 2252 0d63 23       		.byte	0x23
 2253 0d64 00       		.uleb128 0
 2254 0d65 00       		.byte	0
 2255 0d66 08       		.uleb128 0x8
ARM GAS  C:\Users\DNIEL~1\AppData\Local\Temp\ccrV7HYC.s 			page 41


 2256 0d67 04       		.byte	0x4
 2257 0d68 12       		.byte	0x12
 2258 0d69 81       		.byte	0x81
 2259 0d6a 800D0000 		.4byte	0xd80
 2260 0d6e 1C       		.uleb128 0x1c
 2261 0d6f 45494400 		.ascii	"EID\000"
 2262 0d73 12       		.byte	0x12
 2263 0d74 82       		.byte	0x82
 2264 0d75 86000000 		.4byte	0x86
 2265 0d79 04       		.byte	0x4
 2266 0d7a 1D       		.byte	0x1d
 2267 0d7b 03       		.byte	0x3
 2268 0d7c 02       		.byte	0x2
 2269 0d7d 23       		.byte	0x23
 2270 0d7e 00       		.uleb128 0
 2271 0d7f 00       		.byte	0
 2272 0d80 10       		.uleb128 0x10
 2273 0d81 04       		.byte	0x4
 2274 0d82 12       		.byte	0x12
 2275 0d83 7D       		.byte	0x7d
 2276 0d84 930D0000 		.4byte	0xd93
 2277 0d88 1D       		.uleb128 0x1d
 2278 0d89 4C0D0000 		.4byte	0xd4c
 2279 0d8d 1D       		.uleb128 0x1d
 2280 0d8e 660D0000 		.4byte	0xd66
 2281 0d92 00       		.byte	0
 2282 0d93 10       		.uleb128 0x10
 2283 0d94 08       		.byte	0x8
 2284 0d95 12       		.byte	0x12
 2285 0d96 85       		.byte	0x85
 2286 0d97 BD0D0000 		.4byte	0xdbd
 2287 0d9b 11       		.uleb128 0x11
 2288 0d9c 4B050000 		.4byte	.LASF152
 2289 0da0 12       		.byte	0x12
 2290 0da1 86       		.byte	0x86
 2291 0da2 BD0D0000 		.4byte	0xdbd
 2292 0da6 11       		.uleb128 0x11
 2293 0da7 1A000000 		.4byte	.LASF153
 2294 0dab 12       		.byte	0x12
 2295 0dac 87       		.byte	0x87
 2296 0dad CD0D0000 		.4byte	0xdcd
 2297 0db1 11       		.uleb128 0x11
 2298 0db2 80030000 		.4byte	.LASF154
 2299 0db6 12       		.byte	0x12
 2300 0db7 88       		.byte	0x88
 2301 0db8 0A070000 		.4byte	0x70a
 2302 0dbc 00       		.byte	0
 2303 0dbd 14       		.uleb128 0x14
 2304 0dbe 49000000 		.4byte	0x49
 2305 0dc2 CD0D0000 		.4byte	0xdcd
 2306 0dc6 15       		.uleb128 0x15
 2307 0dc7 75030000 		.4byte	0x375
 2308 0dcb 07       		.byte	0x7
 2309 0dcc 00       		.byte	0
 2310 0dcd 14       		.uleb128 0x14
 2311 0dce 62000000 		.4byte	0x62
 2312 0dd2 DD0D0000 		.4byte	0xddd
ARM GAS  C:\Users\DNIEL~1\AppData\Local\Temp\ccrV7HYC.s 			page 42


 2313 0dd6 15       		.uleb128 0x15
 2314 0dd7 75030000 		.4byte	0x375
 2315 0ddb 03       		.byte	0x3
 2316 0ddc 00       		.byte	0
 2317 0ddd 08       		.uleb128 0x8
 2318 0dde 10       		.byte	0x10
 2319 0ddf 12       		.byte	0x12
 2320 0de0 77       		.byte	0x77
 2321 0de1 FE0D0000 		.4byte	0xdfe
 2322 0de5 1E       		.uleb128 0x1e
 2323 0de6 100D0000 		.4byte	0xd10
 2324 0dea 02       		.byte	0x2
 2325 0deb 23       		.byte	0x23
 2326 0dec 00       		.uleb128 0
 2327 0ded 1E       		.uleb128 0x1e
 2328 0dee 800D0000 		.4byte	0xd80
 2329 0df2 02       		.byte	0x2
 2330 0df3 23       		.byte	0x23
 2331 0df4 04       		.uleb128 0x4
 2332 0df5 1E       		.uleb128 0x1e
 2333 0df6 930D0000 		.4byte	0xd93
 2334 0dfa 02       		.byte	0x2
 2335 0dfb 23       		.byte	0x23
 2336 0dfc 08       		.uleb128 0x8
 2337 0dfd 00       		.byte	0
 2338 0dfe 03       		.uleb128 0x3
 2339 0dff B1000000 		.4byte	.LASF155
 2340 0e03 12       		.byte	0x12
 2341 0e04 8A       		.byte	0x8a
 2342 0e05 DD0D0000 		.4byte	0xddd
 2343 0e09 08       		.uleb128 0x8
 2344 0e0a 0C       		.byte	0xc
 2345 0e0b 12       		.byte	0x12
 2346 0e0c AE       		.byte	0xae
 2347 0e0d 610E0000 		.4byte	0xe61
 2348 0e11 1F       		.uleb128 0x1f
 2349 0e12 F3060000 		.4byte	.LASF156
 2350 0e16 12       		.byte	0x12
 2351 0e17 B4       		.byte	0xb4
 2352 0e18 86000000 		.4byte	0x86
 2353 0e1c 04       		.byte	0x4
 2354 0e1d 01       		.byte	0x1
 2355 0e1e 1F       		.byte	0x1f
 2356 0e1f 02       		.byte	0x2
 2357 0e20 23       		.byte	0x23
 2358 0e21 00       		.uleb128 0
 2359 0e22 1F       		.uleb128 0x1f
 2360 0e23 1F020000 		.4byte	.LASF157
 2361 0e27 12       		.byte	0x12
 2362 0e28 BA       		.byte	0xba
 2363 0e29 86000000 		.4byte	0x86
 2364 0e2d 04       		.byte	0x4
 2365 0e2e 01       		.byte	0x1
 2366 0e2f 1E       		.byte	0x1e
 2367 0e30 02       		.byte	0x2
 2368 0e31 23       		.byte	0x23
 2369 0e32 00       		.uleb128 0
ARM GAS  C:\Users\DNIEL~1\AppData\Local\Temp\ccrV7HYC.s 			page 43


 2370 0e33 1F       		.uleb128 0x1f
 2371 0e34 0D070000 		.4byte	.LASF158
 2372 0e38 12       		.byte	0x12
 2373 0e39 C0       		.byte	0xc0
 2374 0e3a 86000000 		.4byte	0x86
 2375 0e3e 04       		.byte	0x4
 2376 0e3f 01       		.byte	0x1
 2377 0e40 1D       		.byte	0x1d
 2378 0e41 02       		.byte	0x2
 2379 0e42 23       		.byte	0x23
 2380 0e43 00       		.uleb128 0
 2381 0e44 06       		.uleb128 0x6
 2382 0e45 C2020000 		.4byte	.LASF159
 2383 0e49 12       		.byte	0x12
 2384 0e4a C4       		.byte	0xc4
 2385 0e4b 86000000 		.4byte	0x86
 2386 0e4f 02       		.byte	0x2
 2387 0e50 23       		.byte	0x23
 2388 0e51 04       		.uleb128 0x4
 2389 0e52 06       		.uleb128 0x6
 2390 0e53 CC020000 		.4byte	.LASF160
 2391 0e57 12       		.byte	0x12
 2392 0e58 C8       		.byte	0xc8
 2393 0e59 86000000 		.4byte	0x86
 2394 0e5d 02       		.byte	0x2
 2395 0e5e 23       		.byte	0x23
 2396 0e5f 08       		.uleb128 0x8
 2397 0e60 00       		.byte	0
 2398 0e61 03       		.uleb128 0x3
 2399 0e62 3B070000 		.4byte	.LASF161
 2400 0e66 12       		.byte	0x12
 2401 0e67 C9       		.byte	0xc9
 2402 0e68 090E0000 		.4byte	0xe09
 2403 0e6c 08       		.uleb128 0x8
 2404 0e6d 10       		.byte	0x10
 2405 0e6e 12       		.byte	0x12
 2406 0e6f CE       		.byte	0xce
 2407 0e70 AD0E0000 		.4byte	0xead
 2408 0e74 07       		.uleb128 0x7
 2409 0e75 6D637200 		.ascii	"mcr\000"
 2410 0e79 12       		.byte	0x12
 2411 0e7a D4       		.byte	0xd4
 2412 0e7b 86000000 		.4byte	0x86
 2413 0e7f 02       		.byte	0x2
 2414 0e80 23       		.byte	0x23
 2415 0e81 00       		.uleb128 0
 2416 0e82 07       		.uleb128 0x7
 2417 0e83 62747200 		.ascii	"btr\000"
 2418 0e87 12       		.byte	0x12
 2419 0e88 DA       		.byte	0xda
 2420 0e89 86000000 		.4byte	0x86
 2421 0e8d 02       		.byte	0x2
 2422 0e8e 23       		.byte	0x23
 2423 0e8f 04       		.uleb128 0x4
 2424 0e90 07       		.uleb128 0x7
 2425 0e91 6E756D00 		.ascii	"num\000"
 2426 0e95 12       		.byte	0x12
ARM GAS  C:\Users\DNIEL~1\AppData\Local\Temp\ccrV7HYC.s 			page 44


 2427 0e96 E0       		.byte	0xe0
 2428 0e97 86000000 		.4byte	0x86
 2429 0e9b 02       		.byte	0x2
 2430 0e9c 23       		.byte	0x23
 2431 0e9d 08       		.uleb128 0x8
 2432 0e9e 06       		.uleb128 0x6
 2433 0e9f 5F010000 		.4byte	.LASF162
 2434 0ea3 12       		.byte	0x12
 2435 0ea4 E6       		.byte	0xe6
 2436 0ea5 AD0E0000 		.4byte	0xead
 2437 0ea9 02       		.byte	0x2
 2438 0eaa 23       		.byte	0x23
 2439 0eab 0C       		.uleb128 0xc
 2440 0eac 00       		.byte	0
 2441 0ead 09       		.uleb128 0x9
 2442 0eae 04       		.byte	0x4
 2443 0eaf B30E0000 		.4byte	0xeb3
 2444 0eb3 12       		.uleb128 0x12
 2445 0eb4 610E0000 		.4byte	0xe61
 2446 0eb8 03       		.uleb128 0x3
 2447 0eb9 F4050000 		.4byte	.LASF163
 2448 0ebd 12       		.byte	0x12
 2449 0ebe E7       		.byte	0xe7
 2450 0ebf 6C0E0000 		.4byte	0xe6c
 2451 0ec3 08       		.uleb128 0x8
 2452 0ec4 38       		.byte	0x38
 2453 0ec5 12       		.byte	0x12
 2454 0ec6 EC       		.byte	0xec
 2455 0ec7 5E0F0000 		.4byte	0xf5e
 2456 0ecb 06       		.uleb128 0x6
 2457 0ecc AB000000 		.4byte	.LASF164
 2458 0ed0 12       		.byte	0x12
 2459 0ed1 F0       		.byte	0xf0
 2460 0ed2 050D0000 		.4byte	0xd05
 2461 0ed6 02       		.byte	0x2
 2462 0ed7 23       		.byte	0x23
 2463 0ed8 00       		.uleb128 0
 2464 0ed9 06       		.uleb128 0x6
 2465 0eda A4000000 		.4byte	.LASF165
 2466 0ede 12       		.byte	0x12
 2467 0edf F4       		.byte	0xf4
 2468 0ee0 5E0F0000 		.4byte	0xf5e
 2469 0ee4 02       		.byte	0x2
 2470 0ee5 23       		.byte	0x23
 2471 0ee6 04       		.uleb128 0x4
 2472 0ee7 06       		.uleb128 0x6
 2473 0ee8 BC000000 		.4byte	.LASF166
 2474 0eec 12       		.byte	0x12
 2475 0eed F8       		.byte	0xf8
 2476 0eee DF040000 		.4byte	0x4df
 2477 0ef2 02       		.byte	0x2
 2478 0ef3 23       		.byte	0x23
 2479 0ef4 08       		.uleb128 0x8
 2480 0ef5 06       		.uleb128 0x6
 2481 0ef6 35030000 		.4byte	.LASF167
 2482 0efa 12       		.byte	0x12
 2483 0efb FC       		.byte	0xfc
ARM GAS  C:\Users\DNIEL~1\AppData\Local\Temp\ccrV7HYC.s 			page 45


 2484 0efc DF040000 		.4byte	0x4df
 2485 0f00 02       		.byte	0x2
 2486 0f01 23       		.byte	0x23
 2487 0f02 14       		.uleb128 0x14
 2488 0f03 17       		.uleb128 0x17
 2489 0f04 12020000 		.4byte	.LASF168
 2490 0f08 12       		.byte	0x12
 2491 0f09 0601     		.2byte	0x106
 2492 0f0b A3050000 		.4byte	0x5a3
 2493 0f0f 02       		.byte	0x2
 2494 0f10 23       		.byte	0x23
 2495 0f11 20       		.uleb128 0x20
 2496 0f12 17       		.uleb128 0x17
 2497 0f13 5A060000 		.4byte	.LASF169
 2498 0f17 12       		.byte	0x12
 2499 0f18 0A01     		.2byte	0x10a
 2500 0f1a A3050000 		.4byte	0x5a3
 2501 0f1e 02       		.byte	0x2
 2502 0f1f 23       		.byte	0x23
 2503 0f20 24       		.uleb128 0x24
 2504 0f21 17       		.uleb128 0x17
 2505 0f22 BE040000 		.4byte	.LASF170
 2506 0f26 12       		.byte	0x12
 2507 0f27 0E01     		.2byte	0x10e
 2508 0f29 A3050000 		.4byte	0x5a3
 2509 0f2d 02       		.byte	0x2
 2510 0f2e 23       		.byte	0x23
 2511 0f2f 28       		.uleb128 0x28
 2512 0f30 17       		.uleb128 0x17
 2513 0f31 5D000000 		.4byte	.LASF171
 2514 0f35 12       		.byte	0x12
 2515 0f36 1301     		.2byte	0x113
 2516 0f38 A3050000 		.4byte	0x5a3
 2517 0f3c 02       		.byte	0x2
 2518 0f3d 23       		.byte	0x23
 2519 0f3e 2C       		.uleb128 0x2c
 2520 0f3f 17       		.uleb128 0x17
 2521 0f40 8E000000 		.4byte	.LASF172
 2522 0f44 12       		.byte	0x12
 2523 0f45 1701     		.2byte	0x117
 2524 0f47 A3050000 		.4byte	0x5a3
 2525 0f4b 02       		.byte	0x2
 2526 0f4c 23       		.byte	0x23
 2527 0f4d 30       		.uleb128 0x30
 2528 0f4e 0C       		.uleb128 0xc
 2529 0f4f 63616E00 		.ascii	"can\000"
 2530 0f53 12       		.byte	0x12
 2531 0f54 1D01     		.2byte	0x11d
 2532 0f56 690F0000 		.4byte	0xf69
 2533 0f5a 02       		.byte	0x2
 2534 0f5b 23       		.byte	0x23
 2535 0f5c 34       		.uleb128 0x34
 2536 0f5d 00       		.byte	0
 2537 0f5e 09       		.uleb128 0x9
 2538 0f5f 04       		.byte	0x4
 2539 0f60 640F0000 		.4byte	0xf64
 2540 0f64 12       		.uleb128 0x12
ARM GAS  C:\Users\DNIEL~1\AppData\Local\Temp\ccrV7HYC.s 			page 46


 2541 0f65 B80E0000 		.4byte	0xeb8
 2542 0f69 09       		.uleb128 0x9
 2543 0f6a 04       		.byte	0x4
 2544 0f6b BE090000 		.4byte	0x9be
 2545 0f6f 18       		.uleb128 0x18
 2546 0f70 4F010000 		.4byte	.LASF173
 2547 0f74 12       		.byte	0x12
 2548 0f75 1E01     		.2byte	0x11e
 2549 0f77 C30E0000 		.4byte	0xec3
 2550 0f7b 09       		.uleb128 0x9
 2551 0f7c 04       		.byte	0x4
 2552 0f7d A40B0000 		.4byte	0xba4
 2553 0f81 1A       		.uleb128 0x1a
 2554 0f82 01       		.byte	0x1
 2555 0f83 13       		.byte	0x13
 2556 0f84 4E       		.byte	0x4e
 2557 0f85 9C0F0000 		.4byte	0xf9c
 2558 0f89 1B       		.uleb128 0x1b
 2559 0f8a DD000000 		.4byte	.LASF174
 2560 0f8e 00       		.sleb128 0
 2561 0f8f 1B       		.uleb128 0x1b
 2562 0f90 6E050000 		.4byte	.LASF175
 2563 0f94 01       		.sleb128 1
 2564 0f95 1B       		.uleb128 0x1b
 2565 0f96 78060000 		.4byte	.LASF176
 2566 0f9a 02       		.sleb128 2
 2567 0f9b 00       		.byte	0
 2568 0f9c 03       		.uleb128 0x3
 2569 0f9d 84070000 		.4byte	.LASF177
 2570 0fa1 13       		.byte	0x13
 2571 0fa2 52       		.byte	0x52
 2572 0fa3 810F0000 		.4byte	0xf81
 2573 0fa7 03       		.uleb128 0x3
 2574 0fa8 9E040000 		.4byte	.LASF178
 2575 0fac 13       		.byte	0x13
 2576 0fad 57       		.byte	0x57
 2577 0fae B20F0000 		.4byte	0xfb2
 2578 0fb2 0B       		.uleb128 0xb
 2579 0fb3 9E040000 		.4byte	.LASF178
 2580 0fb7 14       		.byte	0x14
 2581 0fb8 14       		.byte	0x14
 2582 0fb9 5001     		.2byte	0x150
 2583 0fbb 0B100000 		.4byte	0x100b
 2584 0fbf 17       		.uleb128 0x17
 2585 0fc0 AB000000 		.4byte	.LASF164
 2586 0fc4 14       		.byte	0x14
 2587 0fc5 5401     		.2byte	0x154
 2588 0fc7 9C0F0000 		.4byte	0xf9c
 2589 0fcb 02       		.byte	0x2
 2590 0fcc 23       		.byte	0x23
 2591 0fcd 00       		.uleb128 0
 2592 0fce 17       		.uleb128 0x17
 2593 0fcf A4000000 		.4byte	.LASF165
 2594 0fd3 14       		.byte	0x14
 2595 0fd4 5801     		.2byte	0x158
 2596 0fd6 F7100000 		.4byte	0x10f7
 2597 0fda 02       		.byte	0x2
ARM GAS  C:\Users\DNIEL~1\AppData\Local\Temp\ccrV7HYC.s 			page 47


 2598 0fdb 23       		.byte	0x23
 2599 0fdc 04       		.uleb128 0x4
 2600 0fdd 17       		.uleb128 0x17
 2601 0fde 03060000 		.4byte	.LASF179
 2602 0fe2 14       		.byte	0x14
 2603 0fe3 5C01     		.2byte	0x15c
 2604 0fe5 46100000 		.4byte	0x1046
 2605 0fe9 02       		.byte	0x2
 2606 0fea 23       		.byte	0x23
 2607 0feb 08       		.uleb128 0x8
 2608 0fec 17       		.uleb128 0x17
 2609 0fed 93030000 		.4byte	.LASF180
 2610 0ff1 14       		.byte	0x14
 2611 0ff2 6401     		.2byte	0x164
 2612 0ff4 86000000 		.4byte	0x86
 2613 0ff8 02       		.byte	0x2
 2614 0ff9 23       		.byte	0x23
 2615 0ffa 0C       		.uleb128 0xc
 2616 0ffb 0C       		.uleb128 0xc
 2617 0ffc 74696D00 		.ascii	"tim\000"
 2618 1000 14       		.byte	0x14
 2619 1001 6801     		.2byte	0x168
 2620 1003 7B0F0000 		.4byte	0xf7b
 2621 1007 02       		.byte	0x2
 2622 1008 23       		.byte	0x23
 2623 1009 10       		.uleb128 0x10
 2624 100a 00       		.byte	0
 2625 100b 03       		.uleb128 0x3
 2626 100c 84040000 		.4byte	.LASF181
 2627 1010 13       		.byte	0x13
 2628 1011 5E       		.byte	0x5e
 2629 1012 16100000 		.4byte	0x1016
 2630 1016 09       		.uleb128 0x9
 2631 1017 04       		.byte	0x4
 2632 1018 1C100000 		.4byte	0x101c
 2633 101c 0E       		.uleb128 0xe
 2634 101d 01       		.byte	0x1
 2635 101e 28100000 		.4byte	0x1028
 2636 1022 0F       		.uleb128 0xf
 2637 1023 28100000 		.4byte	0x1028
 2638 1027 00       		.byte	0
 2639 1028 09       		.uleb128 0x9
 2640 1029 04       		.byte	0x4
 2641 102a A70F0000 		.4byte	0xfa7
 2642 102e 18       		.uleb128 0x18
 2643 102f EB020000 		.4byte	.LASF182
 2644 1033 14       		.byte	0x14
 2645 1034 0701     		.2byte	0x107
 2646 1036 86000000 		.4byte	0x86
 2647 103a 18       		.uleb128 0x18
 2648 103b B3010000 		.4byte	.LASF183
 2649 103f 14       		.byte	0x14
 2650 1040 0C01     		.2byte	0x10c
 2651 1042 49000000 		.4byte	0x49
 2652 1046 18       		.uleb128 0x18
 2653 1047 25020000 		.4byte	.LASF184
 2654 104b 14       		.byte	0x14
ARM GAS  C:\Users\DNIEL~1\AppData\Local\Temp\ccrV7HYC.s 			page 48


 2655 104c 1101     		.2byte	0x111
 2656 104e 62000000 		.4byte	0x62
 2657 1052 16       		.uleb128 0x16
 2658 1053 08       		.byte	0x8
 2659 1054 14       		.byte	0x14
 2660 1055 1601     		.2byte	0x116
 2661 1057 7A100000 		.4byte	0x107a
 2662 105b 17       		.uleb128 0x17
 2663 105c F3060000 		.4byte	.LASF156
 2664 1060 14       		.byte	0x14
 2665 1061 1A01     		.2byte	0x11a
 2666 1063 2E100000 		.4byte	0x102e
 2667 1067 02       		.byte	0x2
 2668 1068 23       		.byte	0x23
 2669 1069 00       		.uleb128 0
 2670 106a 17       		.uleb128 0x17
 2671 106b E8000000 		.4byte	.LASF185
 2672 106f 14       		.byte	0x14
 2673 1070 2001     		.2byte	0x120
 2674 1072 0B100000 		.4byte	0x100b
 2675 1076 02       		.byte	0x2
 2676 1077 23       		.byte	0x23
 2677 1078 04       		.uleb128 0x4
 2678 1079 00       		.byte	0
 2679 107a 18       		.uleb128 0x18
 2680 107b C7000000 		.4byte	.LASF186
 2681 107f 14       		.byte	0x14
 2682 1080 2201     		.2byte	0x122
 2683 1082 52100000 		.4byte	0x1052
 2684 1086 16       		.uleb128 0x16
 2685 1087 30       		.byte	0x30
 2686 1088 14       		.byte	0x14
 2687 1089 2701     		.2byte	0x127
 2688 108b DB100000 		.4byte	0x10db
 2689 108f 17       		.uleb128 0x17
 2690 1090 0B040000 		.4byte	.LASF187
 2691 1094 14       		.byte	0x14
 2692 1095 2D01     		.2byte	0x12d
 2693 1097 86000000 		.4byte	0x86
 2694 109b 02       		.byte	0x2
 2695 109c 23       		.byte	0x23
 2696 109d 00       		.uleb128 0
 2697 109e 17       		.uleb128 0x17
 2698 109f 03060000 		.4byte	.LASF179
 2699 10a3 14       		.byte	0x14
 2700 10a4 3301     		.2byte	0x133
 2701 10a6 46100000 		.4byte	0x1046
 2702 10aa 02       		.byte	0x2
 2703 10ab 23       		.byte	0x23
 2704 10ac 04       		.uleb128 0x4
 2705 10ad 17       		.uleb128 0x17
 2706 10ae E8000000 		.4byte	.LASF185
 2707 10b2 14       		.byte	0x14
 2708 10b3 3901     		.2byte	0x139
 2709 10b5 0B100000 		.4byte	0x100b
 2710 10b9 02       		.byte	0x2
 2711 10ba 23       		.byte	0x23
ARM GAS  C:\Users\DNIEL~1\AppData\Local\Temp\ccrV7HYC.s 			page 49


 2712 10bb 08       		.uleb128 0x8
 2713 10bc 17       		.uleb128 0x17
 2714 10bd 52040000 		.4byte	.LASF188
 2715 10c1 14       		.byte	0x14
 2716 10c2 3D01     		.2byte	0x13d
 2717 10c4 DB100000 		.4byte	0x10db
 2718 10c8 02       		.byte	0x2
 2719 10c9 23       		.byte	0x23
 2720 10ca 0C       		.uleb128 0xc
 2721 10cb 0C       		.uleb128 0xc
 2722 10cc 63723200 		.ascii	"cr2\000"
 2723 10d0 14       		.byte	0x14
 2724 10d1 4301     		.2byte	0x143
 2725 10d3 62000000 		.4byte	0x62
 2726 10d7 02       		.byte	0x2
 2727 10d8 23       		.byte	0x23
 2728 10d9 2C       		.uleb128 0x2c
 2729 10da 00       		.byte	0
 2730 10db 14       		.uleb128 0x14
 2731 10dc 7A100000 		.4byte	0x107a
 2732 10e0 EB100000 		.4byte	0x10eb
 2733 10e4 15       		.uleb128 0x15
 2734 10e5 75030000 		.4byte	0x375
 2735 10e9 03       		.byte	0x3
 2736 10ea 00       		.byte	0
 2737 10eb 18       		.uleb128 0x18
 2738 10ec 45070000 		.4byte	.LASF189
 2739 10f0 14       		.byte	0x14
 2740 10f1 4B01     		.2byte	0x14b
 2741 10f3 86100000 		.4byte	0x1086
 2742 10f7 09       		.uleb128 0x9
 2743 10f8 04       		.byte	0x4
 2744 10f9 FD100000 		.4byte	0x10fd
 2745 10fd 12       		.uleb128 0x12
 2746 10fe EB100000 		.4byte	0x10eb
 2747 1102 09       		.uleb128 0x9
 2748 1103 04       		.byte	0x4
 2749 1104 EE050000 		.4byte	0x5ee
 2750 1108 04       		.uleb128 0x4
 2751 1109 08       		.byte	0x8
 2752 110a 04       		.byte	0x4
 2753 110b E6030000 		.4byte	.LASF190
 2754 110f 04       		.uleb128 0x4
 2755 1110 04       		.byte	0x4
 2756 1111 04       		.byte	0x4
 2757 1112 15040000 		.4byte	.LASF191
 2758 1116 04       		.uleb128 0x4
 2759 1117 08       		.byte	0x8
 2760 1118 04       		.byte	0x4
 2761 1119 6B070000 		.4byte	.LASF192
 2762 111d 20       		.uleb128 0x20
 2763 111e 94010000 		.4byte	.LASF215
 2764 1122 01       		.byte	0x1
 2765 1123 20       		.byte	0x20
 2766 1124 01       		.byte	0x1
 2767 1125 E8000000 		.4byte	0xe8
 2768 1129 00000000 		.4byte	.LFB118
ARM GAS  C:\Users\DNIEL~1\AppData\Local\Temp\ccrV7HYC.s 			page 50


 2769 112d B4000000 		.4byte	.LFE118
 2770 1131 00000000 		.4byte	.LLST0
 2771 1135 01       		.byte	0x1
 2772 1136 BD110000 		.4byte	0x11bd
 2773 113a 21       		.uleb128 0x21
 2774 113b 7000     		.ascii	"p\000"
 2775 113d 01       		.byte	0x1
 2776 113e 20       		.byte	0x20
 2777 113f B2020000 		.4byte	0x2b2
 2778 1143 20000000 		.4byte	.LLST1
 2779 1147 22       		.uleb128 0x22
 2780 1148 60000000 		.4byte	.LVL2
 2781 114c 10140000 		.4byte	0x1410
 2782 1150 64110000 		.4byte	0x1164
 2783 1154 23       		.uleb128 0x23
 2784 1155 01       		.byte	0x1
 2785 1156 52       		.byte	0x52
 2786 1157 02       		.byte	0x2
 2787 1158 08       		.byte	0x8
 2788 1159 64       		.byte	0x64
 2789 115a 23       		.uleb128 0x23
 2790 115b 01       		.byte	0x1
 2791 115c 51       		.byte	0x51
 2792 115d 05       		.byte	0x5
 2793 115e 03       		.byte	0x3
 2794 115f 00000000 		.4byte	.LANCHOR0
 2795 1163 00       		.byte	0
 2796 1164 22       		.uleb128 0x22
 2797 1165 76000000 		.4byte	.LVL3
 2798 1169 43140000 		.4byte	0x1443
 2799 116d 7D110000 		.4byte	0x117d
 2800 1171 23       		.uleb128 0x23
 2801 1172 01       		.byte	0x1
 2802 1173 51       		.byte	0x51
 2803 1174 01       		.byte	0x1
 2804 1175 31       		.byte	0x31
 2805 1176 23       		.uleb128 0x23
 2806 1177 01       		.byte	0x1
 2807 1178 50       		.byte	0x50
 2808 1179 02       		.byte	0x2
 2809 117a 76       		.byte	0x76
 2810 117b 00       		.sleb128 0
 2811 117c 00       		.byte	0
 2812 117d 22       		.uleb128 0x22
 2813 117e 7E000000 		.4byte	.LVL4
 2814 1182 61140000 		.4byte	0x1461
 2815 1186 92110000 		.4byte	0x1192
 2816 118a 23       		.uleb128 0x23
 2817 118b 01       		.byte	0x1
 2818 118c 50       		.byte	0x50
 2819 118d 03       		.byte	0x3
 2820 118e 0A       		.byte	0xa
 2821 118f 9001     		.2byte	0x190
 2822 1191 00       		.byte	0
 2823 1192 22       		.uleb128 0x22
 2824 1193 86000000 		.4byte	.LVL5
 2825 1197 76140000 		.4byte	0x1476
ARM GAS  C:\Users\DNIEL~1\AppData\Local\Temp\ccrV7HYC.s 			page 51


 2826 119b AB110000 		.4byte	0x11ab
 2827 119f 23       		.uleb128 0x23
 2828 11a0 01       		.byte	0x1
 2829 11a1 51       		.byte	0x51
 2830 11a2 01       		.byte	0x1
 2831 11a3 31       		.byte	0x31
 2832 11a4 23       		.uleb128 0x23
 2833 11a5 01       		.byte	0x1
 2834 11a6 50       		.byte	0x50
 2835 11a7 02       		.byte	0x2
 2836 11a8 76       		.byte	0x76
 2837 11a9 00       		.sleb128 0
 2838 11aa 00       		.byte	0
 2839 11ab 24       		.uleb128 0x24
 2840 11ac 8E000000 		.4byte	.LVL6
 2841 11b0 61140000 		.4byte	0x1461
 2842 11b4 23       		.uleb128 0x23
 2843 11b5 01       		.byte	0x1
 2844 11b6 50       		.byte	0x50
 2845 11b7 03       		.byte	0x3
 2846 11b8 0A       		.byte	0xa
 2847 11b9 9001     		.2byte	0x190
 2848 11bb 00       		.byte	0
 2849 11bc 00       		.byte	0
 2850 11bd 25       		.uleb128 0x25
 2851 11be 01       		.byte	0x1
 2852 11bf A8040000 		.4byte	.LASF193
 2853 11c3 01       		.byte	0x1
 2854 11c4 39       		.byte	0x39
 2855 11c5 01       		.byte	0x1
 2856 11c6 00000000 		.4byte	.LFB119
 2857 11ca 3A000000 		.4byte	.LFE119
 2858 11ce 41000000 		.4byte	.LLST2
 2859 11d2 01       		.byte	0x1
 2860 11d3 1E120000 		.4byte	0x121e
 2861 11d7 22       		.uleb128 0x22
 2862 11d8 18000000 		.4byte	.LVL7
 2863 11dc 8F140000 		.4byte	0x148f
 2864 11e0 EE110000 		.4byte	0x11ee
 2865 11e4 23       		.uleb128 0x23
 2866 11e5 01       		.byte	0x1
 2867 11e6 51       		.byte	0x51
 2868 11e7 05       		.byte	0x5
 2869 11e8 03       		.byte	0x3
 2870 11e9 00000000 		.4byte	.LANCHOR1
 2871 11ed 00       		.byte	0
 2872 11ee 24       		.uleb128 0x24
 2873 11ef 36000000 		.4byte	.LVL8
 2874 11f3 A8140000 		.4byte	0x14a8
 2875 11f7 23       		.uleb128 0x23
 2876 11f8 01       		.byte	0x1
 2877 11f9 53       		.byte	0x53
 2878 11fa 05       		.byte	0x5
 2879 11fb 03       		.byte	0x3
 2880 11fc 00000000 		.4byte	light_blink
 2881 1200 23       		.uleb128 0x23
 2882 1201 01       		.byte	0x1
ARM GAS  C:\Users\DNIEL~1\AppData\Local\Temp\ccrV7HYC.s 			page 52


 2883 1202 52       		.byte	0x52
 2884 1203 02       		.byte	0x2
 2885 1204 08       		.byte	0x8
 2886 1205 40       		.byte	0x40
 2887 1206 23       		.uleb128 0x23
 2888 1207 01       		.byte	0x1
 2889 1208 51       		.byte	0x51
 2890 1209 03       		.byte	0x3
 2891 120a 0A       		.byte	0xa
 2892 120b B001     		.2byte	0x1b0
 2893 120d 23       		.uleb128 0x23
 2894 120e 01       		.byte	0x1
 2895 120f 50       		.byte	0x50
 2896 1210 05       		.byte	0x5
 2897 1211 03       		.byte	0x3
 2898 1212 00000000 		.4byte	.LANCHOR2
 2899 1216 23       		.uleb128 0x23
 2900 1217 02       		.byte	0x2
 2901 1218 7D       		.byte	0x7d
 2902 1219 00       		.sleb128 0
 2903 121a 01       		.byte	0x1
 2904 121b 30       		.byte	0x30
 2905 121c 00       		.byte	0
 2906 121d 00       		.byte	0
 2907 121e 25       		.uleb128 0x25
 2908 121f 01       		.byte	0x1
 2909 1220 69000000 		.4byte	.LASF194
 2910 1224 01       		.byte	0x1
 2911 1225 42       		.byte	0x42
 2912 1226 01       		.byte	0x1
 2913 1227 00000000 		.4byte	.LFB120
 2914 122b 84000000 		.4byte	.LFE120
 2915 122f 6D000000 		.4byte	.LLST3
 2916 1233 01       		.byte	0x1
 2917 1234 81120000 		.4byte	0x1281
 2918 1238 22       		.uleb128 0x22
 2919 1239 50000000 		.4byte	.LVL9
 2920 123d 43140000 		.4byte	0x1443
 2921 1241 51120000 		.4byte	0x1251
 2922 1245 23       		.uleb128 0x23
 2923 1246 01       		.byte	0x1
 2924 1247 51       		.byte	0x51
 2925 1248 01       		.byte	0x1
 2926 1249 30       		.byte	0x30
 2927 124a 23       		.uleb128 0x23
 2928 124b 01       		.byte	0x1
 2929 124c 50       		.byte	0x50
 2930 124d 02       		.byte	0x2
 2931 124e 74       		.byte	0x74
 2932 124f 00       		.sleb128 0
 2933 1250 00       		.byte	0
 2934 1251 22       		.uleb128 0x22
 2935 1252 68000000 		.4byte	.LVL10
 2936 1256 43140000 		.4byte	0x1443
 2937 125a 6A120000 		.4byte	0x126a
 2938 125e 23       		.uleb128 0x23
 2939 125f 01       		.byte	0x1
ARM GAS  C:\Users\DNIEL~1\AppData\Local\Temp\ccrV7HYC.s 			page 53


 2940 1260 51       		.byte	0x51
 2941 1261 01       		.byte	0x1
 2942 1262 32       		.byte	0x32
 2943 1263 23       		.uleb128 0x23
 2944 1264 01       		.byte	0x1
 2945 1265 50       		.byte	0x50
 2946 1266 02       		.byte	0x2
 2947 1267 74       		.byte	0x74
 2948 1268 00       		.sleb128 0
 2949 1269 00       		.byte	0
 2950 126a 26       		.uleb128 0x26
 2951 126b 84000000 		.4byte	.LVL11
 2952 126f 01       		.byte	0x1
 2953 1270 43140000 		.4byte	0x1443
 2954 1274 23       		.uleb128 0x23
 2955 1275 01       		.byte	0x1
 2956 1276 51       		.byte	0x51
 2957 1277 01       		.byte	0x1
 2958 1278 33       		.byte	0x33
 2959 1279 23       		.uleb128 0x23
 2960 127a 01       		.byte	0x1
 2961 127b 50       		.byte	0x50
 2962 127c 02       		.byte	0x2
 2963 127d 74       		.byte	0x74
 2964 127e 00       		.sleb128 0
 2965 127f 00       		.byte	0
 2966 1280 00       		.byte	0
 2967 1281 25       		.uleb128 0x25
 2968 1282 01       		.byte	0x1
 2969 1283 30080000 		.4byte	.LASF195
 2970 1287 01       		.byte	0x1
 2971 1288 53       		.byte	0x53
 2972 1289 01       		.byte	0x1
 2973 128a 00000000 		.4byte	.LFB121
 2974 128e 64000000 		.4byte	.LFE121
 2975 1292 8D000000 		.4byte	.LLST4
 2976 1296 01       		.byte	0x1
 2977 1297 6C130000 		.4byte	0x136c
 2978 129b 21       		.uleb128 0x21
 2979 129c 63687000 		.ascii	"chp\000"
 2980 12a0 01       		.byte	0x1
 2981 12a1 53       		.byte	0x53
 2982 12a2 6C130000 		.4byte	0x136c
 2983 12a6 AD000000 		.4byte	.LLST5
 2984 12aa 27       		.uleb128 0x27
 2985 12ab 99030000 		.4byte	.LASF196
 2986 12af 01       		.byte	0x1
 2987 12b0 53       		.byte	0x53
 2988 12b1 29000000 		.4byte	0x29
 2989 12b5 EC000000 		.4byte	.LLST6
 2990 12b9 27       		.uleb128 0x27
 2991 12ba 9E030000 		.4byte	.LASF197
 2992 12be 01       		.byte	0x1
 2993 12bf 53       		.byte	0x53
 2994 12c0 72130000 		.4byte	0x1372
 2995 12c4 0D010000 		.4byte	.LLST7
 2996 12c8 22       		.uleb128 0x22
ARM GAS  C:\Users\DNIEL~1\AppData\Local\Temp\ccrV7HYC.s 			page 54


 2997 12c9 0C000000 		.4byte	.LVL14
 2998 12cd D5140000 		.4byte	0x14d5
 2999 12d1 E5120000 		.4byte	0x12e5
 3000 12d5 23       		.uleb128 0x23
 3001 12d6 01       		.byte	0x1
 3002 12d7 51       		.byte	0x51
 3003 12d8 05       		.byte	0x5
 3004 12d9 03       		.byte	0x3
 3005 12da 0C000000 		.4byte	.LC1
 3006 12de 23       		.uleb128 0x23
 3007 12df 01       		.byte	0x1
 3008 12e0 50       		.byte	0x50
 3009 12e1 02       		.byte	0x2
 3010 12e2 74       		.byte	0x74
 3011 12e3 00       		.sleb128 0
 3012 12e4 00       		.byte	0
 3013 12e5 22       		.uleb128 0x22
 3014 12e6 14000000 		.4byte	.LVL15
 3015 12ea D5140000 		.4byte	0x14d5
 3016 12ee 02130000 		.4byte	0x1302
 3017 12f2 23       		.uleb128 0x23
 3018 12f3 01       		.byte	0x1
 3019 12f4 51       		.byte	0x51
 3020 12f5 05       		.byte	0x5
 3021 12f6 03       		.byte	0x3
 3022 12f7 10000000 		.4byte	.LC2
 3023 12fb 23       		.uleb128 0x23
 3024 12fc 01       		.byte	0x1
 3025 12fd 50       		.byte	0x50
 3026 12fe 02       		.byte	0x2
 3027 12ff 74       		.byte	0x74
 3028 1300 00       		.sleb128 0
 3029 1301 00       		.byte	0
 3030 1302 28       		.uleb128 0x28
 3031 1303 1A000000 		.4byte	.LVL17
 3032 1307 D5140000 		.4byte	0x14d5
 3033 130b 22       		.uleb128 0x22
 3034 130c 22000000 		.4byte	.LVL18
 3035 1310 D5140000 		.4byte	0x14d5
 3036 1314 28130000 		.4byte	0x1328
 3037 1318 23       		.uleb128 0x23
 3038 1319 01       		.byte	0x1
 3039 131a 51       		.byte	0x51
 3040 131b 05       		.byte	0x5
 3041 131c 03       		.byte	0x3
 3042 131d 24000000 		.4byte	.LC4
 3043 1321 23       		.uleb128 0x23
 3044 1322 01       		.byte	0x1
 3045 1323 50       		.byte	0x50
 3046 1324 02       		.byte	0x2
 3047 1325 74       		.byte	0x74
 3048 1326 00       		.sleb128 0
 3049 1327 00       		.byte	0
 3050 1328 22       		.uleb128 0x22
 3051 1329 2C000000 		.4byte	.LVL19
 3052 132d D5140000 		.4byte	0x14d5
 3053 1331 45130000 		.4byte	0x1345
ARM GAS  C:\Users\DNIEL~1\AppData\Local\Temp\ccrV7HYC.s 			page 55


 3054 1335 23       		.uleb128 0x23
 3055 1336 01       		.byte	0x1
 3056 1337 51       		.byte	0x51
 3057 1338 05       		.byte	0x5
 3058 1339 03       		.byte	0x3
 3059 133a 38000000 		.4byte	.LC5
 3060 133e 23       		.uleb128 0x23
 3061 133f 01       		.byte	0x1
 3062 1340 50       		.byte	0x50
 3063 1341 02       		.byte	0x2
 3064 1342 74       		.byte	0x74
 3065 1343 00       		.sleb128 0
 3066 1344 00       		.byte	0
 3067 1345 22       		.uleb128 0x22
 3068 1346 34000000 		.4byte	.LVL20
 3069 134a 61140000 		.4byte	0x1461
 3070 134e 5A130000 		.4byte	0x135a
 3071 1352 23       		.uleb128 0x23
 3072 1353 01       		.byte	0x1
 3073 1354 50       		.byte	0x50
 3074 1355 03       		.byte	0x3
 3075 1356 0A       		.byte	0xa
 3076 1357 E803     		.2byte	0x3e8
 3077 1359 00       		.byte	0
 3078 135a 29       		.uleb128 0x29
 3079 135b 3E000000 		.4byte	.LVL21
 3080 135f 23       		.uleb128 0x23
 3081 1360 01       		.byte	0x1
 3082 1361 51       		.byte	0x51
 3083 1362 01       		.byte	0x1
 3084 1363 30       		.byte	0x30
 3085 1364 23       		.uleb128 0x23
 3086 1365 01       		.byte	0x1
 3087 1366 50       		.byte	0x50
 3088 1367 02       		.byte	0x2
 3089 1368 74       		.byte	0x74
 3090 1369 00       		.sleb128 0
 3091 136a 00       		.byte	0
 3092 136b 00       		.byte	0
 3093 136c 09       		.uleb128 0x9
 3094 136d 04       		.byte	0x4
 3095 136e EF060000 		.4byte	0x6ef
 3096 1372 09       		.uleb128 0x9
 3097 1373 04       		.byte	0x4
 3098 1374 02110000 		.4byte	0x1102
 3099 1378 2A       		.uleb128 0x2a
 3100 1379 BC020000 		.4byte	.LASF198
 3101 137d 01       		.byte	0x1
 3102 137e 0D       		.byte	0xd
 3103 137f FE0D0000 		.4byte	0xdfe
 3104 1383 05       		.byte	0x5
 3105 1384 03       		.byte	0x3
 3106 1385 00000000 		.4byte	txmsg
 3107 1389 2A       		.uleb128 0x2a
 3108 138a B7070000 		.4byte	.LASF199
 3109 138e 01       		.byte	0x1
 3110 138f 0F       		.byte	0xf
ARM GAS  C:\Users\DNIEL~1\AppData\Local\Temp\ccrV7HYC.s 			page 56


 3111 1390 EB100000 		.4byte	0x10eb
 3112 1394 05       		.byte	0x5
 3113 1395 03       		.byte	0x3
 3114 1396 00000000 		.4byte	pwmcfg
 3115 139a 14       		.uleb128 0x14
 3116 139b B4020000 		.4byte	0x2b4
 3117 139f AA130000 		.4byte	0x13aa
 3118 13a3 15       		.uleb128 0x15
 3119 13a4 75030000 		.4byte	0x375
 3120 13a8 35       		.byte	0x35
 3121 13a9 00       		.byte	0
 3122 13aa 2A       		.uleb128 0x2a
 3123 13ab F8060000 		.4byte	.LASF200
 3124 13af 01       		.byte	0x1
 3125 13b0 1F       		.byte	0x1f
 3126 13b1 9A130000 		.4byte	0x139a
 3127 13b5 05       		.byte	0x5
 3128 13b6 03       		.byte	0x3
 3129 13b7 00000000 		.4byte	light_blink_wa
 3130 13bb 2B       		.uleb128 0x2b
 3131 13bc 69646F00 		.ascii	"ido\000"
 3132 13c0 01       		.byte	0x1
 3133 13c1 37       		.byte	0x37
 3134 13c2 86000000 		.4byte	0x86
 3135 13c6 05       		.byte	0x5
 3136 13c7 03       		.byte	0x3
 3137 13c8 00000000 		.4byte	ido
 3138 13cc 2C       		.uleb128 0x2c
 3139 13cd 5B040000 		.4byte	.LASF201
 3140 13d1 08       		.byte	0x8
 3141 13d2 D1       		.byte	0xd1
 3142 13d3 43040000 		.4byte	0x443
 3143 13d7 01       		.byte	0x1
 3144 13d8 01       		.byte	0x1
 3145 13d9 2C       		.uleb128 0x2c
 3146 13da 30060000 		.4byte	.LASF202
 3147 13de 09       		.byte	0x9
 3148 13df 68       		.byte	0x68
 3149 13e0 AB040000 		.4byte	0x4ab
 3150 13e4 01       		.byte	0x1
 3151 13e5 01       		.byte	0x1
 3152 13e6 2D       		.uleb128 0x2d
 3153 13e7 F6030000 		.4byte	.LASF203
 3154 13eb 15       		.byte	0x15
 3155 13ec 9806     		.2byte	0x698
 3156 13ee 2F070000 		.4byte	0x72f
 3157 13f2 01       		.byte	0x1
 3158 13f3 01       		.byte	0x1
 3159 13f4 2D       		.uleb128 0x2d
 3160 13f5 12060000 		.4byte	.LASF204
 3161 13f9 12       		.byte	0x12
 3162 13fa 2901     		.2byte	0x129
 3163 13fc 6F0F0000 		.4byte	0xf6f
 3164 1400 01       		.byte	0x1
 3165 1401 01       		.byte	0x1
 3166 1402 2D       		.uleb128 0x2d
 3167 1403 65070000 		.4byte	.LASF205
ARM GAS  C:\Users\DNIEL~1\AppData\Local\Temp\ccrV7HYC.s 			page 57


 3168 1407 14       		.byte	0x14
 3169 1408 9301     		.2byte	0x193
 3170 140a A70F0000 		.4byte	0xfa7
 3171 140e 01       		.byte	0x1
 3172 140f 01       		.byte	0x1
 3173 1410 2E       		.uleb128 0x2e
 3174 1411 01       		.byte	0x1
 3175 1412 3E060000 		.4byte	.LASF210
 3176 1416 11       		.byte	0x11
 3177 1417 8A       		.byte	0x8a
 3178 1418 01       		.byte	0x1
 3179 1419 E8000000 		.4byte	0xe8
 3180 141d 01       		.byte	0x1
 3181 141e 32140000 		.4byte	0x1432
 3182 1422 0F       		.uleb128 0xf
 3183 1423 32140000 		.4byte	0x1432
 3184 1427 0F       		.uleb128 0xf
 3185 1428 38140000 		.4byte	0x1438
 3186 142c 0F       		.uleb128 0xf
 3187 142d 09010000 		.4byte	0x109
 3188 1431 00       		.byte	0
 3189 1432 09       		.uleb128 0x9
 3190 1433 04       		.byte	0x4
 3191 1434 6F0F0000 		.4byte	0xf6f
 3192 1438 09       		.uleb128 0x9
 3193 1439 04       		.byte	0x4
 3194 143a 3E140000 		.4byte	0x143e
 3195 143e 12       		.uleb128 0x12
 3196 143f FE0D0000 		.4byte	0xdfe
 3197 1443 2F       		.uleb128 0x2f
 3198 1444 01       		.byte	0x1
 3199 1445 73040000 		.4byte	.LASF206
 3200 1449 13       		.byte	0x13
 3201 144a E4       		.byte	0xe4
 3202 144b 01       		.byte	0x1
 3203 144c 01       		.byte	0x1
 3204 144d 61140000 		.4byte	0x1461
 3205 1451 0F       		.uleb128 0xf
 3206 1452 28100000 		.4byte	0x1028
 3207 1456 0F       		.uleb128 0xf
 3208 1457 3A100000 		.4byte	0x103a
 3209 145b 0F       		.uleb128 0xf
 3210 145c 46100000 		.4byte	0x1046
 3211 1460 00       		.byte	0
 3212 1461 30       		.uleb128 0x30
 3213 1462 01       		.byte	0x1
 3214 1463 04030000 		.4byte	.LASF207
 3215 1467 06       		.byte	0x6
 3216 1468 6901     		.2byte	0x169
 3217 146a 01       		.byte	0x1
 3218 146b 01       		.byte	0x1
 3219 146c 76140000 		.4byte	0x1476
 3220 1470 0F       		.uleb128 0xf
 3221 1471 09010000 		.4byte	0x109
 3222 1475 00       		.byte	0
 3223 1476 2F       		.uleb128 0x2f
 3224 1477 01       		.byte	0x1
ARM GAS  C:\Users\DNIEL~1\AppData\Local\Temp\ccrV7HYC.s 			page 58


 3225 1478 3B030000 		.4byte	.LASF208
 3226 147c 13       		.byte	0x13
 3227 147d E7       		.byte	0xe7
 3228 147e 01       		.byte	0x1
 3229 147f 01       		.byte	0x1
 3230 1480 8F140000 		.4byte	0x148f
 3231 1484 0F       		.uleb128 0xf
 3232 1485 28100000 		.4byte	0x1028
 3233 1489 0F       		.uleb128 0xf
 3234 148a 3A100000 		.4byte	0x103a
 3235 148e 00       		.byte	0
 3236 148f 2F       		.uleb128 0x2f
 3237 1490 01       		.byte	0x1
 3238 1491 ED030000 		.4byte	.LASF209
 3239 1495 13       		.byte	0x13
 3240 1496 E1       		.byte	0xe1
 3241 1497 01       		.byte	0x1
 3242 1498 01       		.byte	0x1
 3243 1499 A8140000 		.4byte	0x14a8
 3244 149d 0F       		.uleb128 0xf
 3245 149e 28100000 		.4byte	0x1028
 3246 14a2 0F       		.uleb128 0xf
 3247 14a3 F7100000 		.4byte	0x10f7
 3248 14a7 00       		.byte	0
 3249 14a8 31       		.uleb128 0x31
 3250 14a9 01       		.byte	0x1
 3251 14aa D4030000 		.4byte	.LASF211
 3252 14ae 06       		.byte	0x6
 3253 14af 6401     		.2byte	0x164
 3254 14b1 01       		.byte	0x1
 3255 14b2 74020000 		.4byte	0x274
 3256 14b6 01       		.byte	0x1
 3257 14b7 D5140000 		.4byte	0x14d5
 3258 14bb 0F       		.uleb128 0xf
 3259 14bc B2020000 		.4byte	0x2b2
 3260 14c0 0F       		.uleb128 0xf
 3261 14c1 30000000 		.4byte	0x30
 3262 14c5 0F       		.uleb128 0xf
 3263 14c6 DD000000 		.4byte	0xdd
 3264 14ca 0F       		.uleb128 0xf
 3265 14cb FB050000 		.4byte	0x5fb
 3266 14cf 0F       		.uleb128 0xf
 3267 14d0 B2020000 		.4byte	0x2b2
 3268 14d4 00       		.byte	0
 3269 14d5 32       		.uleb128 0x32
 3270 14d6 01       		.byte	0x1
 3271 14d7 FB020000 		.4byte	.LASF216
 3272 14db 16       		.byte	0x16
 3273 14dc 2A       		.byte	0x2a
 3274 14dd 01       		.byte	0x1
 3275 14de 01       		.byte	0x1
 3276 14df 0F       		.uleb128 0xf
 3277 14e0 6C130000 		.4byte	0x136c
 3278 14e4 0F       		.uleb128 0xf
 3279 14e5 E3050000 		.4byte	0x5e3
 3280 14e9 33       		.uleb128 0x33
 3281 14ea 00       		.byte	0
ARM GAS  C:\Users\DNIEL~1\AppData\Local\Temp\ccrV7HYC.s 			page 59


 3282 14eb 00       		.byte	0
 3283              		.section	.debug_abbrev,"",%progbits
 3284              	.Ldebug_abbrev0:
 3285 0000 01       		.uleb128 0x1
 3286 0001 11       		.uleb128 0x11
 3287 0002 01       		.byte	0x1
 3288 0003 25       		.uleb128 0x25
 3289 0004 0E       		.uleb128 0xe
 3290 0005 13       		.uleb128 0x13
 3291 0006 0B       		.uleb128 0xb
 3292 0007 03       		.uleb128 0x3
 3293 0008 0E       		.uleb128 0xe
 3294 0009 1B       		.uleb128 0x1b
 3295 000a 0E       		.uleb128 0xe
 3296 000b 55       		.uleb128 0x55
 3297 000c 06       		.uleb128 0x6
 3298 000d 11       		.uleb128 0x11
 3299 000e 01       		.uleb128 0x1
 3300 000f 52       		.uleb128 0x52
 3301 0010 01       		.uleb128 0x1
 3302 0011 10       		.uleb128 0x10
 3303 0012 06       		.uleb128 0x6
 3304 0013 00       		.byte	0
 3305 0014 00       		.byte	0
 3306 0015 02       		.uleb128 0x2
 3307 0016 24       		.uleb128 0x24
 3308 0017 00       		.byte	0
 3309 0018 0B       		.uleb128 0xb
 3310 0019 0B       		.uleb128 0xb
 3311 001a 3E       		.uleb128 0x3e
 3312 001b 0B       		.uleb128 0xb
 3313 001c 03       		.uleb128 0x3
 3314 001d 08       		.uleb128 0x8
 3315 001e 00       		.byte	0
 3316 001f 00       		.byte	0
 3317 0020 03       		.uleb128 0x3
 3318 0021 16       		.uleb128 0x16
 3319 0022 00       		.byte	0
 3320 0023 03       		.uleb128 0x3
 3321 0024 0E       		.uleb128 0xe
 3322 0025 3A       		.uleb128 0x3a
 3323 0026 0B       		.uleb128 0xb
 3324 0027 3B       		.uleb128 0x3b
 3325 0028 0B       		.uleb128 0xb
 3326 0029 49       		.uleb128 0x49
 3327 002a 13       		.uleb128 0x13
 3328 002b 00       		.byte	0
 3329 002c 00       		.byte	0
 3330 002d 04       		.uleb128 0x4
 3331 002e 24       		.uleb128 0x24
 3332 002f 00       		.byte	0
 3333 0030 0B       		.uleb128 0xb
 3334 0031 0B       		.uleb128 0xb
 3335 0032 3E       		.uleb128 0x3e
 3336 0033 0B       		.uleb128 0xb
 3337 0034 03       		.uleb128 0x3
 3338 0035 0E       		.uleb128 0xe
ARM GAS  C:\Users\DNIEL~1\AppData\Local\Temp\ccrV7HYC.s 			page 60


 3339 0036 00       		.byte	0
 3340 0037 00       		.byte	0
 3341 0038 05       		.uleb128 0x5
 3342 0039 13       		.uleb128 0x13
 3343 003a 01       		.byte	0x1
 3344 003b 03       		.uleb128 0x3
 3345 003c 0E       		.uleb128 0xe
 3346 003d 0B       		.uleb128 0xb
 3347 003e 0B       		.uleb128 0xb
 3348 003f 3A       		.uleb128 0x3a
 3349 0040 0B       		.uleb128 0xb
 3350 0041 3B       		.uleb128 0x3b
 3351 0042 0B       		.uleb128 0xb
 3352 0043 01       		.uleb128 0x1
 3353 0044 13       		.uleb128 0x13
 3354 0045 00       		.byte	0
 3355 0046 00       		.byte	0
 3356 0047 06       		.uleb128 0x6
 3357 0048 0D       		.uleb128 0xd
 3358 0049 00       		.byte	0
 3359 004a 03       		.uleb128 0x3
 3360 004b 0E       		.uleb128 0xe
 3361 004c 3A       		.uleb128 0x3a
 3362 004d 0B       		.uleb128 0xb
 3363 004e 3B       		.uleb128 0x3b
 3364 004f 0B       		.uleb128 0xb
 3365 0050 49       		.uleb128 0x49
 3366 0051 13       		.uleb128 0x13
 3367 0052 38       		.uleb128 0x38
 3368 0053 0A       		.uleb128 0xa
 3369 0054 00       		.byte	0
 3370 0055 00       		.byte	0
 3371 0056 07       		.uleb128 0x7
 3372 0057 0D       		.uleb128 0xd
 3373 0058 00       		.byte	0
 3374 0059 03       		.uleb128 0x3
 3375 005a 08       		.uleb128 0x8
 3376 005b 3A       		.uleb128 0x3a
 3377 005c 0B       		.uleb128 0xb
 3378 005d 3B       		.uleb128 0x3b
 3379 005e 0B       		.uleb128 0xb
 3380 005f 49       		.uleb128 0x49
 3381 0060 13       		.uleb128 0x13
 3382 0061 38       		.uleb128 0x38
 3383 0062 0A       		.uleb128 0xa
 3384 0063 00       		.byte	0
 3385 0064 00       		.byte	0
 3386 0065 08       		.uleb128 0x8
 3387 0066 13       		.uleb128 0x13
 3388 0067 01       		.byte	0x1
 3389 0068 0B       		.uleb128 0xb
 3390 0069 0B       		.uleb128 0xb
 3391 006a 3A       		.uleb128 0x3a
 3392 006b 0B       		.uleb128 0xb
 3393 006c 3B       		.uleb128 0x3b
 3394 006d 0B       		.uleb128 0xb
 3395 006e 01       		.uleb128 0x1
ARM GAS  C:\Users\DNIEL~1\AppData\Local\Temp\ccrV7HYC.s 			page 61


 3396 006f 13       		.uleb128 0x13
 3397 0070 00       		.byte	0
 3398 0071 00       		.byte	0
 3399 0072 09       		.uleb128 0x9
 3400 0073 0F       		.uleb128 0xf
 3401 0074 00       		.byte	0
 3402 0075 0B       		.uleb128 0xb
 3403 0076 0B       		.uleb128 0xb
 3404 0077 49       		.uleb128 0x49
 3405 0078 13       		.uleb128 0x13
 3406 0079 00       		.byte	0
 3407 007a 00       		.byte	0
 3408 007b 0A       		.uleb128 0xa
 3409 007c 0F       		.uleb128 0xf
 3410 007d 00       		.byte	0
 3411 007e 0B       		.uleb128 0xb
 3412 007f 0B       		.uleb128 0xb
 3413 0080 00       		.byte	0
 3414 0081 00       		.byte	0
 3415 0082 0B       		.uleb128 0xb
 3416 0083 13       		.uleb128 0x13
 3417 0084 01       		.byte	0x1
 3418 0085 03       		.uleb128 0x3
 3419 0086 0E       		.uleb128 0xe
 3420 0087 0B       		.uleb128 0xb
 3421 0088 0B       		.uleb128 0xb
 3422 0089 3A       		.uleb128 0x3a
 3423 008a 0B       		.uleb128 0xb
 3424 008b 3B       		.uleb128 0x3b
 3425 008c 05       		.uleb128 0x5
 3426 008d 01       		.uleb128 0x1
 3427 008e 13       		.uleb128 0x13
 3428 008f 00       		.byte	0
 3429 0090 00       		.byte	0
 3430 0091 0C       		.uleb128 0xc
 3431 0092 0D       		.uleb128 0xd
 3432 0093 00       		.byte	0
 3433 0094 03       		.uleb128 0x3
 3434 0095 08       		.uleb128 0x8
 3435 0096 3A       		.uleb128 0x3a
 3436 0097 0B       		.uleb128 0xb
 3437 0098 3B       		.uleb128 0x3b
 3438 0099 05       		.uleb128 0x5
 3439 009a 49       		.uleb128 0x49
 3440 009b 13       		.uleb128 0x13
 3441 009c 38       		.uleb128 0x38
 3442 009d 0A       		.uleb128 0xa
 3443 009e 00       		.byte	0
 3444 009f 00       		.byte	0
 3445 00a0 0D       		.uleb128 0xd
 3446 00a1 35       		.uleb128 0x35
 3447 00a2 00       		.byte	0
 3448 00a3 49       		.uleb128 0x49
 3449 00a4 13       		.uleb128 0x13
 3450 00a5 00       		.byte	0
 3451 00a6 00       		.byte	0
 3452 00a7 0E       		.uleb128 0xe
ARM GAS  C:\Users\DNIEL~1\AppData\Local\Temp\ccrV7HYC.s 			page 62


 3453 00a8 15       		.uleb128 0x15
 3454 00a9 01       		.byte	0x1
 3455 00aa 27       		.uleb128 0x27
 3456 00ab 0C       		.uleb128 0xc
 3457 00ac 01       		.uleb128 0x1
 3458 00ad 13       		.uleb128 0x13
 3459 00ae 00       		.byte	0
 3460 00af 00       		.byte	0
 3461 00b0 0F       		.uleb128 0xf
 3462 00b1 05       		.uleb128 0x5
 3463 00b2 00       		.byte	0
 3464 00b3 49       		.uleb128 0x49
 3465 00b4 13       		.uleb128 0x13
 3466 00b5 00       		.byte	0
 3467 00b6 00       		.byte	0
 3468 00b7 10       		.uleb128 0x10
 3469 00b8 17       		.uleb128 0x17
 3470 00b9 01       		.byte	0x1
 3471 00ba 0B       		.uleb128 0xb
 3472 00bb 0B       		.uleb128 0xb
 3473 00bc 3A       		.uleb128 0x3a
 3474 00bd 0B       		.uleb128 0xb
 3475 00be 3B       		.uleb128 0x3b
 3476 00bf 0B       		.uleb128 0xb
 3477 00c0 01       		.uleb128 0x1
 3478 00c1 13       		.uleb128 0x13
 3479 00c2 00       		.byte	0
 3480 00c3 00       		.byte	0
 3481 00c4 11       		.uleb128 0x11
 3482 00c5 0D       		.uleb128 0xd
 3483 00c6 00       		.byte	0
 3484 00c7 03       		.uleb128 0x3
 3485 00c8 0E       		.uleb128 0xe
 3486 00c9 3A       		.uleb128 0x3a
 3487 00ca 0B       		.uleb128 0xb
 3488 00cb 3B       		.uleb128 0x3b
 3489 00cc 0B       		.uleb128 0xb
 3490 00cd 49       		.uleb128 0x49
 3491 00ce 13       		.uleb128 0x13
 3492 00cf 00       		.byte	0
 3493 00d0 00       		.byte	0
 3494 00d1 12       		.uleb128 0x12
 3495 00d2 26       		.uleb128 0x26
 3496 00d3 00       		.byte	0
 3497 00d4 49       		.uleb128 0x49
 3498 00d5 13       		.uleb128 0x13
 3499 00d6 00       		.byte	0
 3500 00d7 00       		.byte	0
 3501 00d8 13       		.uleb128 0x13
 3502 00d9 15       		.uleb128 0x15
 3503 00da 01       		.byte	0x1
 3504 00db 27       		.uleb128 0x27
 3505 00dc 0C       		.uleb128 0xc
 3506 00dd 49       		.uleb128 0x49
 3507 00de 13       		.uleb128 0x13
 3508 00df 01       		.uleb128 0x1
 3509 00e0 13       		.uleb128 0x13
ARM GAS  C:\Users\DNIEL~1\AppData\Local\Temp\ccrV7HYC.s 			page 63


 3510 00e1 00       		.byte	0
 3511 00e2 00       		.byte	0
 3512 00e3 14       		.uleb128 0x14
 3513 00e4 01       		.uleb128 0x1
 3514 00e5 01       		.byte	0x1
 3515 00e6 49       		.uleb128 0x49
 3516 00e7 13       		.uleb128 0x13
 3517 00e8 01       		.uleb128 0x1
 3518 00e9 13       		.uleb128 0x13
 3519 00ea 00       		.byte	0
 3520 00eb 00       		.byte	0
 3521 00ec 15       		.uleb128 0x15
 3522 00ed 21       		.uleb128 0x21
 3523 00ee 00       		.byte	0
 3524 00ef 49       		.uleb128 0x49
 3525 00f0 13       		.uleb128 0x13
 3526 00f1 2F       		.uleb128 0x2f
 3527 00f2 0B       		.uleb128 0xb
 3528 00f3 00       		.byte	0
 3529 00f4 00       		.byte	0
 3530 00f5 16       		.uleb128 0x16
 3531 00f6 13       		.uleb128 0x13
 3532 00f7 01       		.byte	0x1
 3533 00f8 0B       		.uleb128 0xb
 3534 00f9 0B       		.uleb128 0xb
 3535 00fa 3A       		.uleb128 0x3a
 3536 00fb 0B       		.uleb128 0xb
 3537 00fc 3B       		.uleb128 0x3b
 3538 00fd 05       		.uleb128 0x5
 3539 00fe 01       		.uleb128 0x1
 3540 00ff 13       		.uleb128 0x13
 3541 0100 00       		.byte	0
 3542 0101 00       		.byte	0
 3543 0102 17       		.uleb128 0x17
 3544 0103 0D       		.uleb128 0xd
 3545 0104 00       		.byte	0
 3546 0105 03       		.uleb128 0x3
 3547 0106 0E       		.uleb128 0xe
 3548 0107 3A       		.uleb128 0x3a
 3549 0108 0B       		.uleb128 0xb
 3550 0109 3B       		.uleb128 0x3b
 3551 010a 05       		.uleb128 0x5
 3552 010b 49       		.uleb128 0x49
 3553 010c 13       		.uleb128 0x13
 3554 010d 38       		.uleb128 0x38
 3555 010e 0A       		.uleb128 0xa
 3556 010f 00       		.byte	0
 3557 0110 00       		.byte	0
 3558 0111 18       		.uleb128 0x18
 3559 0112 16       		.uleb128 0x16
 3560 0113 00       		.byte	0
 3561 0114 03       		.uleb128 0x3
 3562 0115 0E       		.uleb128 0xe
 3563 0116 3A       		.uleb128 0x3a
 3564 0117 0B       		.uleb128 0xb
 3565 0118 3B       		.uleb128 0x3b
 3566 0119 05       		.uleb128 0x5
ARM GAS  C:\Users\DNIEL~1\AppData\Local\Temp\ccrV7HYC.s 			page 64


 3567 011a 49       		.uleb128 0x49
 3568 011b 13       		.uleb128 0x13
 3569 011c 00       		.byte	0
 3570 011d 00       		.byte	0
 3571 011e 19       		.uleb128 0x19
 3572 011f 13       		.uleb128 0x13
 3573 0120 01       		.byte	0x1
 3574 0121 0B       		.uleb128 0xb
 3575 0122 05       		.uleb128 0x5
 3576 0123 3A       		.uleb128 0x3a
 3577 0124 0B       		.uleb128 0xb
 3578 0125 3B       		.uleb128 0x3b
 3579 0126 05       		.uleb128 0x5
 3580 0127 01       		.uleb128 0x1
 3581 0128 13       		.uleb128 0x13
 3582 0129 00       		.byte	0
 3583 012a 00       		.byte	0
 3584 012b 1A       		.uleb128 0x1a
 3585 012c 04       		.uleb128 0x4
 3586 012d 01       		.byte	0x1
 3587 012e 0B       		.uleb128 0xb
 3588 012f 0B       		.uleb128 0xb
 3589 0130 3A       		.uleb128 0x3a
 3590 0131 0B       		.uleb128 0xb
 3591 0132 3B       		.uleb128 0x3b
 3592 0133 0B       		.uleb128 0xb
 3593 0134 01       		.uleb128 0x1
 3594 0135 13       		.uleb128 0x13
 3595 0136 00       		.byte	0
 3596 0137 00       		.byte	0
 3597 0138 1B       		.uleb128 0x1b
 3598 0139 28       		.uleb128 0x28
 3599 013a 00       		.byte	0
 3600 013b 03       		.uleb128 0x3
 3601 013c 0E       		.uleb128 0xe
 3602 013d 1C       		.uleb128 0x1c
 3603 013e 0D       		.uleb128 0xd
 3604 013f 00       		.byte	0
 3605 0140 00       		.byte	0
 3606 0141 1C       		.uleb128 0x1c
 3607 0142 0D       		.uleb128 0xd
 3608 0143 00       		.byte	0
 3609 0144 03       		.uleb128 0x3
 3610 0145 08       		.uleb128 0x8
 3611 0146 3A       		.uleb128 0x3a
 3612 0147 0B       		.uleb128 0xb
 3613 0148 3B       		.uleb128 0x3b
 3614 0149 0B       		.uleb128 0xb
 3615 014a 49       		.uleb128 0x49
 3616 014b 13       		.uleb128 0x13
 3617 014c 0B       		.uleb128 0xb
 3618 014d 0B       		.uleb128 0xb
 3619 014e 0D       		.uleb128 0xd
 3620 014f 0B       		.uleb128 0xb
 3621 0150 0C       		.uleb128 0xc
 3622 0151 0B       		.uleb128 0xb
 3623 0152 38       		.uleb128 0x38
ARM GAS  C:\Users\DNIEL~1\AppData\Local\Temp\ccrV7HYC.s 			page 65


 3624 0153 0A       		.uleb128 0xa
 3625 0154 00       		.byte	0
 3626 0155 00       		.byte	0
 3627 0156 1D       		.uleb128 0x1d
 3628 0157 0D       		.uleb128 0xd
 3629 0158 00       		.byte	0
 3630 0159 49       		.uleb128 0x49
 3631 015a 13       		.uleb128 0x13
 3632 015b 00       		.byte	0
 3633 015c 00       		.byte	0
 3634 015d 1E       		.uleb128 0x1e
 3635 015e 0D       		.uleb128 0xd
 3636 015f 00       		.byte	0
 3637 0160 49       		.uleb128 0x49
 3638 0161 13       		.uleb128 0x13
 3639 0162 38       		.uleb128 0x38
 3640 0163 0A       		.uleb128 0xa
 3641 0164 00       		.byte	0
 3642 0165 00       		.byte	0
 3643 0166 1F       		.uleb128 0x1f
 3644 0167 0D       		.uleb128 0xd
 3645 0168 00       		.byte	0
 3646 0169 03       		.uleb128 0x3
 3647 016a 0E       		.uleb128 0xe
 3648 016b 3A       		.uleb128 0x3a
 3649 016c 0B       		.uleb128 0xb
 3650 016d 3B       		.uleb128 0x3b
 3651 016e 0B       		.uleb128 0xb
 3652 016f 49       		.uleb128 0x49
 3653 0170 13       		.uleb128 0x13
 3654 0171 0B       		.uleb128 0xb
 3655 0172 0B       		.uleb128 0xb
 3656 0173 0D       		.uleb128 0xd
 3657 0174 0B       		.uleb128 0xb
 3658 0175 0C       		.uleb128 0xc
 3659 0176 0B       		.uleb128 0xb
 3660 0177 38       		.uleb128 0x38
 3661 0178 0A       		.uleb128 0xa
 3662 0179 00       		.byte	0
 3663 017a 00       		.byte	0
 3664 017b 20       		.uleb128 0x20
 3665 017c 2E       		.uleb128 0x2e
 3666 017d 01       		.byte	0x1
 3667 017e 03       		.uleb128 0x3
 3668 017f 0E       		.uleb128 0xe
 3669 0180 3A       		.uleb128 0x3a
 3670 0181 0B       		.uleb128 0xb
 3671 0182 3B       		.uleb128 0x3b
 3672 0183 0B       		.uleb128 0xb
 3673 0184 27       		.uleb128 0x27
 3674 0185 0C       		.uleb128 0xc
 3675 0186 49       		.uleb128 0x49
 3676 0187 13       		.uleb128 0x13
 3677 0188 11       		.uleb128 0x11
 3678 0189 01       		.uleb128 0x1
 3679 018a 12       		.uleb128 0x12
 3680 018b 01       		.uleb128 0x1
ARM GAS  C:\Users\DNIEL~1\AppData\Local\Temp\ccrV7HYC.s 			page 66


 3681 018c 40       		.uleb128 0x40
 3682 018d 06       		.uleb128 0x6
 3683 018e 9742     		.uleb128 0x2117
 3684 0190 0C       		.uleb128 0xc
 3685 0191 01       		.uleb128 0x1
 3686 0192 13       		.uleb128 0x13
 3687 0193 00       		.byte	0
 3688 0194 00       		.byte	0
 3689 0195 21       		.uleb128 0x21
 3690 0196 05       		.uleb128 0x5
 3691 0197 00       		.byte	0
 3692 0198 03       		.uleb128 0x3
 3693 0199 08       		.uleb128 0x8
 3694 019a 3A       		.uleb128 0x3a
 3695 019b 0B       		.uleb128 0xb
 3696 019c 3B       		.uleb128 0x3b
 3697 019d 0B       		.uleb128 0xb
 3698 019e 49       		.uleb128 0x49
 3699 019f 13       		.uleb128 0x13
 3700 01a0 02       		.uleb128 0x2
 3701 01a1 06       		.uleb128 0x6
 3702 01a2 00       		.byte	0
 3703 01a3 00       		.byte	0
 3704 01a4 22       		.uleb128 0x22
 3705 01a5 898201   		.uleb128 0x4109
 3706 01a8 01       		.byte	0x1
 3707 01a9 11       		.uleb128 0x11
 3708 01aa 01       		.uleb128 0x1
 3709 01ab 31       		.uleb128 0x31
 3710 01ac 13       		.uleb128 0x13
 3711 01ad 01       		.uleb128 0x1
 3712 01ae 13       		.uleb128 0x13
 3713 01af 00       		.byte	0
 3714 01b0 00       		.byte	0
 3715 01b1 23       		.uleb128 0x23
 3716 01b2 8A8201   		.uleb128 0x410a
 3717 01b5 00       		.byte	0
 3718 01b6 02       		.uleb128 0x2
 3719 01b7 0A       		.uleb128 0xa
 3720 01b8 9142     		.uleb128 0x2111
 3721 01ba 0A       		.uleb128 0xa
 3722 01bb 00       		.byte	0
 3723 01bc 00       		.byte	0
 3724 01bd 24       		.uleb128 0x24
 3725 01be 898201   		.uleb128 0x4109
 3726 01c1 01       		.byte	0x1
 3727 01c2 11       		.uleb128 0x11
 3728 01c3 01       		.uleb128 0x1
 3729 01c4 31       		.uleb128 0x31
 3730 01c5 13       		.uleb128 0x13
 3731 01c6 00       		.byte	0
 3732 01c7 00       		.byte	0
 3733 01c8 25       		.uleb128 0x25
 3734 01c9 2E       		.uleb128 0x2e
 3735 01ca 01       		.byte	0x1
 3736 01cb 3F       		.uleb128 0x3f
 3737 01cc 0C       		.uleb128 0xc
ARM GAS  C:\Users\DNIEL~1\AppData\Local\Temp\ccrV7HYC.s 			page 67


 3738 01cd 03       		.uleb128 0x3
 3739 01ce 0E       		.uleb128 0xe
 3740 01cf 3A       		.uleb128 0x3a
 3741 01d0 0B       		.uleb128 0xb
 3742 01d1 3B       		.uleb128 0x3b
 3743 01d2 0B       		.uleb128 0xb
 3744 01d3 27       		.uleb128 0x27
 3745 01d4 0C       		.uleb128 0xc
 3746 01d5 11       		.uleb128 0x11
 3747 01d6 01       		.uleb128 0x1
 3748 01d7 12       		.uleb128 0x12
 3749 01d8 01       		.uleb128 0x1
 3750 01d9 40       		.uleb128 0x40
 3751 01da 06       		.uleb128 0x6
 3752 01db 9742     		.uleb128 0x2117
 3753 01dd 0C       		.uleb128 0xc
 3754 01de 01       		.uleb128 0x1
 3755 01df 13       		.uleb128 0x13
 3756 01e0 00       		.byte	0
 3757 01e1 00       		.byte	0
 3758 01e2 26       		.uleb128 0x26
 3759 01e3 898201   		.uleb128 0x4109
 3760 01e6 01       		.byte	0x1
 3761 01e7 11       		.uleb128 0x11
 3762 01e8 01       		.uleb128 0x1
 3763 01e9 9542     		.uleb128 0x2115
 3764 01eb 0C       		.uleb128 0xc
 3765 01ec 31       		.uleb128 0x31
 3766 01ed 13       		.uleb128 0x13
 3767 01ee 00       		.byte	0
 3768 01ef 00       		.byte	0
 3769 01f0 27       		.uleb128 0x27
 3770 01f1 05       		.uleb128 0x5
 3771 01f2 00       		.byte	0
 3772 01f3 03       		.uleb128 0x3
 3773 01f4 0E       		.uleb128 0xe
 3774 01f5 3A       		.uleb128 0x3a
 3775 01f6 0B       		.uleb128 0xb
 3776 01f7 3B       		.uleb128 0x3b
 3777 01f8 0B       		.uleb128 0xb
 3778 01f9 49       		.uleb128 0x49
 3779 01fa 13       		.uleb128 0x13
 3780 01fb 02       		.uleb128 0x2
 3781 01fc 06       		.uleb128 0x6
 3782 01fd 00       		.byte	0
 3783 01fe 00       		.byte	0
 3784 01ff 28       		.uleb128 0x28
 3785 0200 898201   		.uleb128 0x4109
 3786 0203 00       		.byte	0
 3787 0204 11       		.uleb128 0x11
 3788 0205 01       		.uleb128 0x1
 3789 0206 31       		.uleb128 0x31
 3790 0207 13       		.uleb128 0x13
 3791 0208 00       		.byte	0
 3792 0209 00       		.byte	0
 3793 020a 29       		.uleb128 0x29
 3794 020b 898201   		.uleb128 0x4109
ARM GAS  C:\Users\DNIEL~1\AppData\Local\Temp\ccrV7HYC.s 			page 68


 3795 020e 01       		.byte	0x1
 3796 020f 11       		.uleb128 0x11
 3797 0210 01       		.uleb128 0x1
 3798 0211 00       		.byte	0
 3799 0212 00       		.byte	0
 3800 0213 2A       		.uleb128 0x2a
 3801 0214 34       		.uleb128 0x34
 3802 0215 00       		.byte	0
 3803 0216 03       		.uleb128 0x3
 3804 0217 0E       		.uleb128 0xe
 3805 0218 3A       		.uleb128 0x3a
 3806 0219 0B       		.uleb128 0xb
 3807 021a 3B       		.uleb128 0x3b
 3808 021b 0B       		.uleb128 0xb
 3809 021c 49       		.uleb128 0x49
 3810 021d 13       		.uleb128 0x13
 3811 021e 02       		.uleb128 0x2
 3812 021f 0A       		.uleb128 0xa
 3813 0220 00       		.byte	0
 3814 0221 00       		.byte	0
 3815 0222 2B       		.uleb128 0x2b
 3816 0223 34       		.uleb128 0x34
 3817 0224 00       		.byte	0
 3818 0225 03       		.uleb128 0x3
 3819 0226 08       		.uleb128 0x8
 3820 0227 3A       		.uleb128 0x3a
 3821 0228 0B       		.uleb128 0xb
 3822 0229 3B       		.uleb128 0x3b
 3823 022a 0B       		.uleb128 0xb
 3824 022b 49       		.uleb128 0x49
 3825 022c 13       		.uleb128 0x13
 3826 022d 02       		.uleb128 0x2
 3827 022e 0A       		.uleb128 0xa
 3828 022f 00       		.byte	0
 3829 0230 00       		.byte	0
 3830 0231 2C       		.uleb128 0x2c
 3831 0232 34       		.uleb128 0x34
 3832 0233 00       		.byte	0
 3833 0234 03       		.uleb128 0x3
 3834 0235 0E       		.uleb128 0xe
 3835 0236 3A       		.uleb128 0x3a
 3836 0237 0B       		.uleb128 0xb
 3837 0238 3B       		.uleb128 0x3b
 3838 0239 0B       		.uleb128 0xb
 3839 023a 49       		.uleb128 0x49
 3840 023b 13       		.uleb128 0x13
 3841 023c 3F       		.uleb128 0x3f
 3842 023d 0C       		.uleb128 0xc
 3843 023e 3C       		.uleb128 0x3c
 3844 023f 0C       		.uleb128 0xc
 3845 0240 00       		.byte	0
 3846 0241 00       		.byte	0
 3847 0242 2D       		.uleb128 0x2d
 3848 0243 34       		.uleb128 0x34
 3849 0244 00       		.byte	0
 3850 0245 03       		.uleb128 0x3
 3851 0246 0E       		.uleb128 0xe
ARM GAS  C:\Users\DNIEL~1\AppData\Local\Temp\ccrV7HYC.s 			page 69


 3852 0247 3A       		.uleb128 0x3a
 3853 0248 0B       		.uleb128 0xb
 3854 0249 3B       		.uleb128 0x3b
 3855 024a 05       		.uleb128 0x5
 3856 024b 49       		.uleb128 0x49
 3857 024c 13       		.uleb128 0x13
 3858 024d 3F       		.uleb128 0x3f
 3859 024e 0C       		.uleb128 0xc
 3860 024f 3C       		.uleb128 0x3c
 3861 0250 0C       		.uleb128 0xc
 3862 0251 00       		.byte	0
 3863 0252 00       		.byte	0
 3864 0253 2E       		.uleb128 0x2e
 3865 0254 2E       		.uleb128 0x2e
 3866 0255 01       		.byte	0x1
 3867 0256 3F       		.uleb128 0x3f
 3868 0257 0C       		.uleb128 0xc
 3869 0258 03       		.uleb128 0x3
 3870 0259 0E       		.uleb128 0xe
 3871 025a 3A       		.uleb128 0x3a
 3872 025b 0B       		.uleb128 0xb
 3873 025c 3B       		.uleb128 0x3b
 3874 025d 0B       		.uleb128 0xb
 3875 025e 27       		.uleb128 0x27
 3876 025f 0C       		.uleb128 0xc
 3877 0260 49       		.uleb128 0x49
 3878 0261 13       		.uleb128 0x13
 3879 0262 3C       		.uleb128 0x3c
 3880 0263 0C       		.uleb128 0xc
 3881 0264 01       		.uleb128 0x1
 3882 0265 13       		.uleb128 0x13
 3883 0266 00       		.byte	0
 3884 0267 00       		.byte	0
 3885 0268 2F       		.uleb128 0x2f
 3886 0269 2E       		.uleb128 0x2e
 3887 026a 01       		.byte	0x1
 3888 026b 3F       		.uleb128 0x3f
 3889 026c 0C       		.uleb128 0xc
 3890 026d 03       		.uleb128 0x3
 3891 026e 0E       		.uleb128 0xe
 3892 026f 3A       		.uleb128 0x3a
 3893 0270 0B       		.uleb128 0xb
 3894 0271 3B       		.uleb128 0x3b
 3895 0272 0B       		.uleb128 0xb
 3896 0273 27       		.uleb128 0x27
 3897 0274 0C       		.uleb128 0xc
 3898 0275 3C       		.uleb128 0x3c
 3899 0276 0C       		.uleb128 0xc
 3900 0277 01       		.uleb128 0x1
 3901 0278 13       		.uleb128 0x13
 3902 0279 00       		.byte	0
 3903 027a 00       		.byte	0
 3904 027b 30       		.uleb128 0x30
 3905 027c 2E       		.uleb128 0x2e
 3906 027d 01       		.byte	0x1
 3907 027e 3F       		.uleb128 0x3f
 3908 027f 0C       		.uleb128 0xc
ARM GAS  C:\Users\DNIEL~1\AppData\Local\Temp\ccrV7HYC.s 			page 70


 3909 0280 03       		.uleb128 0x3
 3910 0281 0E       		.uleb128 0xe
 3911 0282 3A       		.uleb128 0x3a
 3912 0283 0B       		.uleb128 0xb
 3913 0284 3B       		.uleb128 0x3b
 3914 0285 05       		.uleb128 0x5
 3915 0286 27       		.uleb128 0x27
 3916 0287 0C       		.uleb128 0xc
 3917 0288 3C       		.uleb128 0x3c
 3918 0289 0C       		.uleb128 0xc
 3919 028a 01       		.uleb128 0x1
 3920 028b 13       		.uleb128 0x13
 3921 028c 00       		.byte	0
 3922 028d 00       		.byte	0
 3923 028e 31       		.uleb128 0x31
 3924 028f 2E       		.uleb128 0x2e
 3925 0290 01       		.byte	0x1
 3926 0291 3F       		.uleb128 0x3f
 3927 0292 0C       		.uleb128 0xc
 3928 0293 03       		.uleb128 0x3
 3929 0294 0E       		.uleb128 0xe
 3930 0295 3A       		.uleb128 0x3a
 3931 0296 0B       		.uleb128 0xb
 3932 0297 3B       		.uleb128 0x3b
 3933 0298 05       		.uleb128 0x5
 3934 0299 27       		.uleb128 0x27
 3935 029a 0C       		.uleb128 0xc
 3936 029b 49       		.uleb128 0x49
 3937 029c 13       		.uleb128 0x13
 3938 029d 3C       		.uleb128 0x3c
 3939 029e 0C       		.uleb128 0xc
 3940 029f 01       		.uleb128 0x1
 3941 02a0 13       		.uleb128 0x13
 3942 02a1 00       		.byte	0
 3943 02a2 00       		.byte	0
 3944 02a3 32       		.uleb128 0x32
 3945 02a4 2E       		.uleb128 0x2e
 3946 02a5 01       		.byte	0x1
 3947 02a6 3F       		.uleb128 0x3f
 3948 02a7 0C       		.uleb128 0xc
 3949 02a8 03       		.uleb128 0x3
 3950 02a9 0E       		.uleb128 0xe
 3951 02aa 3A       		.uleb128 0x3a
 3952 02ab 0B       		.uleb128 0xb
 3953 02ac 3B       		.uleb128 0x3b
 3954 02ad 0B       		.uleb128 0xb
 3955 02ae 27       		.uleb128 0x27
 3956 02af 0C       		.uleb128 0xc
 3957 02b0 3C       		.uleb128 0x3c
 3958 02b1 0C       		.uleb128 0xc
 3959 02b2 00       		.byte	0
 3960 02b3 00       		.byte	0
 3961 02b4 33       		.uleb128 0x33
 3962 02b5 18       		.uleb128 0x18
 3963 02b6 00       		.byte	0
 3964 02b7 00       		.byte	0
 3965 02b8 00       		.byte	0
ARM GAS  C:\Users\DNIEL~1\AppData\Local\Temp\ccrV7HYC.s 			page 71


 3966 02b9 00       		.byte	0
 3967              		.section	.debug_loc,"",%progbits
 3968              	.Ldebug_loc0:
 3969              	.LLST0:
 3970 0000 00000000 		.4byte	.LFB118
 3971 0004 02000000 		.4byte	.LCFI0
 3972 0008 0200     		.2byte	0x2
 3973 000a 7D       		.byte	0x7d
 3974 000b 00       		.sleb128 0
 3975 000c 02000000 		.4byte	.LCFI0
 3976 0010 B4000000 		.4byte	.LFE118
 3977 0014 0200     		.2byte	0x2
 3978 0016 7D       		.byte	0x7d
 3979 0017 18       		.sleb128 24
 3980 0018 00000000 		.4byte	0
 3981 001c 00000000 		.4byte	0
 3982              	.LLST1:
 3983 0020 00000000 		.4byte	.LVL0
 3984 0024 10000000 		.4byte	.LVL1
 3985 0028 0100     		.2byte	0x1
 3986 002a 50       		.byte	0x50
 3987 002b 10000000 		.4byte	.LVL1
 3988 002f B4000000 		.4byte	.LFE118
 3989 0033 0400     		.2byte	0x4
 3990 0035 F3       		.byte	0xf3
 3991 0036 01       		.uleb128 0x1
 3992 0037 50       		.byte	0x50
 3993 0038 9F       		.byte	0x9f
 3994 0039 00000000 		.4byte	0
 3995 003d 00000000 		.4byte	0
 3996              	.LLST2:
 3997 0041 00000000 		.4byte	.LFB119
 3998 0045 02000000 		.4byte	.LCFI1
 3999 0049 0200     		.2byte	0x2
 4000 004b 7D       		.byte	0x7d
 4001 004c 00       		.sleb128 0
 4002 004d 02000000 		.4byte	.LCFI1
 4003 0051 0C000000 		.4byte	.LCFI2
 4004 0055 0200     		.2byte	0x2
 4005 0057 7D       		.byte	0x7d
 4006 0058 04       		.sleb128 4
 4007 0059 0C000000 		.4byte	.LCFI2
 4008 005d 3A000000 		.4byte	.LFE119
 4009 0061 0200     		.2byte	0x2
 4010 0063 7D       		.byte	0x7d
 4011 0064 10       		.sleb128 16
 4012 0065 00000000 		.4byte	0
 4013 0069 00000000 		.4byte	0
 4014              	.LLST3:
 4015 006d 00000000 		.4byte	.LFB120
 4016 0071 02000000 		.4byte	.LCFI3
 4017 0075 0200     		.2byte	0x2
 4018 0077 7D       		.byte	0x7d
 4019 0078 00       		.sleb128 0
 4020 0079 02000000 		.4byte	.LCFI3
 4021 007d 84000000 		.4byte	.LFE120
 4022 0081 0200     		.2byte	0x2
ARM GAS  C:\Users\DNIEL~1\AppData\Local\Temp\ccrV7HYC.s 			page 72


 4023 0083 7D       		.byte	0x7d
 4024 0084 10       		.sleb128 16
 4025 0085 00000000 		.4byte	0
 4026 0089 00000000 		.4byte	0
 4027              	.LLST4:
 4028 008d 00000000 		.4byte	.LFB121
 4029 0091 02000000 		.4byte	.LCFI4
 4030 0095 0200     		.2byte	0x2
 4031 0097 7D       		.byte	0x7d
 4032 0098 00       		.sleb128 0
 4033 0099 02000000 		.4byte	.LCFI4
 4034 009d 64000000 		.4byte	.LFE121
 4035 00a1 0200     		.2byte	0x2
 4036 00a3 7D       		.byte	0x7d
 4037 00a4 10       		.sleb128 16
 4038 00a5 00000000 		.4byte	0
 4039 00a9 00000000 		.4byte	0
 4040              	.LLST5:
 4041 00ad 00000000 		.4byte	.LVL12
 4042 00b1 0B000000 		.4byte	.LVL14-1
 4043 00b5 0100     		.2byte	0x1
 4044 00b7 50       		.byte	0x50
 4045 00b8 0B000000 		.4byte	.LVL14-1
 4046 00bc 16000000 		.4byte	.LVL16
 4047 00c0 0100     		.2byte	0x1
 4048 00c2 54       		.byte	0x54
 4049 00c3 16000000 		.4byte	.LVL16
 4050 00c7 19000000 		.4byte	.LVL17-1
 4051 00cb 0100     		.2byte	0x1
 4052 00cd 50       		.byte	0x50
 4053 00ce 19000000 		.4byte	.LVL17-1
 4054 00d2 4A000000 		.4byte	.LVL22
 4055 00d6 0100     		.2byte	0x1
 4056 00d8 54       		.byte	0x54
 4057 00d9 4A000000 		.4byte	.LVL22
 4058 00dd 64000000 		.4byte	.LFE121
 4059 00e1 0100     		.2byte	0x1
 4060 00e3 50       		.byte	0x50
 4061 00e4 00000000 		.4byte	0
 4062 00e8 00000000 		.4byte	0
 4063              	.LLST6:
 4064 00ec 00000000 		.4byte	.LVL12
 4065 00f0 04000000 		.4byte	.LVL13
 4066 00f4 0100     		.2byte	0x1
 4067 00f6 51       		.byte	0x51
 4068 00f7 04000000 		.4byte	.LVL13
 4069 00fb 64000000 		.4byte	.LFE121
 4070 00ff 0400     		.2byte	0x4
 4071 0101 F3       		.byte	0xf3
 4072 0102 01       		.uleb128 0x1
 4073 0103 51       		.byte	0x51
 4074 0104 9F       		.byte	0x9f
 4075 0105 00000000 		.4byte	0
 4076 0109 00000000 		.4byte	0
 4077              	.LLST7:
 4078 010d 00000000 		.4byte	.LVL12
 4079 0111 0B000000 		.4byte	.LVL14-1
ARM GAS  C:\Users\DNIEL~1\AppData\Local\Temp\ccrV7HYC.s 			page 73


 4080 0115 0100     		.2byte	0x1
 4081 0117 52       		.byte	0x52
 4082 0118 0B000000 		.4byte	.LVL14-1
 4083 011c 64000000 		.4byte	.LFE121
 4084 0120 0400     		.2byte	0x4
 4085 0122 F3       		.byte	0xf3
 4086 0123 01       		.uleb128 0x1
 4087 0124 52       		.byte	0x52
 4088 0125 9F       		.byte	0x9f
 4089 0126 00000000 		.4byte	0
 4090 012a 00000000 		.4byte	0
 4091              		.section	.debug_aranges,"",%progbits
 4092 0000 34000000 		.4byte	0x34
 4093 0004 0200     		.2byte	0x2
 4094 0006 00000000 		.4byte	.Ldebug_info0
 4095 000a 04       		.byte	0x4
 4096 000b 00       		.byte	0
 4097 000c 0000     		.2byte	0
 4098 000e 0000     		.2byte	0
 4099 0010 00000000 		.4byte	.LFB118
 4100 0014 B4000000 		.4byte	.LFE118-.LFB118
 4101 0018 00000000 		.4byte	.LFB119
 4102 001c 3A000000 		.4byte	.LFE119-.LFB119
 4103 0020 00000000 		.4byte	.LFB120
 4104 0024 84000000 		.4byte	.LFE120-.LFB120
 4105 0028 00000000 		.4byte	.LFB121
 4106 002c 64000000 		.4byte	.LFE121-.LFB121
 4107 0030 00000000 		.4byte	0
 4108 0034 00000000 		.4byte	0
 4109              		.section	.debug_ranges,"",%progbits
 4110              	.Ldebug_ranges0:
 4111 0000 00000000 		.4byte	.LFB118
 4112 0004 B4000000 		.4byte	.LFE118
 4113 0008 00000000 		.4byte	.LFB119
 4114 000c 3A000000 		.4byte	.LFE119
 4115 0010 00000000 		.4byte	.LFB120
 4116 0014 84000000 		.4byte	.LFE120
 4117 0018 00000000 		.4byte	.LFB121
 4118 001c 64000000 		.4byte	.LFE121
 4119 0020 00000000 		.4byte	0
 4120 0024 00000000 		.4byte	0
 4121              		.section	.debug_line,"",%progbits
 4122              	.Ldebug_line0:
 4123 0000 B7030000 		.section	.debug_str,"MS",%progbits,1
 4123      02001A03 
 4123      00000201 
 4123      FB0E0D00 
 4123      01010101 
 4124              	.LASF2:
 4125 0000 73697A65 		.ascii	"size_t\000"
 4125      5F7400
 4126              	.LASF51:
 4127 0007 73697A65 		.ascii	"sizetype\000"
 4127      74797065 
 4127      00
 4128              	.LASF23:
 4129 0010 73797374 		.ascii	"systime_t\000"
ARM GAS  C:\Users\DNIEL~1\AppData\Local\Temp\ccrV7HYC.s 			page 74


 4129      696D655F 
 4129      7400
 4130              	.LASF153:
 4131 001a 64617461 		.ascii	"data16\000"
 4131      313600
 4132              	.LASF29:
 4133 0021 705F6374 		.ascii	"p_ctx\000"
 4133      7800
 4134              	.LASF19:
 4135 0027 74707269 		.ascii	"tprio_t\000"
 4135      6F5F7400 
 4136              	.LASF39:
 4137 002f 705F6D73 		.ascii	"p_msgqueue\000"
 4137      67717565 
 4137      756500
 4138              	.LASF63:
 4139 003a 725F6374 		.ascii	"r_ctx\000"
 4139      7800
 4140              	.LASF8:
 4141 0040 696E7433 		.ascii	"int32_t\000"
 4141      325F7400 
 4142              	.LASF143:
 4143 0048 77726974 		.ascii	"writet\000"
 4143      657400
 4144              	.LASF52:
 4145 004f 76746675 		.ascii	"vtfunc_t\000"
 4145      6E635F74 
 4145      00
 4146              	.LASF94:
 4147 0058 54444852 		.ascii	"TDHR\000"
 4147      00
 4148              	.LASF171:
 4149 005d 736C6565 		.ascii	"sleep_event\000"
 4149      705F6576 
 4149      656E7400 
 4150              	.LASF194:
 4151 0069 6C696768 		.ascii	"lightCalc\000"
 4151      7443616C 
 4151      6300
 4152              	.LASF89:
 4153 0073 77726974 		.ascii	"write\000"
 4153      6500
 4154              	.LASF91:
 4155 0079 42617365 		.ascii	"BaseSequentialStream\000"
 4155      53657175 
 4155      656E7469 
 4155      616C5374 
 4155      7265616D 
 4156              	.LASF172:
 4157 008e 77616B65 		.ascii	"wakeup_event\000"
 4157      75705F65 
 4157      76656E74 
 4157      00
 4158              	.LASF79:
 4159 009b 656C5F66 		.ascii	"el_flags\000"
 4159      6C616773 
 4159      00
ARM GAS  C:\Users\DNIEL~1\AppData\Local\Temp\ccrV7HYC.s 			page 75


 4160              	.LASF165:
 4161 00a4 636F6E66 		.ascii	"config\000"
 4161      696700
 4162              	.LASF164:
 4163 00ab 73746174 		.ascii	"state\000"
 4163      6500
 4164              	.LASF155:
 4165 00b1 43414E54 		.ascii	"CANTxFrame\000"
 4165      78467261 
 4165      6D6500
 4166              	.LASF166:
 4167 00bc 74787365 		.ascii	"txsem\000"
 4167      6D00
 4168              	.LASF141:
 4169 00c2 70757474 		.ascii	"putt\000"
 4169      00
 4170              	.LASF186:
 4171 00c7 50574D43 		.ascii	"PWMChannelConfig\000"
 4171      68616E6E 
 4171      656C436F 
 4171      6E666967 
 4171      00
 4172              	.LASF136:
 4173 00d8 444D4152 		.ascii	"DMAR\000"
 4173      00
 4174              	.LASF174:
 4175 00dd 50574D5F 		.ascii	"PWM_UNINIT\000"
 4175      554E494E 
 4175      495400
 4176              	.LASF185:
 4177 00e8 63616C6C 		.ascii	"callback\000"
 4177      6261636B 
 4177      00
 4178              	.LASF150:
 4179 00f1 43414E5F 		.ascii	"CAN_SLEEP\000"
 4179      534C4545 
 4179      5000
 4180              	.LASF214:
 4181 00fb 433A5C55 		.ascii	"C:\\Users\\D\341niel\\git\\Smarty\\Smarty_v7\\smart"
 4181      73657273 
 4181      5C44E16E 
 4181      69656C5C 
 4181      6769745C 
 4182 0125 795C6669 		.ascii	"y\\firmware\000"
 4182      726D7761 
 4182      726500
 4183              	.LASF73:
 4184 0130 6D5F6F77 		.ascii	"m_owner\000"
 4184      6E657200 
 4185              	.LASF58:
 4186 0138 76745F70 		.ascii	"vt_par\000"
 4186      617200
 4187              	.LASF83:
 4188 013f 65786974 		.ascii	"exitcode\000"
 4188      636F6465 
 4188      00
 4189              	.LASF85:
ARM GAS  C:\Users\DNIEL~1\AppData\Local\Temp\ccrV7HYC.s 			page 76


 4190 0148 65776D61 		.ascii	"ewmask\000"
 4190      736B00
 4191              	.LASF173:
 4192 014f 43414E44 		.ascii	"CANDriver\000"
 4192      72697665 
 4192      7200
 4193              	.LASF144:
 4194 0159 72656164 		.ascii	"readt\000"
 4194      7400
 4195              	.LASF162:
 4196 015f 66696C74 		.ascii	"filters\000"
 4196      65727300 
 4197              	.LASF30:
 4198 0167 705F6E65 		.ascii	"p_newer\000"
 4198      77657200 
 4199              	.LASF9:
 4200 016f 6C6F6E67 		.ascii	"long int\000"
 4200      20696E74 
 4200      00
 4201              	.LASF26:
 4202 0178 705F6E65 		.ascii	"p_next\000"
 4202      787400
 4203              	.LASF27:
 4204 017f 705F7072 		.ascii	"p_prev\000"
 4204      657600
 4205              	.LASF113:
 4206 0186 46413152 		.ascii	"FA1R\000"
 4206      00
 4207              	.LASF16:
 4208 018b 74737461 		.ascii	"tstate_t\000"
 4208      74655F74 
 4208      00
 4209              	.LASF215:
 4210 0194 6C696768 		.ascii	"light_blink\000"
 4210      745F626C 
 4210      696E6B00 
 4211              	.LASF42:
 4212 01a0 705F6D74 		.ascii	"p_mtxlist\000"
 4212      786C6973 
 4212      7400
 4213              	.LASF47:
 4214 01aa 72656761 		.ascii	"regarm_t\000"
 4214      726D5F74 
 4214      00
 4215              	.LASF183:
 4216 01b3 70776D63 		.ascii	"pwmchannel_t\000"
 4216      68616E6E 
 4216      656C5F74 
 4216      00
 4217              	.LASF101:
 4218 01c0 52463052 		.ascii	"RF0R\000"
 4218      00
 4219              	.LASF1:
 4220 01c5 7369676E 		.ascii	"signed char\000"
 4220      65642063 
 4220      68617200 
 4221              	.LASF36:
ARM GAS  C:\Users\DNIEL~1\AppData\Local\Temp\ccrV7HYC.s 			page 77


 4222 01d1 705F7072 		.ascii	"p_preempt\000"
 4222      65656D70 
 4222      7400
 4223              	.LASF3:
 4224 01db 75696E74 		.ascii	"uint8_t\000"
 4224      385F7400 
 4225              	.LASF21:
 4226 01e3 6576656E 		.ascii	"eventmask_t\000"
 4226      746D6173 
 4226      6B5F7400 
 4227              	.LASF100:
 4228 01ef 43414E5F 		.ascii	"CAN_FilterRegister_TypeDef\000"
 4228      46696C74 
 4228      65725265 
 4228      67697374 
 4228      65725F54 
 4229              	.LASF50:
 4230 020a 636F6E74 		.ascii	"context\000"
 4230      65787400 
 4231              	.LASF168:
 4232 0212 72786675 		.ascii	"rxfull_event\000"
 4232      6C6C5F65 
 4232      76656E74 
 4232      00
 4233              	.LASF157:
 4234 021f 7363616C 		.ascii	"scale\000"
 4234      6500
 4235              	.LASF184:
 4236 0225 70776D63 		.ascii	"pwmcnt_t\000"
 4236      6E745F74 
 4236      00
 4237              	.LASF103:
 4238 022e 52455345 		.ascii	"RESERVED0\000"
 4238      52564544 
 4238      3000
 4239              	.LASF106:
 4240 0238 52455345 		.ascii	"RESERVED1\000"
 4240      52564544 
 4240      3100
 4241              	.LASF4:
 4242 0242 756E7369 		.ascii	"unsigned char\000"
 4242      676E6564 
 4242      20636861 
 4242      7200
 4243              	.LASF110:
 4244 0250 52455345 		.ascii	"RESERVED3\000"
 4244      52564544 
 4244      3300
 4245              	.LASF112:
 4246 025a 52455345 		.ascii	"RESERVED4\000"
 4246      52564544 
 4246      3400
 4247              	.LASF114:
 4248 0264 52455345 		.ascii	"RESERVED5\000"
 4248      52564544 
 4248      3500
 4249              	.LASF55:
ARM GAS  C:\Users\DNIEL~1\AppData\Local\Temp\ccrV7HYC.s 			page 78


 4250 026e 76745F70 		.ascii	"vt_prev\000"
 4250      72657600 
 4251              	.LASF102:
 4252 0276 52463152 		.ascii	"RF1R\000"
 4252      00
 4253              	.LASF64:
 4254 027b 725F6E65 		.ascii	"r_newer\000"
 4254      77657200 
 4255              	.LASF108:
 4256 0283 52455345 		.ascii	"RESERVED2\000"
 4256      52564544 
 4256      3200
 4257              	.LASF125:
 4258 028d 43434D52 		.ascii	"CCMR1\000"
 4258      3100
 4259              	.LASF127:
 4260 0293 43434D52 		.ascii	"CCMR2\000"
 4260      3200
 4261              	.LASF86:
 4262 0299 63686172 		.ascii	"char\000"
 4262      00
 4263              	.LASF28:
 4264 029e 705F7072 		.ascii	"p_prio\000"
 4264      696F00
 4265              	.LASF84:
 4266 02a5 77746F62 		.ascii	"wtobjp\000"
 4266      6A7000
 4267              	.LASF142:
 4268 02ac 67657474 		.ascii	"gett\000"
 4268      00
 4269              	.LASF48:
 4270 02b1 73746B61 		.ascii	"stkalign_t\000"
 4270      6C69676E 
 4270      5F7400
 4271              	.LASF198:
 4272 02bc 74786D73 		.ascii	"txmsg\000"
 4272      6700
 4273              	.LASF159:
 4274 02c2 72656769 		.ascii	"register1\000"
 4274      73746572 
 4274      3100
 4275              	.LASF160:
 4276 02cc 72656769 		.ascii	"register2\000"
 4276      73746572 
 4276      3200
 4277              	.LASF151:
 4278 02d6 63616E73 		.ascii	"canstate_t\000"
 4278      74617465 
 4278      5F7400
 4279              	.LASF149:
 4280 02e1 43414E5F 		.ascii	"CAN_READY\000"
 4280      52454144 
 4280      5900
 4281              	.LASF182:
 4282 02eb 70776D6D 		.ascii	"pwmmode_t\000"
 4282      6F64655F 
 4282      7400
ARM GAS  C:\Users\DNIEL~1\AppData\Local\Temp\ccrV7HYC.s 			page 79


 4283              	.LASF24:
 4284 02f5 636E745F 		.ascii	"cnt_t\000"
 4284      7400
 4285              	.LASF216:
 4286 02fb 63687072 		.ascii	"chprintf\000"
 4286      696E7466 
 4286      00
 4287              	.LASF207:
 4288 0304 63685468 		.ascii	"chThdSleep\000"
 4288      64536C65 
 4288      657000
 4289              	.LASF213:
 4290 030f 7372632F 		.ascii	"src/light.c\000"
 4290      6C696768 
 4290      742E6300 
 4291              	.LASF57:
 4292 031b 76745F66 		.ascii	"vt_func\000"
 4292      756E6300 
 4293              	.LASF49:
 4294 0323 696E7463 		.ascii	"intctx\000"
 4294      747800
 4295              	.LASF41:
 4296 032a 705F6570 		.ascii	"p_epending\000"
 4296      656E6469 
 4296      6E6700
 4297              	.LASF167:
 4298 0335 72787365 		.ascii	"rxsem\000"
 4298      6D00
 4299              	.LASF208:
 4300 033b 70776D44 		.ascii	"pwmDisableChannel\000"
 4300      69736162 
 4300      6C654368 
 4300      616E6E65 
 4300      6C00
 4301              	.LASF81:
 4302 034d 65735F6E 		.ascii	"es_next\000"
 4302      65787400 
 4303              	.LASF80:
 4304 0355 4576656E 		.ascii	"EventSource\000"
 4304      74536F75 
 4304      72636500 
 4305              	.LASF11:
 4306 0361 6C6F6E67 		.ascii	"long unsigned int\000"
 4306      20756E73 
 4306      69676E65 
 4306      6420696E 
 4306      7400
 4307              	.LASF121:
 4308 0373 44494552 		.ascii	"DIER\000"
 4308      00
 4309              	.LASF76:
 4310 0378 656C5F6E 		.ascii	"el_next\000"
 4310      65787400 
 4311              	.LASF154:
 4312 0380 64617461 		.ascii	"data32\000"
 4312      333200
 4313              	.LASF139:
ARM GAS  C:\Users\DNIEL~1\AppData\Local\Temp\ccrV7HYC.s 			page 80


 4314 0387 73746D33 		.ascii	"stm32_tim_t\000"
 4314      325F7469 
 4314      6D5F7400 
 4315              	.LASF180:
 4316 0393 636C6F63 		.ascii	"clock\000"
 4316      6B00
 4317              	.LASF196:
 4318 0399 61726763 		.ascii	"argc\000"
 4318      00
 4319              	.LASF197:
 4320 039e 61726776 		.ascii	"argv\000"
 4320      00
 4321              	.LASF71:
 4322 03a3 4D757465 		.ascii	"Mutex\000"
 4322      7800
 4323              	.LASF12:
 4324 03a9 6C6F6E67 		.ascii	"long long int\000"
 4324      206C6F6E 
 4324      6720696E 
 4324      7400
 4325              	.LASF148:
 4326 03b7 43414E5F 		.ascii	"CAN_STARTING\000"
 4326      53544152 
 4326      54494E47 
 4326      00
 4327              	.LASF72:
 4328 03c4 6D5F7175 		.ascii	"m_queue\000"
 4328      65756500 
 4329              	.LASF54:
 4330 03cc 76745F6E 		.ascii	"vt_next\000"
 4330      65787400 
 4331              	.LASF211:
 4332 03d4 63685468 		.ascii	"chThdCreateStatic\000"
 4332      64437265 
 4332      61746553 
 4332      74617469 
 4332      6300
 4333              	.LASF190:
 4334 03e6 646F7562 		.ascii	"double\000"
 4334      6C6500
 4335              	.LASF209:
 4336 03ed 70776D53 		.ascii	"pwmStart\000"
 4336      74617274 
 4336      00
 4337              	.LASF203:
 4338 03f6 49544D5F 		.ascii	"ITM_RxBuffer\000"
 4338      52784275 
 4338      66666572 
 4338      00
 4339              	.LASF87:
 4340 0403 7466756E 		.ascii	"tfunc_t\000"
 4340      635F7400 
 4341              	.LASF187:
 4342 040b 66726571 		.ascii	"frequency\000"
 4342      75656E63 
 4342      7900
 4343              	.LASF191:
ARM GAS  C:\Users\DNIEL~1\AppData\Local\Temp\ccrV7HYC.s 			page 81


 4344 0415 666C6F61 		.ascii	"float\000"
 4344      7400
 4345              	.LASF146:
 4346 041b 43414E5F 		.ascii	"CAN_UNINIT\000"
 4346      554E494E 
 4346      495400
 4347              	.LASF38:
 4348 0426 705F7761 		.ascii	"p_waiting\000"
 4348      6974696E 
 4348      6700
 4349              	.LASF34:
 4350 0430 705F666C 		.ascii	"p_flags\000"
 4350      61677300 
 4351              	.LASF90:
 4352 0438 72656164 		.ascii	"read\000"
 4352      00
 4353              	.LASF0:
 4354 043d 756E7369 		.ascii	"unsigned int\000"
 4354      676E6564 
 4354      20696E74 
 4354      00
 4355              	.LASF44:
 4356 044a 705F6D70 		.ascii	"p_mpool\000"
 4356      6F6F6C00 
 4357              	.LASF188:
 4358 0452 6368616E 		.ascii	"channels\000"
 4358      6E656C73 
 4358      00
 4359              	.LASF201:
 4360 045b 76746C69 		.ascii	"vtlist\000"
 4360      737400
 4361              	.LASF35:
 4362 0462 705F7265 		.ascii	"p_refs\000"
 4362      667300
 4363              	.LASF107:
 4364 0469 464D3152 		.ascii	"FM1R\000"
 4364      00
 4365              	.LASF98:
 4366 046e 52444852 		.ascii	"RDHR\000"
 4366      00
 4367              	.LASF206:
 4368 0473 70776D45 		.ascii	"pwmEnableChannel\000"
 4368      6E61626C 
 4368      65436861 
 4368      6E6E656C 
 4368      00
 4369              	.LASF181:
 4370 0484 70776D63 		.ascii	"pwmcallback_t\000"
 4370      616C6C62 
 4370      61636B5F 
 4370      7400
 4371              	.LASF46:
 4372 0492 54687265 		.ascii	"ThreadsList\000"
 4372      6164734C 
 4372      69737400 
 4373              	.LASF178:
 4374 049e 50574D44 		.ascii	"PWMDriver\000"
ARM GAS  C:\Users\DNIEL~1\AppData\Local\Temp\ccrV7HYC.s 			page 82


 4374      72697665 
 4374      7200
 4375              	.LASF193:
 4376 04a8 6C696768 		.ascii	"lightInit\000"
 4376      74496E69 
 4376      7400
 4377              	.LASF22:
 4378 04b2 666C6167 		.ascii	"flagsmask_t\000"
 4378      736D6173 
 4378      6B5F7400 
 4379              	.LASF170:
 4380 04be 6572726F 		.ascii	"error_event\000"
 4380      725F6576 
 4380      656E7400 
 4381              	.LASF116:
 4382 04ca 43414E5F 		.ascii	"CAN_TypeDef\000"
 4382      54797065 
 4382      44656600 
 4383              	.LASF37:
 4384 04d6 705F7469 		.ascii	"p_time\000"
 4384      6D6500
 4385              	.LASF115:
 4386 04dd 7346696C 		.ascii	"sFilterRegister\000"
 4386      74657252 
 4386      65676973 
 4386      74657200 
 4387              	.LASF212:
 4388 04ed 474E5520 		.ascii	"GNU C 4.7.4 20140401 (release) [ARM/embedded-4_7-br"
 4388      4320342E 
 4388      372E3420 
 4388      32303134 
 4388      30343031 
 4389 0520 616E6368 		.ascii	"anch revision 209195]\000"
 4389      20726576 
 4389      6973696F 
 4389      6E203230 
 4389      39313935 
 4390              	.LASF68:
 4391 0536 53656D61 		.ascii	"Semaphore\000"
 4391      70686F72 
 4391      6500
 4392              	.LASF43:
 4393 0540 705F7265 		.ascii	"p_realprio\000"
 4393      616C7072 
 4393      696F00
 4394              	.LASF152:
 4395 054b 64617461 		.ascii	"data8\000"
 4395      3800
 4396              	.LASF70:
 4397 0551 735F636E 		.ascii	"s_cnt\000"
 4397      7400
 4398              	.LASF14:
 4399 0557 6C6F6E67 		.ascii	"long long unsigned int\000"
 4399      206C6F6E 
 4399      6720756E 
 4399      7369676E 
 4399      65642069 
ARM GAS  C:\Users\DNIEL~1\AppData\Local\Temp\ccrV7HYC.s 			page 83


 4400              	.LASF175:
 4401 056e 50574D5F 		.ascii	"PWM_STOP\000"
 4401      53544F50 
 4401      00
 4402              	.LASF31:
 4403 0577 705F6F6C 		.ascii	"p_older\000"
 4403      64657200 
 4404              	.LASF6:
 4405 057f 75696E74 		.ascii	"uint16_t\000"
 4405      31365F74 
 4405      00
 4406              	.LASF20:
 4407 0588 6D73675F 		.ascii	"msg_t\000"
 4407      7400
 4408              	.LASF129:
 4409 058e 43434552 		.ascii	"CCER\000"
 4409      00
 4410              	.LASF18:
 4411 0593 74736C69 		.ascii	"tslices_t\000"
 4411      6365735F 
 4411      7400
 4412              	.LASF97:
 4413 059d 52444C52 		.ascii	"RDLR\000"
 4413      00
 4414              	.LASF66:
 4415 05a2 725F6375 		.ascii	"r_current\000"
 4415      7272656E 
 4415      7400
 4416              	.LASF60:
 4417 05ac 56544C69 		.ascii	"VTList\000"
 4417      737400
 4418              	.LASF99:
 4419 05b3 43414E5F 		.ascii	"CAN_FIFOMailBox_TypeDef\000"
 4419      4649464F 
 4419      4D61696C 
 4419      426F785F 
 4419      54797065 
 4420              	.LASF132:
 4421 05cb 5F726573 		.ascii	"_resvd10\000"
 4421      76643130 
 4421      00
 4422              	.LASF134:
 4423 05d4 5F726573 		.ascii	"_resvd11\000"
 4423      76643131 
 4423      00
 4424              	.LASF93:
 4425 05dd 54444C52 		.ascii	"TDLR\000"
 4425      00
 4426              	.LASF137:
 4427 05e2 5F726573 		.ascii	"_resvd13\000"
 4427      76643133 
 4427      00
 4428              	.LASF138:
 4429 05eb 5F726573 		.ascii	"_resvd14\000"
 4429      76643134 
 4429      00
 4430              	.LASF163:
ARM GAS  C:\Users\DNIEL~1\AppData\Local\Temp\ccrV7HYC.s 			page 84


 4431 05f4 43414E43 		.ascii	"CANConfig\000"
 4431      6F6E6669 
 4431      6700
 4432              	.LASF119:
 4433 05fe 534D4352 		.ascii	"SMCR\000"
 4433      00
 4434              	.LASF179:
 4435 0603 70657269 		.ascii	"period\000"
 4435      6F6400
 4436              	.LASF61:
 4437 060a 725F7175 		.ascii	"r_queue\000"
 4437      65756500 
 4438              	.LASF204:
 4439 0612 43414E44 		.ascii	"CAND1\000"
 4439      3100
 4440              	.LASF88:
 4441 0618 42617365 		.ascii	"BaseSequentialStreamVMT\000"
 4441      53657175 
 4441      656E7469 
 4441      616C5374 
 4441      7265616D 
 4442              	.LASF202:
 4443 0630 726C6973 		.ascii	"rlist\000"
 4443      7400
 4444              	.LASF15:
 4445 0636 746D6F64 		.ascii	"tmode_t\000"
 4445      655F7400 
 4446              	.LASF210:
 4447 063e 63616E54 		.ascii	"canTransmit\000"
 4447      72616E73 
 4447      6D697400 
 4448              	.LASF59:
 4449 064a 76745F73 		.ascii	"vt_systime\000"
 4449      79737469 
 4449      6D6500
 4450              	.LASF109:
 4451 0655 46533152 		.ascii	"FS1R\000"
 4451      00
 4452              	.LASF169:
 4453 065a 7478656D 		.ascii	"txempty_event\000"
 4453      7074795F 
 4453      6576656E 
 4453      7400
 4454              	.LASF65:
 4455 0668 725F6F6C 		.ascii	"r_older\000"
 4455      64657200 
 4456              	.LASF69:
 4457 0670 735F7175 		.ascii	"s_queue\000"
 4457      65756500 
 4458              	.LASF176:
 4459 0678 50574D5F 		.ascii	"PWM_READY\000"
 4459      52454144 
 4459      5900
 4460              	.LASF95:
 4461 0682 43414E5F 		.ascii	"CAN_TxMailBox_TypeDef\000"
 4461      54784D61 
 4461      696C426F 
ARM GAS  C:\Users\DNIEL~1\AppData\Local\Temp\ccrV7HYC.s 			page 85


 4461      785F5479 
 4461      70654465 
 4462              	.LASF117:
 4463 0698 5F726573 		.ascii	"_resvd0\000"
 4463      76643000 
 4464              	.LASF118:
 4465 06a0 5F726573 		.ascii	"_resvd1\000"
 4465      76643100 
 4466              	.LASF120:
 4467 06a8 5F726573 		.ascii	"_resvd2\000"
 4467      76643200 
 4468              	.LASF122:
 4469 06b0 5F726573 		.ascii	"_resvd3\000"
 4469      76643300 
 4470              	.LASF123:
 4471 06b8 5F726573 		.ascii	"_resvd4\000"
 4471      76643400 
 4472              	.LASF124:
 4473 06c0 5F726573 		.ascii	"_resvd5\000"
 4473      76643500 
 4474              	.LASF5:
 4475 06c8 73686F72 		.ascii	"short int\000"
 4475      7420696E 
 4475      7400
 4476              	.LASF128:
 4477 06d2 5F726573 		.ascii	"_resvd7\000"
 4477      76643700 
 4478              	.LASF130:
 4479 06da 5F726573 		.ascii	"_resvd8\000"
 4479      76643800 
 4480              	.LASF131:
 4481 06e2 5F726573 		.ascii	"_resvd9\000"
 4481      76643900 
 4482              	.LASF13:
 4483 06ea 75696E74 		.ascii	"uint64_t\000"
 4483      36345F74 
 4483      00
 4484              	.LASF156:
 4485 06f3 6D6F6465 		.ascii	"mode\000"
 4485      00
 4486              	.LASF200:
 4487 06f8 6C696768 		.ascii	"light_blink_wa\000"
 4487      745F626C 
 4487      696E6B5F 
 4487      776100
 4488              	.LASF111:
 4489 0707 46464131 		.ascii	"FFA1R\000"
 4489      5200
 4490              	.LASF158:
 4491 070d 61737369 		.ascii	"assignment\000"
 4491      676E6D65 
 4491      6E7400
 4492              	.LASF62:
 4493 0718 725F7072 		.ascii	"r_prio\000"
 4493      696F00
 4494              	.LASF145:
 4495 071f 42617365 		.ascii	"BaseChannel\000"
ARM GAS  C:\Users\DNIEL~1\AppData\Local\Temp\ccrV7HYC.s 			page 86


 4495      4368616E 
 4495      6E656C00 
 4496              	.LASF135:
 4497 072b 5F726573 		.ascii	"_resvd12\000"
 4497      76643132 
 4497      00
 4498              	.LASF25:
 4499 0734 54687265 		.ascii	"Thread\000"
 4499      616400
 4500              	.LASF161:
 4501 073b 43414E46 		.ascii	"CANFilter\000"
 4501      696C7465 
 4501      7200
 4502              	.LASF189:
 4503 0745 50574D43 		.ascii	"PWMConfig\000"
 4503      6F6E6669 
 4503      6700
 4504              	.LASF17:
 4505 074f 74726566 		.ascii	"trefs_t\000"
 4505      735F7400 
 4506              	.LASF75:
 4507 0757 4576656E 		.ascii	"EventListener\000"
 4507      744C6973 
 4507      74656E65 
 4507      7200
 4508              	.LASF205:
 4509 0765 50574D44 		.ascii	"PWMD4\000"
 4509      3400
 4510              	.LASF192:
 4511 076b 6C6F6E67 		.ascii	"long double\000"
 4511      20646F75 
 4511      626C6500 
 4512              	.LASF105:
 4513 0777 73464946 		.ascii	"sFIFOMailBox\000"
 4513      4F4D6169 
 4513      6C426F78 
 4513      00
 4514              	.LASF177:
 4515 0784 70776D73 		.ascii	"pwmstate_t\000"
 4515      74617465 
 4515      5F7400
 4516              	.LASF133:
 4517 078f 42445452 		.ascii	"BDTR\000"
 4517      00
 4518              	.LASF10:
 4519 0794 75696E74 		.ascii	"uint32_t\000"
 4519      33325F74 
 4519      00
 4520              	.LASF53:
 4521 079d 56697274 		.ascii	"VirtualTimer\000"
 4521      75616C54 
 4521      696D6572 
 4521      00
 4522              	.LASF45:
 4523 07aa 54687265 		.ascii	"ThreadsQueue\000"
 4523      61647351 
 4523      75657565 
ARM GAS  C:\Users\DNIEL~1\AppData\Local\Temp\ccrV7HYC.s 			page 87


 4523      00
 4524              	.LASF199:
 4525 07b7 70776D63 		.ascii	"pwmcfg\000"
 4525      666700
 4526              	.LASF82:
 4527 07be 7264796D 		.ascii	"rdymsg\000"
 4527      736700
 4528              	.LASF7:
 4529 07c5 73686F72 		.ascii	"short unsigned int\000"
 4529      7420756E 
 4529      7369676E 
 4529      65642069 
 4529      6E7400
 4530              	.LASF126:
 4531 07d8 5F726573 		.ascii	"_resvd6\000"
 4531      76643600 
 4532              	.LASF104:
 4533 07e0 7354784D 		.ascii	"sTxMailBox\000"
 4533      61696C42 
 4533      6F7800
 4534              	.LASF140:
 4535 07eb 42617365 		.ascii	"BaseChannelVMT\000"
 4535      4368616E 
 4535      6E656C56 
 4535      4D5400
 4536              	.LASF78:
 4537 07fa 656C5F6D 		.ascii	"el_mask\000"
 4537      61736B00 
 4538              	.LASF67:
 4539 0802 52656164 		.ascii	"ReadyList\000"
 4539      794C6973 
 4539      7400
 4540              	.LASF147:
 4541 080c 43414E5F 		.ascii	"CAN_STOP\000"
 4541      53544F50 
 4541      00
 4542              	.LASF32:
 4543 0815 705F6E61 		.ascii	"p_name\000"
 4543      6D6500
 4544              	.LASF56:
 4545 081c 76745F74 		.ascii	"vt_time\000"
 4545      696D6500 
 4546              	.LASF74:
 4547 0824 6D5F6E65 		.ascii	"m_next\000"
 4547      787400
 4548              	.LASF96:
 4549 082b 52445452 		.ascii	"RDTR\000"
 4549      00
 4550              	.LASF195:
 4551 0830 636D645F 		.ascii	"cmd_lightvalues\000"
 4551      6C696768 
 4551      7476616C 
 4551      75657300 
 4552              	.LASF92:
 4553 0840 54445452 		.ascii	"TDTR\000"
 4553      00
 4554              	.LASF40:
ARM GAS  C:\Users\DNIEL~1\AppData\Local\Temp\ccrV7HYC.s 			page 88


 4555 0845 705F6D73 		.ascii	"p_msg\000"
 4555      6700
 4556              	.LASF77:
 4557 084b 656C5F6C 		.ascii	"el_listener\000"
 4557      69737465 
 4557      6E657200 
 4558              	.LASF33:
 4559 0857 705F7374 		.ascii	"p_state\000"
 4559      61746500 
 4560              		.ident	"GCC: (GNU Tools for ARM Embedded Processors) 4.7.4 20140401 (release) [ARM/embedded-4_7-br
ARM GAS  C:\Users\DNIEL~1\AppData\Local\Temp\ccrV7HYC.s 			page 89


DEFINED SYMBOLS
                            *ABS*:00000000 light.c
C:\Users\DNIEL~1\AppData\Local\Temp\ccrV7HYC.s:19     .text.light_blink:00000000 $t
C:\Users\DNIEL~1\AppData\Local\Temp\ccrV7HYC.s:24     .text.light_blink:00000000 light_blink
C:\Users\DNIEL~1\AppData\Local\Temp\ccrV7HYC.s:131    .text.light_blink:000000a0 $d
C:\Users\DNIEL~1\AppData\Local\Temp\ccrV7HYC.s:140    .text.lightInit:00000000 $t
C:\Users\DNIEL~1\AppData\Local\Temp\ccrV7HYC.s:146    .text.lightInit:00000000 lightInit
C:\Users\DNIEL~1\AppData\Local\Temp\ccrV7HYC.s:383    .data.pwmcfg:00000000 .LANCHOR1
C:\Users\DNIEL~1\AppData\Local\Temp\ccrV7HYC.s:376    .bss.light_blink_wa:00000000 .LANCHOR2
C:\Users\DNIEL~1\AppData\Local\Temp\ccrV7HYC.s:186    .text.lightCalc:00000000 $t
C:\Users\DNIEL~1\AppData\Local\Temp\ccrV7HYC.s:192    .text.lightCalc:00000000 lightCalc
C:\Users\DNIEL~1\AppData\Local\Temp\ccrV7HYC.s:362    .bss.ido:00000000 .LANCHOR3
C:\Users\DNIEL~1\AppData\Local\Temp\ccrV7HYC.s:270    .text.cmd_lightvalues:00000000 $t
C:\Users\DNIEL~1\AppData\Local\Temp\ccrV7HYC.s:276    .text.cmd_lightvalues:00000000 cmd_lightvalues
C:\Users\DNIEL~1\AppData\Local\Temp\ccrV7HYC.s:351    .text.cmd_lightvalues:0000004c $d
C:\Users\DNIEL~1\AppData\Local\Temp\ccrV7HYC.s:361    .bss.ido:00000000 $d
C:\Users\DNIEL~1\AppData\Local\Temp\ccrV7HYC.s:365    .bss.ido:00000000 ido
C:\Users\DNIEL~1\AppData\Local\Temp\ccrV7HYC.s:368    .bss.txmsg:00000000 $d
C:\Users\DNIEL~1\AppData\Local\Temp\ccrV7HYC.s:372    .bss.txmsg:00000000 txmsg
C:\Users\DNIEL~1\AppData\Local\Temp\ccrV7HYC.s:375    .bss.light_blink_wa:00000000 $d
C:\Users\DNIEL~1\AppData\Local\Temp\ccrV7HYC.s:379    .bss.light_blink_wa:00000000 light_blink_wa
C:\Users\DNIEL~1\AppData\Local\Temp\ccrV7HYC.s:382    .data.pwmcfg:00000000 $d
C:\Users\DNIEL~1\AppData\Local\Temp\ccrV7HYC.s:386    .data.pwmcfg:00000000 pwmcfg
C:\Users\DNIEL~1\AppData\Local\Temp\ccrV7HYC.s:402    .rodata.str1.4:00000000 $d
                     .debug_frame:00000010 $d
C:\Users\DNIEL~1\AppData\Local\Temp\ccrV7HYC.s:139    .text.light_blink:000000b4 $t
C:\Users\DNIEL~1\AppData\Local\Temp\ccrV7HYC.s:360    .text.cmd_lightvalues:00000064 $t

UNDEFINED SYMBOLS
canTransmit
pwmEnableChannel
chThdSleep
pwmDisableChannel
rlist
PWMD4
CAND1
pwmStart
chThdCreateStatic
vtlist
chprintf
