ARM GAS  C:\Users\DNIEL~1\AppData\Local\Temp\cciNsdV0.s 			page 1


   1              		.syntax unified
   2              		.cpu cortex-m4
   3              		.fpu softvfp
   4              		.eabi_attribute 20, 1
   5              		.eabi_attribute 21, 1
   6              		.eabi_attribute 23, 3
   7              		.eabi_attribute 24, 1
   8              		.eabi_attribute 25, 1
   9              		.eabi_attribute 26, 1
  10              		.eabi_attribute 30, 2
  11              		.eabi_attribute 34, 1
  12              		.eabi_attribute 18, 4
  13              		.thumb
  14              		.file	"serial_lld.c"
  15              		.text
  16              	.Ltext0:
  17              		.cfi_sections	.debug_frame
  18              		.section	.text.notify1,"ax",%progbits
  19              		.align	2
  20              		.p2align 4,,15
  21              		.thumb
  22              		.thumb_func
  23              		.type	notify1, %function
  24              	notify1:
  25              	.LFB122:
  26              		.file 1 "../../../ChibiOS/os/hal/platforms/STM32/serial_lld.c"
  27              		.loc 1 323 0
  28              		.cfi_startproc
  29              		@ args = 0, pretend = 0, frame = 0
  30              		@ frame_needed = 0, uses_anonymous_args = 0
  31              		@ link register save eliminated.
  32              	.LVL0:
  33              		.loc 1 326 0
  34 0000 4FF48053 		mov	r3, #4096
  35 0004 C4F20103 		movt	r3, 16385
  36 0008 9A89     		ldrh	r2, [r3, #12]
  37 000a 90B2     		uxth	r0, r2
  38              	.LVL1:
  39 000c 40F08001 		orr	r1, r0, #128
  40 0010 9981     		strh	r1, [r3, #12]	@ movhi
  41 0012 7047     		bx	lr
  42              		.cfi_endproc
  43              	.LFE122:
  44              		.size	notify1, .-notify1
  45 0014 AFF30080 		.section	.text.VectorD4,"ax",%progbits
  45      AFF30080 
  45      AFF30080 
  46              		.align	2
  47              		.p2align 4,,15
  48              		.global	VectorD4
  49              		.thumb
  50              		.thumb_func
  51              		.type	VectorD4, %function
  52              	VectorD4:
  53              	.LFB123:
  54              		.loc 1 383 0
  55              		.cfi_startproc
ARM GAS  C:\Users\DNIEL~1\AppData\Local\Temp\cciNsdV0.s 			page 2


  56              		@ args = 0, pretend = 0, frame = 0
  57              		@ frame_needed = 0, uses_anonymous_args = 0
  58              	.LVL2:
  59 0000 F8B5     		push	{r3, r4, r5, r6, r7, lr}
  60              	.LCFI0:
  61              		.cfi_def_cfa_offset 24
  62              		.cfi_offset 3, -24
  63              		.cfi_offset 4, -20
  64              		.cfi_offset 5, -16
  65              		.cfi_offset 6, -12
  66              		.cfi_offset 7, -8
  67              		.cfi_offset 14, -4
  68              	.LBB30:
  69              	.LBB31:
  70              		.loc 1 276 0
  71 0002 474B     		ldr	r3, .L48
  72 0004 5D6F     		ldr	r5, [r3, #116]
  73              	.LVL3:
  74              		.loc 1 277 0
  75 0006 AE89     		ldrh	r6, [r5, #12]
  76              		.loc 1 278 0
  77 0008 2C88     		ldrh	r4, [r5, #0]
  78              		.loc 1 279 0
  79 000a A988     		ldrh	r1, [r5, #4]
  80              		.loc 1 278 0
  81 000c A4B2     		uxth	r4, r4
  82              		.loc 1 282 0
  83 000e 2207     		lsls	r2, r4, #28
  84              		.loc 1 277 0
  85 0010 B6B2     		uxth	r6, r6
  86              	.LVL4:
  87              		.loc 1 279 0
  88 0012 8FB2     		uxth	r7, r1
  89              	.LVL5:
  90              		.loc 1 282 0
  91 0014 4BD1     		bne	.L43
  92              	.LVL6:
  93              	.L3:
  94              		.loc 1 285 0
  95 0016 04F48071 		and	r1, r4, #256
  96 001a 88B2     		uxth	r0, r1
  97 001c 0028     		cmp	r0, #0
  98 001e 34D1     		bne	.L44
  99              	.L8:
 100              		.loc 1 292 0
 101 0020 04F02002 		and	r2, r4, #32
 102 0024 93B2     		uxth	r3, r2
 103              	.LVL7:
 104 0026 002B     		cmp	r3, #0
 105 0028 24D1     		bne	.L45
 106              	.LVL8:
 107              	.L9:
 108              		.loc 1 298 0
 109 002a 06F08001 		and	r1, r6, #128
 110 002e 88B2     		uxth	r0, r1
 111 0030 20B1     		cbz	r0, .L10
 112 0032 04F08002 		and	r2, r4, #128
ARM GAS  C:\Users\DNIEL~1\AppData\Local\Temp\cciNsdV0.s 			page 3


 113 0036 93B2     		uxth	r3, r2
 114              	.LVL9:
 115 0038 002B     		cmp	r3, #0
 116 003a 59D1     		bne	.L46
 117              	.LVL10:
 118              	.L10:
 119              		.loc 1 311 0
 120 003c 04F04004 		and	r4, r4, #64
 121              	.LVL11:
 122 0040 A4B2     		uxth	r4, r4
 123 0042 9CB1     		cbz	r4, .L13
 124              	.LBB32:
 125              		.loc 1 312 0
 126 0044 2023     		movs	r3, #32
 127              	.LVL12:
 128              	@ 312 "../../../ChibiOS/os/hal/platforms/STM32/serial_lld.c" 1
 129 0046 83F31188 		msr     BASEPRI, r3
 130              	@ 0 "" 2
 131              	.LVL13:
 132              		.thumb
 133              	.LBE32:
 134              		.loc 1 313 0
 135 004a 3648     		ldr	r0, .L48+4
 136 004c 1021     		movs	r1, #16
 137 004e FFF7FEFF 		bl	chEvtBroadcastFlagsI
 138              	.LVL14:
 139              	.LBB33:
 140              		.loc 1 314 0
 141 0052 0023     		movs	r3, #0
 142              	.LVL15:
 143              	@ 314 "../../../ChibiOS/os/hal/platforms/STM32/serial_lld.c" 1
 144 0054 83F31188 		msr     BASEPRI, r3
 145              	@ 0 "" 2
 146              	.LVL16:
 147              		.thumb
 148              	.LBE33:
 149              		.loc 1 315 0
 150 0058 4FF6BF73 		movw	r3, #65471
 151              	.LVL17:
 152 005c 3340     		ands	r3, r3, r6
 153 005e AB81     		strh	r3, [r5, #12]	@ movhi
 154              		.loc 1 316 0
 155 0060 2988     		ldrh	r1, [r5, #0]
 156 0062 21F04000 		bic	r0, r1, #64
 157 0066 0204     		lsls	r2, r0, #16
 158 0068 130C     		lsrs	r3, r2, #16
 159 006a 2B80     		strh	r3, [r5, #0]	@ movhi
 160              	.LVL18:
 161              	.L13:
 162              	.LBE31:
 163              	.LBE30:
 164              		.loc 1 390 0
 165 006c BDE8F840 		pop	{r3, r4, r5, r6, r7, lr}
 166              		.loc 1 389 0
 167 0070 FFF7FEBF 		b	_port_irq_epilogue
 168              	.LVL19:
 169              	.L45:
ARM GAS  C:\Users\DNIEL~1\AppData\Local\Temp\cciNsdV0.s 			page 4


 170              	.LBB46:
 171              	.LBB45:
 172              	.LBB34:
 173              		.loc 1 293 0
 174 0074 2023     		movs	r3, #32
 175              	.LVL20:
 176              	@ 293 "../../../ChibiOS/os/hal/platforms/STM32/serial_lld.c" 1
 177 0076 83F31188 		msr     BASEPRI, r3
 178              	@ 0 "" 2
 179              	.LVL21:
 180              		.thumb
 181              	.LBE34:
 182              		.loc 1 294 0
 183 007a 2948     		ldr	r0, .L48
 184 007c F9B2     		uxtb	r1, r7
 185 007e FFF7FEFF 		bl	sdIncomingDataI
 186              	.LVL22:
 187              	.LBB35:
 188              		.loc 1 295 0
 189 0082 0023     		movs	r3, #0
 190              	@ 295 "../../../ChibiOS/os/hal/platforms/STM32/serial_lld.c" 1
 191 0084 83F31188 		msr     BASEPRI, r3
 192              	@ 0 "" 2
 193              	.LVL23:
 194              		.thumb
 195 0088 CFE7     		b	.L9
 196              	.LVL24:
 197              	.L44:
 198              	.LBE35:
 199              	.LBB36:
 200              		.loc 1 286 0
 201 008a 2023     		movs	r3, #32
 202              	.LVL25:
 203              	@ 286 "../../../ChibiOS/os/hal/platforms/STM32/serial_lld.c" 1
 204 008c 83F31188 		msr     BASEPRI, r3
 205              	@ 0 "" 2
 206              	.LVL26:
 207              		.thumb
 208              	.LBE36:
 209              		.loc 1 287 0
 210 0090 2448     		ldr	r0, .L48+4
 211 0092 4FF40071 		mov	r1, #512
 212 0096 FFF7FEFF 		bl	chEvtBroadcastFlagsI
 213              	.LVL27:
 214              	.LBB37:
 215              		.loc 1 288 0
 216 009a 0023     		movs	r3, #0
 217              	.LVL28:
 218              	@ 288 "../../../ChibiOS/os/hal/platforms/STM32/serial_lld.c" 1
 219 009c 83F31188 		msr     BASEPRI, r3
 220              	@ 0 "" 2
 221              	.LVL29:
 222              		.thumb
 223              	.LBE37:
 224              		.loc 1 289 0
 225 00a0 2A88     		ldrh	r2, [r5, #0]
 226 00a2 22F48073 		bic	r3, r2, #256
ARM GAS  C:\Users\DNIEL~1\AppData\Local\Temp\cciNsdV0.s 			page 5


 227              	.LVL30:
 228 00a6 1904     		lsls	r1, r3, #16
 229 00a8 080C     		lsrs	r0, r1, #16
 230 00aa 2880     		strh	r0, [r5, #0]	@ movhi
 231 00ac B8E7     		b	.L8
 232              	.LVL31:
 233              	.L43:
 234              	.LBB38:
 235              	.LBB39:
 236              		.loc 1 257 0
 237 00ae 04F00800 		and	r0, r4, #8
 238 00b2 82B2     		uxth	r2, r0
 239              		.loc 1 258 0
 240 00b4 002A     		cmp	r2, #0
 241 00b6 14BF     		ite	ne
 242 00b8 8021     		movne	r1, #128
 243 00ba 0021     		moveq	r1, #0
 244              	.LVL32:
 245              		.loc 1 259 0
 246 00bc E307     		lsls	r3, r4, #31
 247              		.loc 1 261 0
 248 00be 04F00203 		and	r3, r4, #2
 249 00c2 98B2     		uxth	r0, r3
 250              		.loc 1 260 0
 251 00c4 48BF     		it	mi
 252 00c6 41F02001 		orrmi	r1, r1, #32
 253              	.LVL33:
 254              		.loc 1 261 0
 255 00ca 08B1     		cbz	r0, .L6
 256              		.loc 1 262 0
 257 00cc 41F04001 		orr	r1, r1, #64
 258              	.LVL34:
 259              	.L6:
 260              		.loc 1 263 0
 261 00d0 04F00402 		and	r2, r4, #4
 262 00d4 93B2     		uxth	r3, r2
 263 00d6 0BB1     		cbz	r3, .L7
 264              		.loc 1 264 0
 265 00d8 41F48071 		orr	r1, r1, #256
 266              	.LVL35:
 267              	.L7:
 268              	.LBB40:
 269              		.loc 1 265 0
 270 00dc 2023     		movs	r3, #32
 271              	.LVL36:
 272              	@ 265 "../../../ChibiOS/os/hal/platforms/STM32/serial_lld.c" 1
 273 00de 83F31188 		msr     BASEPRI, r3
 274              	@ 0 "" 2
 275              	.LVL37:
 276              		.thumb
 277              	.LBE40:
 278              		.loc 1 266 0
 279 00e2 1048     		ldr	r0, .L48+4
 280 00e4 FFF7FEFF 		bl	chEvtBroadcastFlagsI
 281              	.LVL38:
 282              	.LBB41:
 283              		.loc 1 267 0
ARM GAS  C:\Users\DNIEL~1\AppData\Local\Temp\cciNsdV0.s 			page 6


 284 00e8 0023     		movs	r3, #0
 285              	@ 267 "../../../ChibiOS/os/hal/platforms/STM32/serial_lld.c" 1
 286 00ea 83F31188 		msr     BASEPRI, r3
 287              	@ 0 "" 2
 288              	.LVL39:
 289              		.thumb
 290 00ee 92E7     		b	.L3
 291              	.LVL40:
 292              	.L46:
 293              	.LBE41:
 294              	.LBE39:
 295              	.LBE38:
 296              	.LBB42:
 297              	.LBB43:
 298              		.loc 1 300 0
 299 00f0 2023     		movs	r3, #32
 300              	.LVL41:
 301              	@ 300 "../../../ChibiOS/os/hal/platforms/STM32/serial_lld.c" 1
 302 00f2 83F31188 		msr     BASEPRI, r3
 303              	@ 0 "" 2
 304              	.LVL42:
 305              		.thumb
 306              	.LBE43:
 307              		.loc 1 301 0
 308 00f6 0C48     		ldr	r0, .L48+8
 309 00f8 FFF7FEFF 		bl	chOQGetI
 310              	.LVL43:
 311              		.loc 1 302 0
 312 00fc 0028     		cmp	r0, #0
 313 00fe 05DB     		blt	.L47
 314              		.loc 1 307 0
 315 0100 81B2     		uxth	r1, r0
 316 0102 A980     		strh	r1, [r5, #4]	@ movhi
 317              	.LVL44:
 318              	.L12:
 319              	.LBB44:
 320              		.loc 1 308 0
 321 0104 0023     		movs	r3, #0
 322              	@ 308 "../../../ChibiOS/os/hal/platforms/STM32/serial_lld.c" 1
 323 0106 83F31188 		msr     BASEPRI, r3
 324              	@ 0 "" 2
 325              	.LVL45:
 326              		.thumb
 327 010a 97E7     		b	.L10
 328              	.LVL46:
 329              	.L47:
 330              	.LBE44:
 331              		.loc 1 303 0
 332 010c 0548     		ldr	r0, .L48+4
 333              	.LVL47:
 334 010e 0821     		movs	r1, #8
 335 0110 FFF7FEFF 		bl	chEvtBroadcastFlagsI
 336              	.LVL48:
 337              		.loc 1 304 0
 338 0114 26F0C000 		bic	r0, r6, #192
 339 0118 40F04002 		orr	r2, r0, #64
 340 011c AA81     		strh	r2, [r5, #12]	@ movhi
ARM GAS  C:\Users\DNIEL~1\AppData\Local\Temp\cciNsdV0.s 			page 7


 341 011e F1E7     		b	.L12
 342              	.L49:
 343              		.align	2
 344              	.L48:
 345 0120 00000000 		.word	.LANCHOR0
 346 0124 04000000 		.word	.LANCHOR0+4
 347 0128 30000000 		.word	.LANCHOR0+48
 348              	.LBE42:
 349              	.LBE45:
 350              	.LBE46:
 351              		.cfi_endproc
 352              	.LFE123:
 353              		.size	VectorD4, .-VectorD4
 354 012c AFF30080 		.section	.text.sd_lld_init,"ax",%progbits
 355              		.align	2
 356              		.p2align 4,,15
 357              		.global	sd_lld_init
 358              		.thumb
 359              		.thumb_func
 360              		.type	sd_lld_init, %function
 361              	sd_lld_init:
 362              	.LFB124:
 363              		.loc 1 497 0
 364              		.cfi_startproc
 365              		@ args = 0, pretend = 0, frame = 0
 366              		@ frame_needed = 0, uses_anonymous_args = 0
 367 0000 10B5     		push	{r4, lr}
 368              	.LCFI1:
 369              		.cfi_def_cfa_offset 8
 370              		.cfi_offset 4, -8
 371              		.cfi_offset 14, -4
 372              		.loc 1 500 0
 373 0002 40F20004 		movw	r4, #:lower16:.LANCHOR0
 374 0006 C0F20004 		movt	r4, #:upper16:.LANCHOR0
 375 000a 40F20002 		movw	r2, #:lower16:notify1
 376 000e 2046     		mov	r0, r4
 377 0010 0021     		movs	r1, #0
 378 0012 C0F20002 		movt	r2, #:upper16:notify1
 379 0016 FFF7FEFF 		bl	sdObjectInit
 380              	.LVL49:
 381              		.loc 1 501 0
 382 001a 4FF48053 		mov	r3, #4096
 383 001e C4F20103 		movt	r3, 16385
 384 0022 6367     		str	r3, [r4, #116]
 385 0024 10BD     		pop	{r4, pc}
 386              		.cfi_endproc
 387              	.LFE124:
 388              		.size	sd_lld_init, .-sd_lld_init
 389 0026 00BFAFF3 		.section	.text.sd_lld_start,"ax",%progbits
 389      0080AFF3 
 389      0080
 390              		.align	2
 391              		.p2align 4,,15
 392              		.global	sd_lld_start
 393              		.thumb
 394              		.thumb_func
 395              		.type	sd_lld_start, %function
ARM GAS  C:\Users\DNIEL~1\AppData\Local\Temp\cciNsdV0.s 			page 8


 396              	sd_lld_start:
 397              	.LFB125:
 398              		.loc 1 540 0
 399              		.cfi_startproc
 400              		@ args = 0, pretend = 0, frame = 0
 401              		@ frame_needed = 0, uses_anonymous_args = 0
 402              	.LVL50:
 403 0000 38B5     		push	{r3, r4, r5, lr}
 404              	.LCFI2:
 405              		.cfi_def_cfa_offset 16
 406              		.cfi_offset 3, -16
 407              		.cfi_offset 4, -12
 408              		.cfi_offset 5, -8
 409              		.cfi_offset 14, -4
 410              		.loc 1 545 0
 411 0002 037A     		ldrb	r3, [r0, #8]	@ zero_extendqisi2
 412              		.loc 1 543 0
 413 0004 254C     		ldr	r4, .L59
 414 0006 0029     		cmp	r1, #0
 415 0008 18BF     		it	ne
 416 000a 0C46     		movne	r4, r1
 417              		.loc 1 545 0
 418 000c 012B     		cmp	r3, #1
 419              		.loc 1 540 0
 420 000e 0546     		mov	r5, r0
 421              		.loc 1 545 0
 422 0010 2BD0     		beq	.L58
 423              	.LVL51:
 424              	.L53:
 425              	.LBB49:
 426              	.LBB50:
 427              		.loc 1 216 0
 428 0012 4FF48050 		mov	r0, #4096
 429              		.loc 1 212 0
 430 0016 6B6F     		ldr	r3, [r5, #116]
 431              	.LVL52:
 432              		.loc 1 220 0
 433 0018 2168     		ldr	r1, [r4, #0]
 434              		.loc 1 216 0
 435 001a C4F20100 		movt	r0, 16385
 436 001e 8342     		cmp	r3, r0
 437 0020 33D0     		beq	.L54
 438 0022 4FF4A052 		mov	r2, #5120
 439 0026 C4F20102 		movt	r2, 16385
 440 002a 9342     		cmp	r3, r2
 441 002c 2DD0     		beq	.L54
 442              		.loc 1 222 0
 443 002e 4DF68060 		movw	r0, #56960
 444 0032 C0F28020 		movt	r0, 640
 445 0036 B0FBF1F1 		udiv	r1, r0, r1
 446 003a 8AB2     		uxth	r2, r1
 447 003c 1A81     		strh	r2, [r3, #8]	@ movhi
 448              	.L56:
 449              		.loc 1 225 0
 450 003e A288     		ldrh	r2, [r4, #4]
 451              		.loc 1 228 0
 452 0040 E088     		ldrh	r0, [r4, #6]
ARM GAS  C:\Users\DNIEL~1\AppData\Local\Temp\cciNsdV0.s 			page 9


 453              		.loc 1 229 0
 454 0042 2189     		ldrh	r1, [r4, #8]
 455              		.loc 1 225 0
 456 0044 42F40452 		orr	r2, r2, #8448
 457 0048 42F02C02 		orr	r2, r2, #44
 458 004c 92B2     		uxth	r2, r2
 459              		.loc 1 228 0
 460 004e 40F04000 		orr	r0, r0, #64
 461              		.loc 1 229 0
 462 0052 41F00101 		orr	r1, r1, #1
 463              		.loc 1 225 0
 464 0056 9A81     		strh	r2, [r3, #12]	@ movhi
 465              		.loc 1 228 0
 466 0058 80B2     		uxth	r0, r0
 467              		.loc 1 230 0
 468 005a 0022     		movs	r2, #0
 469              		.loc 1 229 0
 470 005c 89B2     		uxth	r1, r1
 471              		.loc 1 228 0
 472 005e 1882     		strh	r0, [r3, #16]	@ movhi
 473              		.loc 1 229 0
 474 0060 9982     		strh	r1, [r3, #20]	@ movhi
 475              		.loc 1 230 0
 476 0062 1A80     		strh	r2, [r3, #0]	@ movhi
 477              		.loc 1 231 0
 478 0064 1A88     		ldrh	r2, [r3, #0]
 479              		.loc 1 232 0
 480 0066 9B88     		ldrh	r3, [r3, #4]
 481              	.LVL53:
 482 0068 38BD     		pop	{r3, r4, r5, pc}
 483              	.LVL54:
 484              	.L58:
 485              	.LBE50:
 486              	.LBE49:
 487              		.loc 1 547 0
 488 006a 0D48     		ldr	r0, .L59+4
 489              	.LVL55:
 490 006c 8542     		cmp	r5, r0
 491 006e D0D1     		bne	.L53
 492              		.loc 1 548 0
 493 0070 4FF46051 		mov	r1, #14336
 494              	.LVL56:
 495 0074 C4F20201 		movt	r1, 16386
 496              		.loc 1 549 0
 497 0078 2520     		movs	r0, #37
 498              		.loc 1 548 0
 499 007a 4A6C     		ldr	r2, [r1, #68]
 500 007c 42F01003 		orr	r3, r2, #16
 501 0080 4B64     		str	r3, [r1, #68]
 502              		.loc 1 549 0
 503 0082 C021     		movs	r1, #192
 504 0084 FFF7FEFF 		bl	nvicEnableVector
 505              	.LVL57:
 506 0088 C3E7     		b	.L53
 507              	.LVL58:
 508              	.L54:
 509              	.LBB52:
ARM GAS  C:\Users\DNIEL~1\AppData\Local\Temp\cciNsdV0.s 			page 10


 510              	.LBB51:
 511              		.loc 1 220 0
 512 008a 4FF43D40 		mov	r0, #48384
 513 008e C0F20150 		movt	r0, 1281
 514 0092 B0FBF1F1 		udiv	r1, r0, r1
 515 0096 8AB2     		uxth	r2, r1
 516 0098 1A81     		strh	r2, [r3, #8]	@ movhi
 517 009a D0E7     		b	.L56
 518              	.L60:
 519              		.align	2
 520              	.L59:
 521 009c 00000000 		.word	.LANCHOR1
 522 00a0 00000000 		.word	.LANCHOR0
 523              	.LBE51:
 524              	.LBE52:
 525              		.cfi_endproc
 526              	.LFE125:
 527              		.size	sd_lld_start, .-sd_lld_start
 528 00a4 AFF30080 		.section	.text.sd_lld_stop,"ax",%progbits
 528      AFF30080 
 528      AFF30080 
 529              		.align	2
 530              		.p2align 4,,15
 531              		.global	sd_lld_stop
 532              		.thumb
 533              		.thumb_func
 534              		.type	sd_lld_stop, %function
 535              	sd_lld_stop:
 536              	.LFB126:
 537              		.loc 1 601 0
 538              		.cfi_startproc
 539              		@ args = 0, pretend = 0, frame = 0
 540              		@ frame_needed = 0, uses_anonymous_args = 0
 541              		@ link register save eliminated.
 542              	.LVL59:
 543              		.loc 1 603 0
 544 0000 037A     		ldrb	r3, [r0, #8]	@ zero_extendqisi2
 545 0002 022B     		cmp	r3, #2
 546 0004 00D0     		beq	.L65
 547              	.L61:
 548 0006 7047     		bx	lr
 549              	.L65:
 550              		.loc 1 606 0
 551 0008 094B     		ldr	r3, .L66
 552              		.loc 1 604 0
 553 000a 416F     		ldr	r1, [r0, #116]
 554              	.LVL60:
 555              	.LBB53:
 556              	.LBB54:
 557              		.loc 1 243 0
 558 000c 0022     		movs	r2, #0
 559              	.LBE54:
 560              	.LBE53:
 561              		.loc 1 606 0
 562 000e 9842     		cmp	r0, r3
 563              	.LBB56:
 564              	.LBB55:
ARM GAS  C:\Users\DNIEL~1\AppData\Local\Temp\cciNsdV0.s 			page 11


 565              		.loc 1 243 0
 566 0010 8A81     		strh	r2, [r1, #12]	@ movhi
 567              		.loc 1 244 0
 568 0012 0A82     		strh	r2, [r1, #16]	@ movhi
 569              		.loc 1 245 0
 570 0014 8A82     		strh	r2, [r1, #20]	@ movhi
 571              	.LBE55:
 572              	.LBE56:
 573              		.loc 1 606 0
 574 0016 F6D1     		bne	.L61
 575              		.loc 1 607 0
 576 0018 4FF46051 		mov	r1, #14336
 577              	.LVL61:
 578 001c C4F20201 		movt	r1, 16386
 579              		.loc 1 608 0
 580 0020 2520     		movs	r0, #37
 581              	.LVL62:
 582              		.loc 1 607 0
 583 0022 4A6C     		ldr	r2, [r1, #68]
 584 0024 22F01003 		bic	r3, r2, #16
 585 0028 4B64     		str	r3, [r1, #68]
 586              		.loc 1 648 0
 587              		.loc 1 608 0
 588 002a FFF7FEBF 		b	nvicDisableVector
 589              	.LVL63:
 590              	.L67:
 591 002e 00BF     		.align	2
 592              	.L66:
 593 0030 00000000 		.word	.LANCHOR0
 594              		.cfi_endproc
 595              	.LFE126:
 596              		.size	sd_lld_stop, .-sd_lld_stop
 597              		.global	SD1
 598 0034 AFF30080 		.section	.rodata.default_config,"a",%progbits
 598      AFF30080 
 598      AFF30080 
 599              		.align	2
 600              		.set	.LANCHOR1,. + 0
 601              		.type	default_config, %object
 602              		.size	default_config, 12
 603              	default_config:
 604 0000 00960000 		.word	38400
 605 0004 0000     		.short	0
 606 0006 0040     		.short	16384
 607 0008 0000     		.short	0
 608 000a 0000     		.space	2
 609              		.section	.bss.SD1,"aw",%nobits
 610              		.align	2
 611              		.set	.LANCHOR0,. + 0
 612              		.type	SD1, %object
 613              		.size	SD1, 120
 614              	SD1:
 615 0000 00000000 		.space	120
 615      00000000 
 615      00000000 
 615      00000000 
 615      00000000 
ARM GAS  C:\Users\DNIEL~1\AppData\Local\Temp\cciNsdV0.s 			page 12


 616              		.text
 617              	.Letext0:
 618              		.file 2 "c:\\chibistudio\\tools\\gnu tools arm embedded\\4.7 2014q2\\bin\\../lib/gcc/arm-none-eabi
 619              		.file 3 "c:\\chibistudio\\tools\\gnu tools arm embedded\\4.7 2014q2\\bin\\../lib/gcc/arm-none-eabi
 620              		.file 4 "../../../ChibiOS/os/ports/GCC/ARMCMx/chtypes.h"
 621              		.file 5 "../../../ChibiOS/os/kernel/include/chlists.h"
 622              		.file 6 "../../../ChibiOS/os/kernel/include/chthreads.h"
 623              		.file 7 "../../../ChibiOS/os/ports/GCC/ARMCMx/chcore_v7m.h"
 624              		.file 8 "../../../ChibiOS/os/kernel/include/chmtx.h"
 625              		.file 9 "../../../ChibiOS/os/kernel/include/chevents.h"
 626              		.file 10 "../../../ChibiOS/os/kernel/include/chqueues.h"
 627              		.file 11 "../../../ChibiOS/os/hal/platforms/STM32F4xx/stm32f4xx.h"
 628              		.file 12 "../../../ChibiOS/os/hal/include/serial.h"
 629              		.file 13 "../../../ChibiOS/os/hal/platforms/STM32/serial_lld.h"
 630              		.file 14 "../../../ChibiOS/os/ports/common/ARMCMx/nvic.h"
 631              		.file 15 "../../../ChibiOS/os/ports/common/ARMCMx/CMSIS/include/core_cm4.h"
 632              		.section	.debug_info,"",%progbits
 633              	.Ldebug_info0:
 634 0000 BA120000 		.4byte	0x12ba
 635 0004 0200     		.2byte	0x2
 636 0006 00000000 		.4byte	.Ldebug_abbrev0
 637 000a 04       		.byte	0x4
 638 000b 01       		.uleb128 0x1
 639 000c 5B070000 		.4byte	.LASF233
 640 0010 01       		.byte	0x1
 641 0011 72000000 		.4byte	.LASF234
 642 0015 13010000 		.4byte	.LASF235
 643 0019 78000000 		.4byte	.Ldebug_ranges0+0x78
 644 001d 00000000 		.4byte	0
 645 0021 00000000 		.4byte	0
 646 0025 00000000 		.4byte	.Ldebug_line0
 647 0029 02       		.uleb128 0x2
 648 002a 04       		.byte	0x4
 649 002b 05       		.byte	0x5
 650 002c 696E7400 		.ascii	"int\000"
 651 0030 03       		.uleb128 0x3
 652 0031 00000000 		.4byte	.LASF2
 653 0035 02       		.byte	0x2
 654 0036 D5       		.byte	0xd5
 655 0037 3B000000 		.4byte	0x3b
 656 003b 04       		.uleb128 0x4
 657 003c 04       		.byte	0x4
 658 003d 07       		.byte	0x7
 659 003e 8E060000 		.4byte	.LASF0
 660 0042 04       		.uleb128 0x4
 661 0043 01       		.byte	0x1
 662 0044 06       		.byte	0x6
 663 0045 9F020000 		.4byte	.LASF1
 664 0049 03       		.uleb128 0x3
 665 004a B5020000 		.4byte	.LASF3
 666 004e 03       		.byte	0x3
 667 004f 2A       		.byte	0x2a
 668 0050 54000000 		.4byte	0x54
 669 0054 04       		.uleb128 0x4
 670 0055 01       		.byte	0x1
 671 0056 08       		.byte	0x8
 672 0057 F7020000 		.4byte	.LASF4
ARM GAS  C:\Users\DNIEL~1\AppData\Local\Temp\cciNsdV0.s 			page 13


 673 005b 04       		.uleb128 0x4
 674 005c 02       		.byte	0x2
 675 005d 05       		.byte	0x5
 676 005e 85090000 		.4byte	.LASF5
 677 0062 03       		.uleb128 0x3
 678 0063 73080000 		.4byte	.LASF6
 679 0067 03       		.byte	0x3
 680 0068 36       		.byte	0x36
 681 0069 6D000000 		.4byte	0x6d
 682 006d 04       		.uleb128 0x4
 683 006e 02       		.byte	0x2
 684 006f 07       		.byte	0x7
 685 0070 6D0A0000 		.4byte	.LASF7
 686 0074 03       		.uleb128 0x3
 687 0075 51000000 		.4byte	.LASF8
 688 0079 03       		.byte	0x3
 689 007a 4F       		.byte	0x4f
 690 007b 7F000000 		.4byte	0x7f
 691 007f 04       		.uleb128 0x4
 692 0080 04       		.byte	0x4
 693 0081 05       		.byte	0x5
 694 0082 F3010000 		.4byte	.LASF9
 695 0086 03       		.uleb128 0x3
 696 0087 210A0000 		.4byte	.LASF10
 697 008b 03       		.byte	0x3
 698 008c 50       		.byte	0x50
 699 008d 91000000 		.4byte	0x91
 700 0091 04       		.uleb128 0x4
 701 0092 04       		.byte	0x4
 702 0093 07       		.byte	0x7
 703 0094 D2040000 		.4byte	.LASF11
 704 0098 04       		.uleb128 0x4
 705 0099 08       		.byte	0x8
 706 009a 05       		.byte	0x5
 707 009b C7050000 		.4byte	.LASF12
 708 009f 04       		.uleb128 0x4
 709 00a0 08       		.byte	0x8
 710 00a1 07       		.byte	0x7
 711 00a2 54080000 		.4byte	.LASF13
 712 00a6 03       		.uleb128 0x3
 713 00a7 F9080000 		.4byte	.LASF14
 714 00ab 04       		.byte	0x4
 715 00ac 28       		.byte	0x28
 716 00ad 49000000 		.4byte	0x49
 717 00b1 03       		.uleb128 0x3
 718 00b2 33020000 		.4byte	.LASF15
 719 00b6 04       		.byte	0x4
 720 00b7 29       		.byte	0x29
 721 00b8 49000000 		.4byte	0x49
 722 00bc 03       		.uleb128 0x3
 723 00bd D8090000 		.4byte	.LASF16
 724 00c1 04       		.byte	0x4
 725 00c2 2A       		.byte	0x2a
 726 00c3 49000000 		.4byte	0x49
 727 00c7 03       		.uleb128 0x3
 728 00c8 98080000 		.4byte	.LASF17
 729 00cc 04       		.byte	0x4
ARM GAS  C:\Users\DNIEL~1\AppData\Local\Temp\cciNsdV0.s 			page 14


 730 00cd 2B       		.byte	0x2b
 731 00ce 49000000 		.4byte	0x49
 732 00d2 03       		.uleb128 0x3
 733 00d3 3E000000 		.4byte	.LASF18
 734 00d7 04       		.byte	0x4
 735 00d8 2C       		.byte	0x2c
 736 00d9 86000000 		.4byte	0x86
 737 00dd 03       		.uleb128 0x3
 738 00de 7C080000 		.4byte	.LASF19
 739 00e2 04       		.byte	0x4
 740 00e3 2D       		.byte	0x2d
 741 00e4 74000000 		.4byte	0x74
 742 00e8 03       		.uleb128 0x3
 743 00e9 BD020000 		.4byte	.LASF20
 744 00ed 04       		.byte	0x4
 745 00ee 2F       		.byte	0x2f
 746 00ef 86000000 		.4byte	0x86
 747 00f3 03       		.uleb128 0x3
 748 00f4 12070000 		.4byte	.LASF21
 749 00f8 04       		.byte	0x4
 750 00f9 30       		.byte	0x30
 751 00fa 86000000 		.4byte	0x86
 752 00fe 03       		.uleb128 0x3
 753 00ff 23000000 		.4byte	.LASF22
 754 0103 04       		.byte	0x4
 755 0104 31       		.byte	0x31
 756 0105 86000000 		.4byte	0x86
 757 0109 03       		.uleb128 0x3
 758 010a B1090000 		.4byte	.LASF23
 759 010e 05       		.byte	0x5
 760 010f 23       		.byte	0x23
 761 0110 14010000 		.4byte	0x114
 762 0114 05       		.uleb128 0x5
 763 0115 B1090000 		.4byte	.LASF23
 764 0119 48       		.byte	0x48
 765 011a 06       		.byte	0x6
 766 011b 57       		.byte	0x57
 767 011c 39020000 		.4byte	0x239
 768 0120 06       		.uleb128 0x6
 769 0121 FC010000 		.4byte	.LASF24
 770 0125 06       		.byte	0x6
 771 0126 58       		.byte	0x58
 772 0127 5E020000 		.4byte	0x25e
 773 012b 02       		.byte	0x2
 774 012c 23       		.byte	0x23
 775 012d 00       		.uleb128 0
 776 012e 06       		.uleb128 0x6
 777 012f 0B020000 		.4byte	.LASF25
 778 0133 06       		.byte	0x6
 779 0134 5A       		.byte	0x5a
 780 0135 5E020000 		.4byte	0x25e
 781 0139 02       		.byte	0x2
 782 013a 23       		.byte	0x23
 783 013b 04       		.uleb128 0x4
 784 013c 06       		.uleb128 0x6
 785 013d 94030000 		.4byte	.LASF26
 786 0141 06       		.byte	0x6
ARM GAS  C:\Users\DNIEL~1\AppData\Local\Temp\cciNsdV0.s 			page 15


 787 0142 5C       		.byte	0x5c
 788 0143 D2000000 		.4byte	0xd2
 789 0147 02       		.byte	0x2
 790 0148 23       		.byte	0x23
 791 0149 08       		.uleb128 0x8
 792 014a 06       		.uleb128 0x6
 793 014b 38000000 		.4byte	.LASF27
 794 014f 06       		.byte	0x6
 795 0150 5D       		.byte	0x5d
 796 0151 2C030000 		.4byte	0x32c
 797 0155 02       		.byte	0x2
 798 0156 23       		.byte	0x23
 799 0157 0C       		.uleb128 0xc
 800 0158 06       		.uleb128 0x6
 801 0159 EB010000 		.4byte	.LASF28
 802 015d 06       		.byte	0x6
 803 015e 5F       		.byte	0x5f
 804 015f 5E020000 		.4byte	0x25e
 805 0163 02       		.byte	0x2
 806 0164 23       		.byte	0x23
 807 0165 10       		.uleb128 0x10
 808 0166 06       		.uleb128 0x6
 809 0167 6B080000 		.4byte	.LASF29
 810 016b 06       		.byte	0x6
 811 016c 60       		.byte	0x60
 812 016d 5E020000 		.4byte	0x25e
 813 0171 02       		.byte	0x2
 814 0172 23       		.byte	0x23
 815 0173 14       		.uleb128 0x14
 816 0174 06       		.uleb128 0x6
 817 0175 030B0000 		.4byte	.LASF30
 818 0179 06       		.byte	0x6
 819 017a 67       		.byte	0x67
 820 017b 59040000 		.4byte	0x459
 821 017f 02       		.byte	0x2
 822 0180 23       		.byte	0x23
 823 0181 18       		.uleb128 0x18
 824 0182 06       		.uleb128 0x6
 825 0183 3D0B0000 		.4byte	.LASF31
 826 0187 06       		.byte	0x6
 827 0188 72       		.byte	0x72
 828 0189 B1000000 		.4byte	0xb1
 829 018d 02       		.byte	0x2
 830 018e 23       		.byte	0x23
 831 018f 1C       		.uleb128 0x1c
 832 0190 06       		.uleb128 0x6
 833 0191 81060000 		.4byte	.LASF32
 834 0195 06       		.byte	0x6
 835 0196 76       		.byte	0x76
 836 0197 A6000000 		.4byte	0xa6
 837 019b 02       		.byte	0x2
 838 019c 23       		.byte	0x23
 839 019d 1D       		.uleb128 0x1d
 840 019e 06       		.uleb128 0x6
 841 019f BE060000 		.4byte	.LASF33
 842 01a3 06       		.byte	0x6
 843 01a4 7B       		.byte	0x7b
ARM GAS  C:\Users\DNIEL~1\AppData\Local\Temp\cciNsdV0.s 			page 16


 844 01a5 BC000000 		.4byte	0xbc
 845 01a9 02       		.byte	0x2
 846 01aa 23       		.byte	0x23
 847 01ab 1E       		.uleb128 0x1e
 848 01ac 06       		.uleb128 0x6
 849 01ad AB020000 		.4byte	.LASF34
 850 01b1 06       		.byte	0x6
 851 01b2 81       		.byte	0x81
 852 01b3 C7000000 		.4byte	0xc7
 853 01b7 02       		.byte	0x2
 854 01b8 23       		.byte	0x23
 855 01b9 1F       		.uleb128 0x1f
 856 01ba 06       		.uleb128 0x6
 857 01bb 3D070000 		.4byte	.LASF35
 858 01bf 06       		.byte	0x6
 859 01c0 88       		.byte	0x88
 860 01c1 5B030000 		.4byte	0x35b
 861 01c5 02       		.byte	0x2
 862 01c6 23       		.byte	0x23
 863 01c7 20       		.uleb128 0x20
 864 01c8 07       		.uleb128 0x7
 865 01c9 705F7500 		.ascii	"p_u\000"
 866 01cd 06       		.byte	0x6
 867 01ce AD       		.byte	0xad
 868 01cf 24040000 		.4byte	0x424
 869 01d3 02       		.byte	0x2
 870 01d4 23       		.byte	0x23
 871 01d5 24       		.uleb128 0x24
 872 01d6 06       		.uleb128 0x6
 873 01d7 4E060000 		.4byte	.LASF36
 874 01db 06       		.byte	0x6
 875 01dc B2       		.byte	0xb2
 876 01dd 86020000 		.4byte	0x286
 877 01e1 02       		.byte	0x2
 878 01e2 23       		.byte	0x23
 879 01e3 28       		.uleb128 0x28
 880 01e4 06       		.uleb128 0x6
 881 01e5 46000000 		.4byte	.LASF37
 882 01e9 06       		.byte	0x6
 883 01ea B8       		.byte	0xb8
 884 01eb 64020000 		.4byte	0x264
 885 01ef 02       		.byte	0x2
 886 01f0 23       		.byte	0x23
 887 01f1 2C       		.uleb128 0x2c
 888 01f2 06       		.uleb128 0x6
 889 01f3 2B0B0000 		.4byte	.LASF38
 890 01f7 06       		.byte	0x6
 891 01f8 BC       		.byte	0xbc
 892 01f9 DD000000 		.4byte	0xdd
 893 01fd 02       		.byte	0x2
 894 01fe 23       		.byte	0x23
 895 01ff 34       		.uleb128 0x34
 896 0200 06       		.uleb128 0x6
 897 0201 13040000 		.4byte	.LASF39
 898 0205 06       		.byte	0x6
 899 0206 C2       		.byte	0xc2
 900 0207 E8000000 		.4byte	0xe8
ARM GAS  C:\Users\DNIEL~1\AppData\Local\Temp\cciNsdV0.s 			page 17


 901 020b 02       		.byte	0x2
 902 020c 23       		.byte	0x23
 903 020d 38       		.uleb128 0x38
 904 020e 06       		.uleb128 0x6
 905 020f 3C020000 		.4byte	.LASF40
 906 0213 06       		.byte	0x6
 907 0214 C9       		.byte	0xc9
 908 0215 6B040000 		.4byte	0x46b
 909 0219 02       		.byte	0x2
 910 021a 23       		.byte	0x23
 911 021b 3C       		.uleb128 0x3c
 912 021c 06       		.uleb128 0x6
 913 021d D4070000 		.4byte	.LASF41
 914 0221 06       		.byte	0x6
 915 0222 CD       		.byte	0xcd
 916 0223 D2000000 		.4byte	0xd2
 917 0227 02       		.byte	0x2
 918 0228 23       		.byte	0x23
 919 0229 40       		.uleb128 0x40
 920 022a 06       		.uleb128 0x6
 921 022b A9060000 		.4byte	.LASF42
 922 022f 06       		.byte	0x6
 923 0230 D3       		.byte	0xd3
 924 0231 9C020000 		.4byte	0x29c
 925 0235 02       		.byte	0x2
 926 0236 23       		.byte	0x23
 927 0237 44       		.uleb128 0x44
 928 0238 00       		.byte	0
 929 0239 08       		.uleb128 0x8
 930 023a 08       		.byte	0x8
 931 023b 05       		.byte	0x5
 932 023c 5A       		.byte	0x5a
 933 023d 5E020000 		.4byte	0x25e
 934 0241 06       		.uleb128 0x6
 935 0242 FC010000 		.4byte	.LASF24
 936 0246 05       		.byte	0x5
 937 0247 5B       		.byte	0x5b
 938 0248 5E020000 		.4byte	0x25e
 939 024c 02       		.byte	0x2
 940 024d 23       		.byte	0x23
 941 024e 00       		.uleb128 0
 942 024f 06       		.uleb128 0x6
 943 0250 0B020000 		.4byte	.LASF25
 944 0254 05       		.byte	0x5
 945 0255 5D       		.byte	0x5d
 946 0256 5E020000 		.4byte	0x25e
 947 025a 02       		.byte	0x2
 948 025b 23       		.byte	0x23
 949 025c 04       		.uleb128 0x4
 950 025d 00       		.byte	0
 951 025e 09       		.uleb128 0x9
 952 025f 04       		.byte	0x4
 953 0260 09010000 		.4byte	0x109
 954 0264 03       		.uleb128 0x3
 955 0265 410A0000 		.4byte	.LASF43
 956 0269 05       		.byte	0x5
 957 026a 5F       		.byte	0x5f
ARM GAS  C:\Users\DNIEL~1\AppData\Local\Temp\cciNsdV0.s 			page 18


 958 026b 39020000 		.4byte	0x239
 959 026f 08       		.uleb128 0x8
 960 0270 04       		.byte	0x4
 961 0271 05       		.byte	0x5
 962 0272 64       		.byte	0x64
 963 0273 86020000 		.4byte	0x286
 964 0277 06       		.uleb128 0x6
 965 0278 FC010000 		.4byte	.LASF24
 966 027c 05       		.byte	0x5
 967 027d 66       		.byte	0x66
 968 027e 5E020000 		.4byte	0x25e
 969 0282 02       		.byte	0x2
 970 0283 23       		.byte	0x23
 971 0284 00       		.uleb128 0
 972 0285 00       		.byte	0
 973 0286 03       		.uleb128 0x3
 974 0287 EA060000 		.4byte	.LASF44
 975 028b 05       		.byte	0x5
 976 028c 69       		.byte	0x69
 977 028d 6F020000 		.4byte	0x26f
 978 0291 03       		.uleb128 0x3
 979 0292 65020000 		.4byte	.LASF45
 980 0296 07       		.byte	0x7
 981 0297 DE       		.byte	0xde
 982 0298 9C020000 		.4byte	0x29c
 983 029c 0A       		.uleb128 0xa
 984 029d 04       		.byte	0x4
 985 029e 0B       		.uleb128 0xb
 986 029f 0C040000 		.4byte	.LASF46
 987 02a3 24       		.byte	0x24
 988 02a4 07       		.byte	0x7
 989 02a5 0501     		.2byte	0x105
 990 02a7 2C030000 		.4byte	0x32c
 991 02ab 0C       		.uleb128 0xc
 992 02ac 723400   		.ascii	"r4\000"
 993 02af 07       		.byte	0x7
 994 02b0 1801     		.2byte	0x118
 995 02b2 91020000 		.4byte	0x291
 996 02b6 02       		.byte	0x2
 997 02b7 23       		.byte	0x23
 998 02b8 00       		.uleb128 0
 999 02b9 0C       		.uleb128 0xc
 1000 02ba 723500   		.ascii	"r5\000"
 1001 02bd 07       		.byte	0x7
 1002 02be 1901     		.2byte	0x119
 1003 02c0 91020000 		.4byte	0x291
 1004 02c4 02       		.byte	0x2
 1005 02c5 23       		.byte	0x23
 1006 02c6 04       		.uleb128 0x4
 1007 02c7 0C       		.uleb128 0xc
 1008 02c8 723600   		.ascii	"r6\000"
 1009 02cb 07       		.byte	0x7
 1010 02cc 1A01     		.2byte	0x11a
 1011 02ce 91020000 		.4byte	0x291
 1012 02d2 02       		.byte	0x2
 1013 02d3 23       		.byte	0x23
 1014 02d4 08       		.uleb128 0x8
ARM GAS  C:\Users\DNIEL~1\AppData\Local\Temp\cciNsdV0.s 			page 19


 1015 02d5 0C       		.uleb128 0xc
 1016 02d6 723700   		.ascii	"r7\000"
 1017 02d9 07       		.byte	0x7
 1018 02da 1B01     		.2byte	0x11b
 1019 02dc 91020000 		.4byte	0x291
 1020 02e0 02       		.byte	0x2
 1021 02e1 23       		.byte	0x23
 1022 02e2 0C       		.uleb128 0xc
 1023 02e3 0C       		.uleb128 0xc
 1024 02e4 723800   		.ascii	"r8\000"
 1025 02e7 07       		.byte	0x7
 1026 02e8 1C01     		.2byte	0x11c
 1027 02ea 91020000 		.4byte	0x291
 1028 02ee 02       		.byte	0x2
 1029 02ef 23       		.byte	0x23
 1030 02f0 10       		.uleb128 0x10
 1031 02f1 0C       		.uleb128 0xc
 1032 02f2 723900   		.ascii	"r9\000"
 1033 02f5 07       		.byte	0x7
 1034 02f6 1D01     		.2byte	0x11d
 1035 02f8 91020000 		.4byte	0x291
 1036 02fc 02       		.byte	0x2
 1037 02fd 23       		.byte	0x23
 1038 02fe 14       		.uleb128 0x14
 1039 02ff 0C       		.uleb128 0xc
 1040 0300 72313000 		.ascii	"r10\000"
 1041 0304 07       		.byte	0x7
 1042 0305 1E01     		.2byte	0x11e
 1043 0307 91020000 		.4byte	0x291
 1044 030b 02       		.byte	0x2
 1045 030c 23       		.byte	0x23
 1046 030d 18       		.uleb128 0x18
 1047 030e 0C       		.uleb128 0xc
 1048 030f 72313100 		.ascii	"r11\000"
 1049 0313 07       		.byte	0x7
 1050 0314 1F01     		.2byte	0x11f
 1051 0316 91020000 		.4byte	0x291
 1052 031a 02       		.byte	0x2
 1053 031b 23       		.byte	0x23
 1054 031c 1C       		.uleb128 0x1c
 1055 031d 0C       		.uleb128 0xc
 1056 031e 6C7200   		.ascii	"lr\000"
 1057 0321 07       		.byte	0x7
 1058 0322 2001     		.2byte	0x120
 1059 0324 91020000 		.4byte	0x291
 1060 0328 02       		.byte	0x2
 1061 0329 23       		.byte	0x23
 1062 032a 20       		.uleb128 0x20
 1063 032b 00       		.byte	0
 1064 032c 0B       		.uleb128 0xb
 1065 032d C9020000 		.4byte	.LASF47
 1066 0331 04       		.byte	0x4
 1067 0332 07       		.byte	0x7
 1068 0333 2A01     		.2byte	0x12a
 1069 0335 49030000 		.4byte	0x349
 1070 0339 0C       		.uleb128 0xc
 1071 033a 72313300 		.ascii	"r13\000"
ARM GAS  C:\Users\DNIEL~1\AppData\Local\Temp\cciNsdV0.s 			page 20


 1072 033e 07       		.byte	0x7
 1073 033f 2B01     		.2byte	0x12b
 1074 0341 49030000 		.4byte	0x349
 1075 0345 02       		.byte	0x2
 1076 0346 23       		.byte	0x23
 1077 0347 00       		.uleb128 0
 1078 0348 00       		.byte	0
 1079 0349 09       		.uleb128 0x9
 1080 034a 04       		.byte	0x4
 1081 034b 9E020000 		.4byte	0x29e
 1082 034f 0D       		.uleb128 0xd
 1083 0350 86000000 		.4byte	0x86
 1084 0354 04       		.uleb128 0x4
 1085 0355 04       		.byte	0x4
 1086 0356 07       		.byte	0x7
 1087 0357 1A000000 		.4byte	.LASF48
 1088 035b 0D       		.uleb128 0xd
 1089 035c FE000000 		.4byte	0xfe
 1090 0360 05       		.uleb128 0x5
 1091 0361 A7050000 		.4byte	.LASF49
 1092 0365 10       		.byte	0x10
 1093 0366 08       		.byte	0x8
 1094 0367 25       		.byte	0x25
 1095 0368 97030000 		.4byte	0x397
 1096 036c 06       		.uleb128 0x6
 1097 036d F9050000 		.4byte	.LASF50
 1098 0371 08       		.byte	0x8
 1099 0372 26       		.byte	0x26
 1100 0373 64020000 		.4byte	0x264
 1101 0377 02       		.byte	0x2
 1102 0378 23       		.byte	0x23
 1103 0379 00       		.uleb128 0
 1104 037a 06       		.uleb128 0x6
 1105 037b 62010000 		.4byte	.LASF51
 1106 037f 08       		.byte	0x8
 1107 0380 28       		.byte	0x28
 1108 0381 5E020000 		.4byte	0x25e
 1109 0385 02       		.byte	0x2
 1110 0386 23       		.byte	0x23
 1111 0387 08       		.uleb128 0x8
 1112 0388 06       		.uleb128 0x6
 1113 0389 0A0B0000 		.4byte	.LASF52
 1114 038d 08       		.byte	0x8
 1115 038e 2A       		.byte	0x2a
 1116 038f 97030000 		.4byte	0x397
 1117 0393 02       		.byte	0x2
 1118 0394 23       		.byte	0x23
 1119 0395 0C       		.uleb128 0xc
 1120 0396 00       		.byte	0
 1121 0397 09       		.uleb128 0x9
 1122 0398 04       		.byte	0x4
 1123 0399 60030000 		.4byte	0x360
 1124 039d 03       		.uleb128 0x3
 1125 039e A7050000 		.4byte	.LASF49
 1126 03a2 08       		.byte	0x8
 1127 03a3 2C       		.byte	0x2c
 1128 03a4 60030000 		.4byte	0x360
ARM GAS  C:\Users\DNIEL~1\AppData\Local\Temp\cciNsdV0.s 			page 21


 1129 03a8 03       		.uleb128 0x3
 1130 03a9 020A0000 		.4byte	.LASF53
 1131 03ad 09       		.byte	0x9
 1132 03ae 25       		.byte	0x25
 1133 03af B3030000 		.4byte	0x3b3
 1134 03b3 05       		.uleb128 0x5
 1135 03b4 020A0000 		.4byte	.LASF53
 1136 03b8 10       		.byte	0x10
 1137 03b9 09       		.byte	0x9
 1138 03ba 2A       		.byte	0x2a
 1139 03bb F8030000 		.4byte	0x3f8
 1140 03bf 06       		.uleb128 0x6
 1141 03c0 18050000 		.4byte	.LASF54
 1142 03c4 09       		.byte	0x9
 1143 03c5 2B       		.byte	0x2b
 1144 03c6 F8030000 		.4byte	0x3f8
 1145 03ca 02       		.byte	0x2
 1146 03cb 23       		.byte	0x23
 1147 03cc 00       		.uleb128 0
 1148 03cd 06       		.uleb128 0x6
 1149 03ce 310B0000 		.4byte	.LASF55
 1150 03d2 09       		.byte	0x9
 1151 03d3 2E       		.byte	0x2e
 1152 03d4 5E020000 		.4byte	0x25e
 1153 03d8 02       		.byte	0x2
 1154 03d9 23       		.byte	0x23
 1155 03da 04       		.uleb128 0x4
 1156 03db 06       		.uleb128 0x6
 1157 03dc FB0A0000 		.4byte	.LASF56
 1158 03e0 09       		.byte	0x9
 1159 03e1 30       		.byte	0x30
 1160 03e2 E8000000 		.4byte	0xe8
 1161 03e6 02       		.byte	0x2
 1162 03e7 23       		.byte	0x23
 1163 03e8 08       		.uleb128 0x8
 1164 03e9 06       		.uleb128 0x6
 1165 03ea DE000000 		.4byte	.LASF57
 1166 03ee 09       		.byte	0x9
 1167 03ef 33       		.byte	0x33
 1168 03f0 F3000000 		.4byte	0xf3
 1169 03f4 02       		.byte	0x2
 1170 03f5 23       		.byte	0x23
 1171 03f6 0C       		.uleb128 0xc
 1172 03f7 00       		.byte	0
 1173 03f8 09       		.uleb128 0x9
 1174 03f9 04       		.byte	0x4
 1175 03fa A8030000 		.4byte	0x3a8
 1176 03fe 05       		.uleb128 0x5
 1177 03ff BC040000 		.4byte	.LASF58
 1178 0403 04       		.byte	0x4
 1179 0404 09       		.byte	0x9
 1180 0405 3A       		.byte	0x3a
 1181 0406 19040000 		.4byte	0x419
 1182 040a 06       		.uleb128 0x6
 1183 040b 80040000 		.4byte	.LASF59
 1184 040f 09       		.byte	0x9
 1185 0410 3B       		.byte	0x3b
ARM GAS  C:\Users\DNIEL~1\AppData\Local\Temp\cciNsdV0.s 			page 22


 1186 0411 F8030000 		.4byte	0x3f8
 1187 0415 02       		.byte	0x2
 1188 0416 23       		.byte	0x23
 1189 0417 00       		.uleb128 0
 1190 0418 00       		.byte	0
 1191 0419 03       		.uleb128 0x3
 1192 041a BC040000 		.4byte	.LASF58
 1193 041e 09       		.byte	0x9
 1194 041f 3E       		.byte	0x3e
 1195 0420 FE030000 		.4byte	0x3fe
 1196 0424 0E       		.uleb128 0xe
 1197 0425 04       		.byte	0x4
 1198 0426 06       		.byte	0x6
 1199 0427 8F       		.byte	0x8f
 1200 0428 59040000 		.4byte	0x459
 1201 042c 0F       		.uleb128 0xf
 1202 042d 5B0A0000 		.4byte	.LASF60
 1203 0431 06       		.byte	0x6
 1204 0432 96       		.byte	0x96
 1205 0433 DD000000 		.4byte	0xdd
 1206 0437 0F       		.uleb128 0xf
 1207 0438 6A010000 		.4byte	.LASF61
 1208 043c 06       		.byte	0x6
 1209 043d 9D       		.byte	0x9d
 1210 043e DD000000 		.4byte	0xdd
 1211 0442 0F       		.uleb128 0xf
 1212 0443 B0030000 		.4byte	.LASF62
 1213 0447 06       		.byte	0x6
 1214 0448 A4       		.byte	0xa4
 1215 0449 9C020000 		.4byte	0x29c
 1216 044d 0F       		.uleb128 0xf
 1217 044e 94010000 		.4byte	.LASF63
 1218 0452 06       		.byte	0x6
 1219 0453 AB       		.byte	0xab
 1220 0454 E8000000 		.4byte	0xe8
 1221 0458 00       		.byte	0
 1222 0459 09       		.uleb128 0x9
 1223 045a 04       		.byte	0x4
 1224 045b 5F040000 		.4byte	0x45f
 1225 045f 10       		.uleb128 0x10
 1226 0460 64040000 		.4byte	0x464
 1227 0464 04       		.uleb128 0x4
 1228 0465 01       		.byte	0x1
 1229 0466 08       		.byte	0x8
 1230 0467 8F030000 		.4byte	.LASF64
 1231 046b 09       		.uleb128 0x9
 1232 046c 04       		.byte	0x4
 1233 046d 9D030000 		.4byte	0x39d
 1234 0471 09       		.uleb128 0x9
 1235 0472 04       		.byte	0x4
 1236 0473 77040000 		.4byte	0x477
 1237 0477 11       		.uleb128 0x11
 1238 0478 01       		.byte	0x1
 1239 0479 DD000000 		.4byte	0xdd
 1240 047d 87040000 		.4byte	0x487
 1241 0481 12       		.uleb128 0x12
 1242 0482 9C020000 		.4byte	0x29c
ARM GAS  C:\Users\DNIEL~1\AppData\Local\Temp\cciNsdV0.s 			page 23


 1243 0486 00       		.byte	0
 1244 0487 03       		.uleb128 0x3
 1245 0488 A3030000 		.4byte	.LASF65
 1246 048c 0A       		.byte	0xa
 1247 048d 30       		.byte	0x30
 1248 048e 92040000 		.4byte	0x492
 1249 0492 05       		.uleb128 0x5
 1250 0493 A3030000 		.4byte	.LASF65
 1251 0497 24       		.byte	0x24
 1252 0498 0A       		.byte	0xa
 1253 0499 3E       		.byte	0x3e
 1254 049a 0F050000 		.4byte	0x50f
 1255 049e 06       		.uleb128 0x6
 1256 049f E4080000 		.4byte	.LASF66
 1257 04a3 0A       		.byte	0xa
 1258 04a4 3F       		.byte	0x3f
 1259 04a5 64020000 		.4byte	0x264
 1260 04a9 02       		.byte	0x2
 1261 04aa 23       		.byte	0x23
 1262 04ab 00       		.uleb128 0
 1263 04ac 06       		.uleb128 0x6
 1264 04ad 88040000 		.4byte	.LASF67
 1265 04b1 0A       		.byte	0xa
 1266 04b2 40       		.byte	0x40
 1267 04b3 30000000 		.4byte	0x30
 1268 04b7 02       		.byte	0x2
 1269 04b8 23       		.byte	0x23
 1270 04b9 08       		.uleb128 0x8
 1271 04ba 06       		.uleb128 0x6
 1272 04bb CC010000 		.4byte	.LASF68
 1273 04bf 0A       		.byte	0xa
 1274 04c0 41       		.byte	0x41
 1275 04c1 32050000 		.4byte	0x532
 1276 04c5 02       		.byte	0x2
 1277 04c6 23       		.byte	0x23
 1278 04c7 0C       		.uleb128 0xc
 1279 04c8 06       		.uleb128 0x6
 1280 04c9 8E010000 		.4byte	.LASF69
 1281 04cd 0A       		.byte	0xa
 1282 04ce 42       		.byte	0x42
 1283 04cf 32050000 		.4byte	0x532
 1284 04d3 02       		.byte	0x2
 1285 04d4 23       		.byte	0x23
 1286 04d5 10       		.uleb128 0x10
 1287 04d6 06       		.uleb128 0x6
 1288 04d7 20050000 		.4byte	.LASF70
 1289 04db 0A       		.byte	0xa
 1290 04dc 44       		.byte	0x44
 1291 04dd 32050000 		.4byte	0x532
 1292 04e1 02       		.byte	0x2
 1293 04e2 23       		.byte	0x23
 1294 04e3 14       		.uleb128 0x14
 1295 04e4 06       		.uleb128 0x6
 1296 04e5 03020000 		.4byte	.LASF71
 1297 04e9 0A       		.byte	0xa
 1298 04ea 45       		.byte	0x45
 1299 04eb 32050000 		.4byte	0x532
ARM GAS  C:\Users\DNIEL~1\AppData\Local\Temp\cciNsdV0.s 			page 24


 1300 04ef 02       		.byte	0x2
 1301 04f0 23       		.byte	0x23
 1302 04f1 18       		.uleb128 0x18
 1303 04f2 06       		.uleb128 0x6
 1304 04f3 D5010000 		.4byte	.LASF72
 1305 04f7 0A       		.byte	0xa
 1306 04f8 46       		.byte	0x46
 1307 04f9 0F050000 		.4byte	0x50f
 1308 04fd 02       		.byte	0x2
 1309 04fe 23       		.byte	0x23
 1310 04ff 1C       		.uleb128 0x1c
 1311 0500 06       		.uleb128 0x6
 1312 0501 21030000 		.4byte	.LASF73
 1313 0505 0A       		.byte	0xa
 1314 0506 47       		.byte	0x47
 1315 0507 9C020000 		.4byte	0x29c
 1316 050b 02       		.byte	0x2
 1317 050c 23       		.byte	0x23
 1318 050d 20       		.uleb128 0x20
 1319 050e 00       		.byte	0
 1320 050f 03       		.uleb128 0x3
 1321 0510 44060000 		.4byte	.LASF74
 1322 0514 0A       		.byte	0xa
 1323 0515 33       		.byte	0x33
 1324 0516 1A050000 		.4byte	0x51a
 1325 051a 09       		.uleb128 0x9
 1326 051b 04       		.byte	0x4
 1327 051c 20050000 		.4byte	0x520
 1328 0520 13       		.uleb128 0x13
 1329 0521 01       		.byte	0x1
 1330 0522 2C050000 		.4byte	0x52c
 1331 0526 12       		.uleb128 0x12
 1332 0527 2C050000 		.4byte	0x52c
 1333 052b 00       		.byte	0
 1334 052c 09       		.uleb128 0x9
 1335 052d 04       		.byte	0x4
 1336 052e 87040000 		.4byte	0x487
 1337 0532 09       		.uleb128 0x9
 1338 0533 04       		.byte	0x4
 1339 0534 49000000 		.4byte	0x49
 1340 0538 03       		.uleb128 0x3
 1341 0539 A30A0000 		.4byte	.LASF75
 1342 053d 0A       		.byte	0xa
 1343 053e 7B       		.byte	0x7b
 1344 053f 87040000 		.4byte	0x487
 1345 0543 03       		.uleb128 0x3
 1346 0544 D8030000 		.4byte	.LASF76
 1347 0548 0A       		.byte	0xa
 1348 0549 EE       		.byte	0xee
 1349 054a 87040000 		.4byte	0x487
 1350 054e 11       		.uleb128 0x11
 1351 054f 01       		.byte	0x1
 1352 0550 30000000 		.4byte	0x30
 1353 0554 68050000 		.4byte	0x568
 1354 0558 12       		.uleb128 0x12
 1355 0559 9C020000 		.4byte	0x29c
 1356 055d 12       		.uleb128 0x12
ARM GAS  C:\Users\DNIEL~1\AppData\Local\Temp\cciNsdV0.s 			page 25


 1357 055e 68050000 		.4byte	0x568
 1358 0562 12       		.uleb128 0x12
 1359 0563 30000000 		.4byte	0x30
 1360 0567 00       		.byte	0
 1361 0568 09       		.uleb128 0x9
 1362 0569 04       		.byte	0x4
 1363 056a 6E050000 		.4byte	0x56e
 1364 056e 10       		.uleb128 0x10
 1365 056f 49000000 		.4byte	0x49
 1366 0573 09       		.uleb128 0x9
 1367 0574 04       		.byte	0x4
 1368 0575 4E050000 		.4byte	0x54e
 1369 0579 11       		.uleb128 0x11
 1370 057a 01       		.byte	0x1
 1371 057b 30000000 		.4byte	0x30
 1372 057f 93050000 		.4byte	0x593
 1373 0583 12       		.uleb128 0x12
 1374 0584 9C020000 		.4byte	0x29c
 1375 0588 12       		.uleb128 0x12
 1376 0589 32050000 		.4byte	0x532
 1377 058d 12       		.uleb128 0x12
 1378 058e 30000000 		.4byte	0x30
 1379 0592 00       		.byte	0
 1380 0593 09       		.uleb128 0x9
 1381 0594 04       		.byte	0x4
 1382 0595 79050000 		.4byte	0x579
 1383 0599 11       		.uleb128 0x11
 1384 059a 01       		.byte	0x1
 1385 059b DD000000 		.4byte	0xdd
 1386 059f AE050000 		.4byte	0x5ae
 1387 05a3 12       		.uleb128 0x12
 1388 05a4 9C020000 		.4byte	0x29c
 1389 05a8 12       		.uleb128 0x12
 1390 05a9 49000000 		.4byte	0x49
 1391 05ad 00       		.byte	0
 1392 05ae 09       		.uleb128 0x9
 1393 05af 04       		.byte	0x4
 1394 05b0 99050000 		.4byte	0x599
 1395 05b4 14       		.uleb128 0x14
 1396 05b5 44070000 		.4byte	.LASF236
 1397 05b9 01       		.byte	0x1
 1398 05ba 0B       		.byte	0xb
 1399 05bb 8C       		.byte	0x8c
 1400 05bc EF070000 		.4byte	0x7ef
 1401 05c0 15       		.uleb128 0x15
 1402 05c1 9E040000 		.4byte	.LASF77
 1403 05c5 72       		.sleb128 -14
 1404 05c6 15       		.uleb128 0x15
 1405 05c7 E4040000 		.4byte	.LASF78
 1406 05cb 74       		.sleb128 -12
 1407 05cc 15       		.uleb128 0x15
 1408 05cd 52050000 		.4byte	.LASF79
 1409 05d1 75       		.sleb128 -11
 1410 05d2 15       		.uleb128 0x15
 1411 05d3 7F030000 		.4byte	.LASF80
 1412 05d7 76       		.sleb128 -10
 1413 05d8 15       		.uleb128 0x15
ARM GAS  C:\Users\DNIEL~1\AppData\Local\Temp\cciNsdV0.s 			page 26


 1414 05d9 11060000 		.4byte	.LASF81
 1415 05dd 7B       		.sleb128 -5
 1416 05de 15       		.uleb128 0x15
 1417 05df 37090000 		.4byte	.LASF82
 1418 05e3 7C       		.sleb128 -4
 1419 05e4 15       		.uleb128 0x15
 1420 05e5 B90A0000 		.4byte	.LASF83
 1421 05e9 7E       		.sleb128 -2
 1422 05ea 15       		.uleb128 0x15
 1423 05eb 80020000 		.4byte	.LASF84
 1424 05ef 7F       		.sleb128 -1
 1425 05f0 15       		.uleb128 0x15
 1426 05f1 C8040000 		.4byte	.LASF85
 1427 05f5 00       		.sleb128 0
 1428 05f6 15       		.uleb128 0x15
 1429 05f7 CE080000 		.4byte	.LASF86
 1430 05fb 01       		.sleb128 1
 1431 05fc 15       		.uleb128 0x15
 1432 05fd FA040000 		.4byte	.LASF87
 1433 0601 02       		.sleb128 2
 1434 0602 15       		.uleb128 0x15
 1435 0603 F4090000 		.4byte	.LASF88
 1436 0607 03       		.sleb128 3
 1437 0608 15       		.uleb128 0x15
 1438 0609 C9000000 		.4byte	.LASF89
 1439 060d 04       		.sleb128 4
 1440 060e 15       		.uleb128 0x15
 1441 060f 8F090000 		.4byte	.LASF90
 1442 0613 05       		.sleb128 5
 1443 0614 15       		.uleb128 0x15
 1444 0615 EE080000 		.4byte	.LASF91
 1445 0619 06       		.sleb128 6
 1446 061a 15       		.uleb128 0x15
 1447 061b 3E040000 		.4byte	.LASF92
 1448 061f 07       		.sleb128 7
 1449 0620 15       		.uleb128 0x15
 1450 0621 A2080000 		.4byte	.LASF93
 1451 0625 08       		.sleb128 8
 1452 0626 15       		.uleb128 0x15
 1453 0627 AE0A0000 		.4byte	.LASF94
 1454 062b 09       		.sleb128 9
 1455 062c 15       		.uleb128 0x15
 1456 062d 620A0000 		.4byte	.LASF95
 1457 0631 0A       		.sleb128 10
 1458 0632 15       		.uleb128 0x15
 1459 0633 F1070000 		.4byte	.LASF96
 1460 0637 0B       		.sleb128 11
 1461 0638 15       		.uleb128 0x15
 1462 0639 00070000 		.4byte	.LASF97
 1463 063d 0C       		.sleb128 12
 1464 063e 15       		.uleb128 0x15
 1465 063f D1020000 		.4byte	.LASF98
 1466 0643 0D       		.sleb128 13
 1467 0644 15       		.uleb128 0x15
 1468 0645 9F090000 		.4byte	.LASF99
 1469 0649 0E       		.sleb128 14
 1470 064a 15       		.uleb128 0x15
ARM GAS  C:\Users\DNIEL~1\AppData\Local\Temp\cciNsdV0.s 			page 27


 1471 064b 01090000 		.4byte	.LASF100
 1472 064f 0F       		.sleb128 15
 1473 0650 15       		.uleb128 0x15
 1474 0651 56040000 		.4byte	.LASF101
 1475 0655 10       		.sleb128 16
 1476 0656 15       		.uleb128 0x15
 1477 0657 49070000 		.4byte	.LASF102
 1478 065b 11       		.sleb128 17
 1479 065c 15       		.uleb128 0x15
 1480 065d BB080000 		.4byte	.LASF103
 1481 0661 12       		.sleb128 18
 1482 0662 15       		.uleb128 0x15
 1483 0663 49040000 		.4byte	.LASF104
 1484 0667 13       		.sleb128 19
 1485 0668 15       		.uleb128 0x15
 1486 0669 B7030000 		.4byte	.LASF105
 1487 066d 14       		.sleb128 20
 1488 066e 15       		.uleb128 0x15
 1489 066f 330A0000 		.4byte	.LASF106
 1490 0673 15       		.sleb128 21
 1491 0674 15       		.uleb128 0x15
 1492 0675 0A050000 		.4byte	.LASF107
 1493 0679 16       		.sleb128 22
 1494 067a 15       		.uleb128 0x15
 1495 067b 4E0A0000 		.4byte	.LASF108
 1496 067f 17       		.sleb128 23
 1497 0680 15       		.uleb128 0x15
 1498 0681 7F050000 		.4byte	.LASF109
 1499 0685 18       		.sleb128 24
 1500 0686 15       		.uleb128 0x15
 1501 0687 B8090000 		.4byte	.LASF110
 1502 068b 19       		.sleb128 25
 1503 068c 15       		.uleb128 0x15
 1504 068d 46020000 		.4byte	.LASF111
 1505 0691 1A       		.sleb128 26
 1506 0692 15       		.uleb128 0x15
 1507 0693 23040000 		.4byte	.LASF112
 1508 0697 1B       		.sleb128 27
 1509 0698 15       		.uleb128 0x15
 1510 0699 F9000000 		.4byte	.LASF113
 1511 069d 1C       		.sleb128 28
 1512 069e 15       		.uleb128 0x15
 1513 069f 82080000 		.4byte	.LASF114
 1514 06a3 1D       		.sleb128 29
 1515 06a4 15       		.uleb128 0x15
 1516 06a5 E4030000 		.4byte	.LASF115
 1517 06a9 1E       		.sleb128 30
 1518 06aa 15       		.uleb128 0x15
 1519 06ab FF030000 		.4byte	.LASF116
 1520 06af 1F       		.sleb128 31
 1521 06b0 15       		.uleb128 0x15
 1522 06b1 32030000 		.4byte	.LASF117
 1523 06b5 20       		.sleb128 32
 1524 06b6 15       		.uleb128 0x15
 1525 06b7 B1060000 		.4byte	.LASF118
 1526 06bb 21       		.sleb128 33
 1527 06bc 15       		.uleb128 0x15
ARM GAS  C:\Users\DNIEL~1\AppData\Local\Temp\cciNsdV0.s 			page 28


 1528 06bd 45050000 		.4byte	.LASF119
 1529 06c1 22       		.sleb128 34
 1530 06c2 15       		.uleb128 0x15
 1531 06c3 07060000 		.4byte	.LASF120
 1532 06c7 23       		.sleb128 35
 1533 06c8 15       		.uleb128 0x15
 1534 06c9 E3050000 		.4byte	.LASF121
 1535 06cd 24       		.sleb128 36
 1536 06ce 15       		.uleb128 0x15
 1537 06cf 8C080000 		.4byte	.LASF122
 1538 06d3 25       		.sleb128 37
 1539 06d4 15       		.uleb128 0x15
 1540 06d5 EE030000 		.4byte	.LASF123
 1541 06d9 26       		.sleb128 38
 1542 06da 15       		.uleb128 0x15
 1543 06db 8D020000 		.4byte	.LASF124
 1544 06df 27       		.sleb128 39
 1545 06e0 15       		.uleb128 0x15
 1546 06e1 45080000 		.4byte	.LASF125
 1547 06e5 28       		.sleb128 40
 1548 06e6 15       		.uleb128 0x15
 1549 06e7 17080000 		.4byte	.LASF126
 1550 06eb 29       		.sleb128 41
 1551 06ec 15       		.uleb128 0x15
 1552 06ed 70060000 		.4byte	.LASF127
 1553 06f1 2A       		.sleb128 42
 1554 06f2 15       		.uleb128 0x15
 1555 06f3 9B010000 		.4byte	.LASF128
 1556 06f7 2B       		.sleb128 43
 1557 06f8 15       		.uleb128 0x15
 1558 06f9 07000000 		.4byte	.LASF129
 1559 06fd 2C       		.sleb128 44
 1560 06fe 15       		.uleb128 0x15
 1561 06ff 68040000 		.4byte	.LASF130
 1562 0703 2D       		.sleb128 45
 1563 0704 15       		.uleb128 0x15
 1564 0705 8C0A0000 		.4byte	.LASF131
 1565 0709 2E       		.sleb128 46
 1566 070a 15       		.uleb128 0x15
 1567 070b D80A0000 		.4byte	.LASF132
 1568 070f 2F       		.sleb128 47
 1569 0710 15       		.uleb128 0x15
 1570 0711 B2040000 		.4byte	.LASF133
 1571 0715 30       		.sleb128 48
 1572 0716 15       		.uleb128 0x15
 1573 0717 990A0000 		.4byte	.LASF134
 1574 071b 31       		.sleb128 49
 1575 071c 15       		.uleb128 0x15
 1576 071d 6B030000 		.4byte	.LASF135
 1577 0721 32       		.sleb128 50
 1578 0722 15       		.uleb128 0x15
 1579 0723 BF000000 		.4byte	.LASF136
 1580 0727 33       		.sleb128 51
 1581 0728 15       		.uleb128 0x15
 1582 0729 2F060000 		.4byte	.LASF137
 1583 072d 34       		.sleb128 52
 1584 072e 15       		.uleb128 0x15
ARM GAS  C:\Users\DNIEL~1\AppData\Local\Temp\cciNsdV0.s 			page 29


 1585 072f 74050000 		.4byte	.LASF138
 1586 0733 35       		.sleb128 53
 1587 0734 15       		.uleb128 0x15
 1588 0735 9B060000 		.4byte	.LASF139
 1589 0739 36       		.sleb128 54
 1590 073a 15       		.uleb128 0x15
 1591 073b BD050000 		.4byte	.LASF140
 1592 073f 37       		.sleb128 55
 1593 0740 15       		.uleb128 0x15
 1594 0741 58060000 		.4byte	.LASF141
 1595 0745 38       		.sleb128 56
 1596 0746 15       		.uleb128 0x15
 1597 0747 AD000000 		.4byte	.LASF142
 1598 074b 39       		.sleb128 57
 1599 074c 15       		.uleb128 0x15
 1600 074d 190B0000 		.4byte	.LASF143
 1601 0751 3A       		.sleb128 58
 1602 0752 15       		.uleb128 0x15
 1603 0753 1E070000 		.4byte	.LASF144
 1604 0757 3B       		.sleb128 59
 1605 0758 15       		.uleb128 0x15
 1606 0759 05030000 		.4byte	.LASF145
 1607 075d 3C       		.sleb128 60
 1608 075e 15       		.uleb128 0x15
 1609 075f 68090000 		.4byte	.LASF146
 1610 0763 3D       		.sleb128 61
 1611 0764 15       		.uleb128 0x15
 1612 0765 D5050000 		.4byte	.LASF147
 1613 0769 3E       		.sleb128 62
 1614 076a 15       		.uleb128 0x15
 1615 076b 30070000 		.4byte	.LASF148
 1616 076f 3F       		.sleb128 63
 1617 0770 15       		.uleb128 0x15
 1618 0771 48010000 		.4byte	.LASF149
 1619 0775 C000     		.sleb128 64
 1620 0777 15       		.uleb128 0x15
 1621 0778 AD080000 		.4byte	.LASF150
 1622 077c C100     		.sleb128 65
 1623 077e 15       		.uleb128 0x15
 1624 077f 3F030000 		.4byte	.LASF151
 1625 0783 C200     		.sleb128 66
 1626 0785 15       		.uleb128 0x15
 1627 0786 92040000 		.4byte	.LASF152
 1628 078a C300     		.sleb128 67
 1629 078c 15       		.uleb128 0x15
 1630 078d 21020000 		.4byte	.LASF153
 1631 0791 C400     		.sleb128 68
 1632 0793 15       		.uleb128 0x15
 1633 0794 1D090000 		.4byte	.LASF154
 1634 0798 C500     		.sleb128 69
 1635 079a 15       		.uleb128 0x15
 1636 079b DF070000 		.4byte	.LASF155
 1637 079f C600     		.sleb128 70
 1638 07a1 15       		.uleb128 0x15
 1639 07a2 56010000 		.4byte	.LASF156
 1640 07a6 C700     		.sleb128 71
 1641 07a8 15       		.uleb128 0x15
ARM GAS  C:\Users\DNIEL~1\AppData\Local\Temp\cciNsdV0.s 			page 30


 1642 07a9 52090000 		.4byte	.LASF157
 1643 07ad C800     		.sleb128 72
 1644 07af 15       		.uleb128 0x15
 1645 07b0 2E080000 		.4byte	.LASF158
 1646 07b4 C900     		.sleb128 73
 1647 07b6 15       		.uleb128 0x15
 1648 07b7 E0090000 		.4byte	.LASF159
 1649 07bb CA00     		.sleb128 74
 1650 07bd 15       		.uleb128 0x15
 1651 07be C50A0000 		.4byte	.LASF160
 1652 07c2 CB00     		.sleb128 75
 1653 07c4 15       		.uleb128 0x15
 1654 07c5 7D010000 		.4byte	.LASF161
 1655 07c9 CC00     		.sleb128 76
 1656 07cb 15       		.uleb128 0x15
 1657 07cc ED050000 		.4byte	.LASF162
 1658 07d0 CD00     		.sleb128 77
 1659 07d2 15       		.uleb128 0x15
 1660 07d3 D4000000 		.4byte	.LASF163
 1661 07d7 CE00     		.sleb128 78
 1662 07d9 15       		.uleb128 0x15
 1663 07da 3B080000 		.4byte	.LASF164
 1664 07de CF00     		.sleb128 79
 1665 07e0 15       		.uleb128 0x15
 1666 07e1 30040000 		.4byte	.LASF165
 1667 07e5 D000     		.sleb128 80
 1668 07e7 15       		.uleb128 0x15
 1669 07e8 26060000 		.4byte	.LASF166
 1670 07ec D100     		.sleb128 81
 1671 07ee 00       		.byte	0
 1672 07ef 16       		.uleb128 0x16
 1673 07f0 86000000 		.4byte	0x86
 1674 07f4 FF070000 		.4byte	0x7ff
 1675 07f8 17       		.uleb128 0x17
 1676 07f9 54030000 		.4byte	0x354
 1677 07fd 01       		.byte	0x1
 1678 07fe 00       		.byte	0
 1679 07ff 0D       		.uleb128 0xd
 1680 0800 62000000 		.4byte	0x62
 1681 0804 0D       		.uleb128 0xd
 1682 0805 74000000 		.4byte	0x74
 1683 0809 18       		.uleb128 0x18
 1684 080a 88       		.byte	0x88
 1685 080b 0B       		.byte	0xb
 1686 080c DB02     		.2byte	0x2db
 1687 080e D6090000 		.4byte	0x9d6
 1688 0812 0C       		.uleb128 0xc
 1689 0813 435200   		.ascii	"CR\000"
 1690 0816 0B       		.byte	0xb
 1691 0817 DD02     		.2byte	0x2dd
 1692 0819 4F030000 		.4byte	0x34f
 1693 081d 02       		.byte	0x2
 1694 081e 23       		.byte	0x23
 1695 081f 00       		.uleb128 0
 1696 0820 19       		.uleb128 0x19
 1697 0821 6C050000 		.4byte	.LASF167
 1698 0825 0B       		.byte	0xb
ARM GAS  C:\Users\DNIEL~1\AppData\Local\Temp\cciNsdV0.s 			page 31


 1699 0826 DE02     		.2byte	0x2de
 1700 0828 4F030000 		.4byte	0x34f
 1701 082c 02       		.byte	0x2
 1702 082d 23       		.byte	0x23
 1703 082e 04       		.uleb128 0x4
 1704 082f 19       		.uleb128 0x19
 1705 0830 1E040000 		.4byte	.LASF168
 1706 0834 0B       		.byte	0xb
 1707 0835 DF02     		.2byte	0x2df
 1708 0837 4F030000 		.4byte	0x34f
 1709 083b 02       		.byte	0x2
 1710 083c 23       		.byte	0x23
 1711 083d 08       		.uleb128 0x8
 1712 083e 0C       		.uleb128 0xc
 1713 083f 43495200 		.ascii	"CIR\000"
 1714 0843 0B       		.byte	0xb
 1715 0844 E002     		.2byte	0x2e0
 1716 0846 4F030000 		.4byte	0x34f
 1717 084a 02       		.byte	0x2
 1718 084b 23       		.byte	0x23
 1719 084c 0C       		.uleb128 0xc
 1720 084d 19       		.uleb128 0x19
 1721 084e EA0A0000 		.4byte	.LASF169
 1722 0852 0B       		.byte	0xb
 1723 0853 E102     		.2byte	0x2e1
 1724 0855 4F030000 		.4byte	0x34f
 1725 0859 02       		.byte	0x2
 1726 085a 23       		.byte	0x23
 1727 085b 10       		.uleb128 0x10
 1728 085c 19       		.uleb128 0x19
 1729 085d 5F090000 		.4byte	.LASF170
 1730 0861 0B       		.byte	0xb
 1731 0862 E202     		.2byte	0x2e2
 1732 0864 4F030000 		.4byte	0x34f
 1733 0868 02       		.byte	0x2
 1734 0869 23       		.byte	0x23
 1735 086a 14       		.uleb128 0x14
 1736 086b 19       		.uleb128 0x19
 1737 086c B9070000 		.4byte	.LASF171
 1738 0870 0B       		.byte	0xb
 1739 0871 E302     		.2byte	0x2e3
 1740 0873 4F030000 		.4byte	0x34f
 1741 0877 02       		.byte	0x2
 1742 0878 23       		.byte	0x23
 1743 0879 18       		.uleb128 0x18
 1744 087a 19       		.uleb128 0x19
 1745 087b E3020000 		.4byte	.LASF172
 1746 087f 0B       		.byte	0xb
 1747 0880 E402     		.2byte	0x2e4
 1748 0882 86000000 		.4byte	0x86
 1749 0886 02       		.byte	0x2
 1750 0887 23       		.byte	0x23
 1751 0888 1C       		.uleb128 0x1c
 1752 0889 19       		.uleb128 0x19
 1753 088a 03080000 		.4byte	.LASF173
 1754 088e 0B       		.byte	0xb
 1755 088f E502     		.2byte	0x2e5
ARM GAS  C:\Users\DNIEL~1\AppData\Local\Temp\cciNsdV0.s 			page 32


 1756 0891 4F030000 		.4byte	0x34f
 1757 0895 02       		.byte	0x2
 1758 0896 23       		.byte	0x23
 1759 0897 20       		.uleb128 0x20
 1760 0898 19       		.uleb128 0x19
 1761 0899 1D060000 		.4byte	.LASF174
 1762 089d 0B       		.byte	0xb
 1763 089e E602     		.2byte	0x2e6
 1764 08a0 4F030000 		.4byte	0x34f
 1765 08a4 02       		.byte	0x2
 1766 08a5 23       		.byte	0x23
 1767 08a6 24       		.uleb128 0x24
 1768 08a7 19       		.uleb128 0x19
 1769 08a8 ED020000 		.4byte	.LASF175
 1770 08ac 0B       		.byte	0xb
 1771 08ad E702     		.2byte	0x2e7
 1772 08af EF070000 		.4byte	0x7ef
 1773 08b3 02       		.byte	0x2
 1774 08b4 23       		.byte	0x23
 1775 08b5 28       		.uleb128 0x28
 1776 08b6 19       		.uleb128 0x19
 1777 08b7 2F090000 		.4byte	.LASF176
 1778 08bb 0B       		.byte	0xb
 1779 08bc E802     		.2byte	0x2e8
 1780 08be 4F030000 		.4byte	0x34f
 1781 08c2 02       		.byte	0x2
 1782 08c3 23       		.byte	0x23
 1783 08c4 30       		.uleb128 0x30
 1784 08c5 19       		.uleb128 0x19
 1785 08c6 9B030000 		.4byte	.LASF177
 1786 08ca 0B       		.byte	0xb
 1787 08cb E902     		.2byte	0x2e9
 1788 08cd 4F030000 		.4byte	0x34f
 1789 08d1 02       		.byte	0x2
 1790 08d2 23       		.byte	0x23
 1791 08d3 34       		.uleb128 0x34
 1792 08d4 19       		.uleb128 0x19
 1793 08d5 110B0000 		.4byte	.LASF178
 1794 08d9 0B       		.byte	0xb
 1795 08da EA02     		.2byte	0x2ea
 1796 08dc 4F030000 		.4byte	0x34f
 1797 08e0 02       		.byte	0x2
 1798 08e1 23       		.byte	0x23
 1799 08e2 38       		.uleb128 0x38
 1800 08e3 19       		.uleb128 0x19
 1801 08e4 57030000 		.4byte	.LASF179
 1802 08e8 0B       		.byte	0xb
 1803 08e9 EB02     		.2byte	0x2eb
 1804 08eb 86000000 		.4byte	0x86
 1805 08ef 02       		.byte	0x2
 1806 08f0 23       		.byte	0x23
 1807 08f1 3C       		.uleb128 0x3c
 1808 08f2 19       		.uleb128 0x19
 1809 08f3 26080000 		.4byte	.LASF180
 1810 08f7 0B       		.byte	0xb
 1811 08f8 EC02     		.2byte	0x2ec
 1812 08fa 4F030000 		.4byte	0x34f
ARM GAS  C:\Users\DNIEL~1\AppData\Local\Temp\cciNsdV0.s 			page 33


 1813 08fe 02       		.byte	0x2
 1814 08ff 23       		.byte	0x23
 1815 0900 40       		.uleb128 0x40
 1816 0901 19       		.uleb128 0x19
 1817 0902 6E020000 		.4byte	.LASF181
 1818 0906 0B       		.byte	0xb
 1819 0907 ED02     		.2byte	0x2ed
 1820 0909 4F030000 		.4byte	0x34f
 1821 090d 02       		.byte	0x2
 1822 090e 23       		.byte	0x23
 1823 090f 44       		.uleb128 0x44
 1824 0910 19       		.uleb128 0x19
 1825 0911 61030000 		.4byte	.LASF182
 1826 0915 0B       		.byte	0xb
 1827 0916 EE02     		.2byte	0x2ee
 1828 0918 EF070000 		.4byte	0x7ef
 1829 091c 02       		.byte	0x2
 1830 091d 23       		.byte	0x23
 1831 091e 48       		.uleb128 0x48
 1832 091f 19       		.uleb128 0x19
 1833 0920 76020000 		.4byte	.LASF183
 1834 0924 0B       		.byte	0xb
 1835 0925 EF02     		.2byte	0x2ef
 1836 0927 4F030000 		.4byte	0x34f
 1837 092b 02       		.byte	0x2
 1838 092c 23       		.byte	0x23
 1839 092d 50       		.uleb128 0x50
 1840 092e 19       		.uleb128 0x19
 1841 092f AF010000 		.4byte	.LASF184
 1842 0933 0B       		.byte	0xb
 1843 0934 F002     		.2byte	0x2f0
 1844 0936 4F030000 		.4byte	0x34f
 1845 093a 02       		.byte	0x2
 1846 093b 23       		.byte	0x23
 1847 093c 54       		.uleb128 0x54
 1848 093d 19       		.uleb128 0x19
 1849 093e C4080000 		.4byte	.LASF185
 1850 0942 0B       		.byte	0xb
 1851 0943 F102     		.2byte	0x2f1
 1852 0945 4F030000 		.4byte	0x34f
 1853 0949 02       		.byte	0x2
 1854 094a 23       		.byte	0x23
 1855 094b 58       		.uleb128 0x58
 1856 094c 19       		.uleb128 0x19
 1857 094d 17030000 		.4byte	.LASF186
 1858 0951 0B       		.byte	0xb
 1859 0952 F202     		.2byte	0x2f2
 1860 0954 86000000 		.4byte	0x86
 1861 0958 02       		.byte	0x2
 1862 0959 23       		.byte	0x23
 1863 095a 5C       		.uleb128 0x5c
 1864 095b 19       		.uleb128 0x19
 1865 095c F6060000 		.4byte	.LASF187
 1866 0960 0B       		.byte	0xb
 1867 0961 F302     		.2byte	0x2f3
 1868 0963 4F030000 		.4byte	0x34f
 1869 0967 02       		.byte	0x2
ARM GAS  C:\Users\DNIEL~1\AppData\Local\Temp\cciNsdV0.s 			page 34


 1870 0968 23       		.byte	0x23
 1871 0969 60       		.uleb128 0x60
 1872 096a 19       		.uleb128 0x19
 1873 096b 3A060000 		.4byte	.LASF188
 1874 096f 0B       		.byte	0xb
 1875 0970 F402     		.2byte	0x2f4
 1876 0972 4F030000 		.4byte	0x34f
 1877 0976 02       		.byte	0x2
 1878 0977 23       		.byte	0x23
 1879 0978 64       		.uleb128 0x64
 1880 0979 19       		.uleb128 0x19
 1881 097a 75030000 		.4byte	.LASF189
 1882 097e 0B       		.byte	0xb
 1883 097f F502     		.2byte	0x2f5
 1884 0981 EF070000 		.4byte	0x7ef
 1885 0985 02       		.byte	0x2
 1886 0986 23       		.byte	0x23
 1887 0987 68       		.uleb128 0x68
 1888 0988 19       		.uleb128 0x19
 1889 0989 FA030000 		.4byte	.LASF190
 1890 098d 0B       		.byte	0xb
 1891 098e F602     		.2byte	0x2f6
 1892 0990 4F030000 		.4byte	0x34f
 1893 0994 02       		.byte	0x2
 1894 0995 23       		.byte	0x23
 1895 0996 70       		.uleb128 0x70
 1896 0997 0C       		.uleb128 0xc
 1897 0998 43535200 		.ascii	"CSR\000"
 1898 099c 0B       		.byte	0xb
 1899 099d F702     		.2byte	0x2f7
 1900 099f 4F030000 		.4byte	0x34f
 1901 09a3 02       		.byte	0x2
 1902 09a4 23       		.byte	0x23
 1903 09a5 74       		.uleb128 0x74
 1904 09a6 19       		.uleb128 0x19
 1905 09a7 28030000 		.4byte	.LASF191
 1906 09ab 0B       		.byte	0xb
 1907 09ac F802     		.2byte	0x2f8
 1908 09ae EF070000 		.4byte	0x7ef
 1909 09b2 02       		.byte	0x2
 1910 09b3 23       		.byte	0x23
 1911 09b4 78       		.uleb128 0x78
 1912 09b5 19       		.uleb128 0x19
 1913 09b6 01060000 		.4byte	.LASF192
 1914 09ba 0B       		.byte	0xb
 1915 09bb F902     		.2byte	0x2f9
 1916 09bd 4F030000 		.4byte	0x34f
 1917 09c1 03       		.byte	0x3
 1918 09c2 23       		.byte	0x23
 1919 09c3 8001     		.uleb128 0x80
 1920 09c5 19       		.uleb128 0x19
 1921 09c6 2D000000 		.4byte	.LASF193
 1922 09ca 0B       		.byte	0xb
 1923 09cb FA02     		.2byte	0x2fa
 1924 09cd 4F030000 		.4byte	0x34f
 1925 09d1 03       		.byte	0x3
 1926 09d2 23       		.byte	0x23
ARM GAS  C:\Users\DNIEL~1\AppData\Local\Temp\cciNsdV0.s 			page 35


 1927 09d3 8401     		.uleb128 0x84
 1928 09d5 00       		.byte	0
 1929 09d6 1A       		.uleb128 0x1a
 1930 09d7 79090000 		.4byte	.LASF194
 1931 09db 0B       		.byte	0xb
 1932 09dc FB02     		.2byte	0x2fb
 1933 09de 09080000 		.4byte	0x809
 1934 09e2 18       		.uleb128 0x18
 1935 09e3 1C       		.byte	0x1c
 1936 09e4 0B       		.byte	0xb
 1937 09e5 9303     		.2byte	0x393
 1938 09e7 BC0A0000 		.4byte	0xabc
 1939 09eb 0C       		.uleb128 0xc
 1940 09ec 535200   		.ascii	"SR\000"
 1941 09ef 0B       		.byte	0xb
 1942 09f0 9503     		.2byte	0x395
 1943 09f2 FF070000 		.4byte	0x7ff
 1944 09f6 02       		.byte	0x2
 1945 09f7 23       		.byte	0x23
 1946 09f8 00       		.uleb128 0
 1947 09f9 19       		.uleb128 0x19
 1948 09fa E3020000 		.4byte	.LASF172
 1949 09fe 0B       		.byte	0xb
 1950 09ff 9603     		.2byte	0x396
 1951 0a01 62000000 		.4byte	0x62
 1952 0a05 02       		.byte	0x2
 1953 0a06 23       		.byte	0x23
 1954 0a07 02       		.uleb128 0x2
 1955 0a08 0C       		.uleb128 0xc
 1956 0a09 445200   		.ascii	"DR\000"
 1957 0a0c 0B       		.byte	0xb
 1958 0a0d 9703     		.2byte	0x397
 1959 0a0f FF070000 		.4byte	0x7ff
 1960 0a13 02       		.byte	0x2
 1961 0a14 23       		.byte	0x23
 1962 0a15 04       		.uleb128 0x4
 1963 0a16 19       		.uleb128 0x19
 1964 0a17 ED020000 		.4byte	.LASF175
 1965 0a1b 0B       		.byte	0xb
 1966 0a1c 9803     		.2byte	0x398
 1967 0a1e 62000000 		.4byte	0x62
 1968 0a22 02       		.byte	0x2
 1969 0a23 23       		.byte	0x23
 1970 0a24 06       		.uleb128 0x6
 1971 0a25 0C       		.uleb128 0xc
 1972 0a26 42525200 		.ascii	"BRR\000"
 1973 0a2a 0B       		.byte	0xb
 1974 0a2b 9903     		.2byte	0x399
 1975 0a2d FF070000 		.4byte	0x7ff
 1976 0a31 02       		.byte	0x2
 1977 0a32 23       		.byte	0x23
 1978 0a33 08       		.uleb128 0x8
 1979 0a34 19       		.uleb128 0x19
 1980 0a35 57030000 		.4byte	.LASF179
 1981 0a39 0B       		.byte	0xb
 1982 0a3a 9A03     		.2byte	0x39a
 1983 0a3c 62000000 		.4byte	0x62
ARM GAS  C:\Users\DNIEL~1\AppData\Local\Temp\cciNsdV0.s 			page 36


 1984 0a40 02       		.byte	0x2
 1985 0a41 23       		.byte	0x23
 1986 0a42 0A       		.uleb128 0xa
 1987 0a43 0C       		.uleb128 0xc
 1988 0a44 43523100 		.ascii	"CR1\000"
 1989 0a48 0B       		.byte	0xb
 1990 0a49 9B03     		.2byte	0x39b
 1991 0a4b FF070000 		.4byte	0x7ff
 1992 0a4f 02       		.byte	0x2
 1993 0a50 23       		.byte	0x23
 1994 0a51 0C       		.uleb128 0xc
 1995 0a52 19       		.uleb128 0x19
 1996 0a53 61030000 		.4byte	.LASF182
 1997 0a57 0B       		.byte	0xb
 1998 0a58 9C03     		.2byte	0x39c
 1999 0a5a 62000000 		.4byte	0x62
 2000 0a5e 02       		.byte	0x2
 2001 0a5f 23       		.byte	0x23
 2002 0a60 0E       		.uleb128 0xe
 2003 0a61 0C       		.uleb128 0xc
 2004 0a62 43523200 		.ascii	"CR2\000"
 2005 0a66 0B       		.byte	0xb
 2006 0a67 9D03     		.2byte	0x39d
 2007 0a69 FF070000 		.4byte	0x7ff
 2008 0a6d 02       		.byte	0x2
 2009 0a6e 23       		.byte	0x23
 2010 0a6f 10       		.uleb128 0x10
 2011 0a70 19       		.uleb128 0x19
 2012 0a71 17030000 		.4byte	.LASF186
 2013 0a75 0B       		.byte	0xb
 2014 0a76 9E03     		.2byte	0x39e
 2015 0a78 62000000 		.4byte	0x62
 2016 0a7c 02       		.byte	0x2
 2017 0a7d 23       		.byte	0x23
 2018 0a7e 12       		.uleb128 0x12
 2019 0a7f 0C       		.uleb128 0xc
 2020 0a80 43523300 		.ascii	"CR3\000"
 2021 0a84 0B       		.byte	0xb
 2022 0a85 9F03     		.2byte	0x39f
 2023 0a87 FF070000 		.4byte	0x7ff
 2024 0a8b 02       		.byte	0x2
 2025 0a8c 23       		.byte	0x23
 2026 0a8d 14       		.uleb128 0x14
 2027 0a8e 19       		.uleb128 0x19
 2028 0a8f 75030000 		.4byte	.LASF189
 2029 0a93 0B       		.byte	0xb
 2030 0a94 A003     		.2byte	0x3a0
 2031 0a96 62000000 		.4byte	0x62
 2032 0a9a 02       		.byte	0x2
 2033 0a9b 23       		.byte	0x23
 2034 0a9c 16       		.uleb128 0x16
 2035 0a9d 19       		.uleb128 0x19
 2036 0a9e 6D000000 		.4byte	.LASF195
 2037 0aa2 0B       		.byte	0xb
 2038 0aa3 A103     		.2byte	0x3a1
 2039 0aa5 FF070000 		.4byte	0x7ff
 2040 0aa9 02       		.byte	0x2
ARM GAS  C:\Users\DNIEL~1\AppData\Local\Temp\cciNsdV0.s 			page 37


 2041 0aaa 23       		.byte	0x23
 2042 0aab 18       		.uleb128 0x18
 2043 0aac 19       		.uleb128 0x19
 2044 0aad 28030000 		.4byte	.LASF191
 2045 0ab1 0B       		.byte	0xb
 2046 0ab2 A203     		.2byte	0x3a2
 2047 0ab4 62000000 		.4byte	0x62
 2048 0ab8 02       		.byte	0x2
 2049 0ab9 23       		.byte	0x23
 2050 0aba 1A       		.uleb128 0x1a
 2051 0abb 00       		.byte	0
 2052 0abc 1A       		.uleb128 0x1a
 2053 0abd CA030000 		.4byte	.LASF196
 2054 0ac1 0B       		.byte	0xb
 2055 0ac2 A303     		.2byte	0x3a3
 2056 0ac4 E2090000 		.4byte	0x9e2
 2057 0ac8 11       		.uleb128 0x11
 2058 0ac9 01       		.byte	0x1
 2059 0aca DD000000 		.4byte	0xdd
 2060 0ace E20A0000 		.4byte	0xae2
 2061 0ad2 12       		.uleb128 0x12
 2062 0ad3 9C020000 		.4byte	0x29c
 2063 0ad7 12       		.uleb128 0x12
 2064 0ad8 49000000 		.4byte	0x49
 2065 0adc 12       		.uleb128 0x12
 2066 0add FE000000 		.4byte	0xfe
 2067 0ae1 00       		.byte	0
 2068 0ae2 09       		.uleb128 0x9
 2069 0ae3 04       		.byte	0x4
 2070 0ae4 C80A0000 		.4byte	0xac8
 2071 0ae8 11       		.uleb128 0x11
 2072 0ae9 01       		.byte	0x1
 2073 0aea DD000000 		.4byte	0xdd
 2074 0aee FD0A0000 		.4byte	0xafd
 2075 0af2 12       		.uleb128 0x12
 2076 0af3 9C020000 		.4byte	0x29c
 2077 0af7 12       		.uleb128 0x12
 2078 0af8 FE000000 		.4byte	0xfe
 2079 0afc 00       		.byte	0
 2080 0afd 09       		.uleb128 0x9
 2081 0afe 04       		.byte	0x4
 2082 0aff E80A0000 		.4byte	0xae8
 2083 0b03 11       		.uleb128 0x11
 2084 0b04 01       		.byte	0x1
 2085 0b05 30000000 		.4byte	0x30
 2086 0b09 220B0000 		.4byte	0xb22
 2087 0b0d 12       		.uleb128 0x12
 2088 0b0e 9C020000 		.4byte	0x29c
 2089 0b12 12       		.uleb128 0x12
 2090 0b13 68050000 		.4byte	0x568
 2091 0b17 12       		.uleb128 0x12
 2092 0b18 30000000 		.4byte	0x30
 2093 0b1c 12       		.uleb128 0x12
 2094 0b1d FE000000 		.4byte	0xfe
 2095 0b21 00       		.byte	0
 2096 0b22 09       		.uleb128 0x9
 2097 0b23 04       		.byte	0x4
ARM GAS  C:\Users\DNIEL~1\AppData\Local\Temp\cciNsdV0.s 			page 38


 2098 0b24 030B0000 		.4byte	0xb03
 2099 0b28 11       		.uleb128 0x11
 2100 0b29 01       		.byte	0x1
 2101 0b2a 30000000 		.4byte	0x30
 2102 0b2e 470B0000 		.4byte	0xb47
 2103 0b32 12       		.uleb128 0x12
 2104 0b33 9C020000 		.4byte	0x29c
 2105 0b37 12       		.uleb128 0x12
 2106 0b38 32050000 		.4byte	0x532
 2107 0b3c 12       		.uleb128 0x12
 2108 0b3d 30000000 		.4byte	0x30
 2109 0b41 12       		.uleb128 0x12
 2110 0b42 FE000000 		.4byte	0xfe
 2111 0b46 00       		.byte	0
 2112 0b47 09       		.uleb128 0x9
 2113 0b48 04       		.byte	0x4
 2114 0b49 280B0000 		.4byte	0xb28
 2115 0b4d 1B       		.uleb128 0x1b
 2116 0b4e 01       		.byte	0x1
 2117 0b4f 0C       		.byte	0xc
 2118 0b50 5D       		.byte	0x5d
 2119 0b51 680B0000 		.4byte	0xb68
 2120 0b55 15       		.uleb128 0x15
 2121 0b56 4D030000 		.4byte	.LASF197
 2122 0b5a 00       		.sleb128 0
 2123 0b5b 15       		.uleb128 0x15
 2124 0b5c F30A0000 		.4byte	.LASF198
 2125 0b60 01       		.sleb128 1
 2126 0b61 15       		.uleb128 0x15
 2127 0b62 49090000 		.4byte	.LASF199
 2128 0b66 02       		.sleb128 2
 2129 0b67 00       		.byte	0
 2130 0b68 03       		.uleb128 0x3
 2131 0b69 13090000 		.4byte	.LASF200
 2132 0b6d 0C       		.byte	0xc
 2133 0b6e 61       		.byte	0x61
 2134 0b6f 4D0B0000 		.4byte	0xb4d
 2135 0b73 03       		.uleb128 0x3
 2136 0b74 D7080000 		.4byte	.LASF201
 2137 0b78 0C       		.byte	0xc
 2138 0b79 66       		.byte	0x66
 2139 0b7a 7E0B0000 		.4byte	0xb7e
 2140 0b7e 05       		.uleb128 0x5
 2141 0b7f D7080000 		.4byte	.LASF201
 2142 0b83 78       		.byte	0x78
 2143 0b84 0C       		.byte	0xc
 2144 0b85 80       		.byte	0x80
 2145 0b86 F90B0000 		.4byte	0xbf9
 2146 0b8a 07       		.uleb128 0x7
 2147 0b8b 766D7400 		.ascii	"vmt\000"
 2148 0b8f 0C       		.byte	0xc
 2149 0b90 82       		.byte	0x82
 2150 0b91 C20C0000 		.4byte	0xcc2
 2151 0b95 02       		.byte	0x2
 2152 0b96 23       		.byte	0x23
 2153 0b97 00       		.uleb128 0
 2154 0b98 06       		.uleb128 0x6
ARM GAS  C:\Users\DNIEL~1\AppData\Local\Temp\cciNsdV0.s 			page 39


 2155 0b99 6A060000 		.4byte	.LASF202
 2156 0b9d 0C       		.byte	0xc
 2157 0b9e 83       		.byte	0x83
 2158 0b9f 19040000 		.4byte	0x419
 2159 0ba3 02       		.byte	0x2
 2160 0ba4 23       		.byte	0x23
 2161 0ba5 04       		.uleb128 0x4
 2162 0ba6 06       		.uleb128 0x6
 2163 0ba7 EE000000 		.4byte	.LASF203
 2164 0bab 0C       		.byte	0xc
 2165 0bac 83       		.byte	0x83
 2166 0bad 680B0000 		.4byte	0xb68
 2167 0bb1 02       		.byte	0x2
 2168 0bb2 23       		.byte	0x23
 2169 0bb3 08       		.uleb128 0x8
 2170 0bb4 06       		.uleb128 0x6
 2171 0bb5 98090000 		.4byte	.LASF204
 2172 0bb9 0C       		.byte	0xc
 2173 0bba 83       		.byte	0x83
 2174 0bbb 38050000 		.4byte	0x538
 2175 0bbf 02       		.byte	0x2
 2176 0bc0 23       		.byte	0x23
 2177 0bc1 0C       		.uleb128 0xc
 2178 0bc2 06       		.uleb128 0x6
 2179 0bc3 5E020000 		.4byte	.LASF205
 2180 0bc7 0C       		.byte	0xc
 2181 0bc8 83       		.byte	0x83
 2182 0bc9 43050000 		.4byte	0x543
 2183 0bcd 02       		.byte	0x2
 2184 0bce 23       		.byte	0x23
 2185 0bcf 30       		.uleb128 0x30
 2186 0bd0 07       		.uleb128 0x7
 2187 0bd1 696200   		.ascii	"ib\000"
 2188 0bd4 0C       		.byte	0xc
 2189 0bd5 83       		.byte	0x83
 2190 0bd6 CD0C0000 		.4byte	0xccd
 2191 0bda 02       		.byte	0x2
 2192 0bdb 23       		.byte	0x23
 2193 0bdc 54       		.uleb128 0x54
 2194 0bdd 07       		.uleb128 0x7
 2195 0bde 6F6200   		.ascii	"ob\000"
 2196 0be1 0C       		.byte	0xc
 2197 0be2 83       		.byte	0x83
 2198 0be3 CD0C0000 		.4byte	0xccd
 2199 0be7 02       		.byte	0x2
 2200 0be8 23       		.byte	0x23
 2201 0be9 64       		.uleb128 0x64
 2202 0bea 06       		.uleb128 0x6
 2203 0beb 99020000 		.4byte	.LASF206
 2204 0bef 0C       		.byte	0xc
 2205 0bf0 83       		.byte	0x83
 2206 0bf1 DD0C0000 		.4byte	0xcdd
 2207 0bf5 02       		.byte	0x2
 2208 0bf6 23       		.byte	0x23
 2209 0bf7 74       		.uleb128 0x74
 2210 0bf8 00       		.byte	0
 2211 0bf9 08       		.uleb128 0x8
ARM GAS  C:\Users\DNIEL~1\AppData\Local\Temp\cciNsdV0.s 			page 40


 2212 0bfa 0C       		.byte	0xc
 2213 0bfb 0D       		.byte	0xd
 2214 0bfc DB       		.byte	0xdb
 2215 0bfd 3A0C0000 		.4byte	0xc3a
 2216 0c01 06       		.uleb128 0x6
 2217 0c02 CE060000 		.4byte	.LASF207
 2218 0c06 0D       		.byte	0xd
 2219 0c07 DF       		.byte	0xdf
 2220 0c08 86000000 		.4byte	0x86
 2221 0c0c 02       		.byte	0x2
 2222 0c0d 23       		.byte	0x23
 2223 0c0e 00       		.uleb128 0
 2224 0c0f 06       		.uleb128 0x6
 2225 0c10 92050000 		.4byte	.LASF208
 2226 0c14 0D       		.byte	0xd
 2227 0c15 E3       		.byte	0xe3
 2228 0c16 62000000 		.4byte	0x62
 2229 0c1a 02       		.byte	0x2
 2230 0c1b 23       		.byte	0x23
 2231 0c1c 04       		.uleb128 0x4
 2232 0c1d 06       		.uleb128 0x6
 2233 0c1e 99050000 		.4byte	.LASF209
 2234 0c22 0D       		.byte	0xd
 2235 0c23 E7       		.byte	0xe7
 2236 0c24 62000000 		.4byte	0x62
 2237 0c28 02       		.byte	0x2
 2238 0c29 23       		.byte	0x23
 2239 0c2a 06       		.uleb128 0x6
 2240 0c2b 06       		.uleb128 0x6
 2241 0c2c A0050000 		.4byte	.LASF210
 2242 0c30 0D       		.byte	0xd
 2243 0c31 EB       		.byte	0xeb
 2244 0c32 62000000 		.4byte	0x62
 2245 0c36 02       		.byte	0x2
 2246 0c37 23       		.byte	0x23
 2247 0c38 08       		.uleb128 0x8
 2248 0c39 00       		.byte	0
 2249 0c3a 03       		.uleb128 0x3
 2250 0c3b 59000000 		.4byte	.LASF211
 2251 0c3f 0D       		.byte	0xd
 2252 0c40 EC       		.byte	0xec
 2253 0c41 F90B0000 		.4byte	0xbf9
 2254 0c45 05       		.uleb128 0x5
 2255 0c46 28050000 		.4byte	.LASF212
 2256 0c4a 20       		.byte	0x20
 2257 0c4b 0C       		.byte	0xc
 2258 0c4c 75       		.byte	0x75
 2259 0c4d C20C0000 		.4byte	0xcc2
 2260 0c51 06       		.uleb128 0x6
 2261 0c52 A7000000 		.4byte	.LASF213
 2262 0c56 0C       		.byte	0xc
 2263 0c57 76       		.byte	0x76
 2264 0c58 73050000 		.4byte	0x573
 2265 0c5c 02       		.byte	0x2
 2266 0c5d 23       		.byte	0x23
 2267 0c5e 00       		.uleb128 0
 2268 0c5f 06       		.uleb128 0x6
ARM GAS  C:\Users\DNIEL~1\AppData\Local\Temp\cciNsdV0.s 			page 41


 2269 0c60 89060000 		.4byte	.LASF214
 2270 0c64 0C       		.byte	0xc
 2271 0c65 76       		.byte	0x76
 2272 0c66 93050000 		.4byte	0x593
 2273 0c6a 02       		.byte	0x2
 2274 0c6b 23       		.byte	0x23
 2275 0c6c 04       		.uleb128 0x4
 2276 0c6d 07       		.uleb128 0x7
 2277 0c6e 70757400 		.ascii	"put\000"
 2278 0c72 0C       		.byte	0xc
 2279 0c73 76       		.byte	0x76
 2280 0c74 AE050000 		.4byte	0x5ae
 2281 0c78 02       		.byte	0x2
 2282 0c79 23       		.byte	0x23
 2283 0c7a 08       		.uleb128 0x8
 2284 0c7b 07       		.uleb128 0x7
 2285 0c7c 67657400 		.ascii	"get\000"
 2286 0c80 0C       		.byte	0xc
 2287 0c81 76       		.byte	0x76
 2288 0c82 71040000 		.4byte	0x471
 2289 0c86 02       		.byte	0x2
 2290 0c87 23       		.byte	0x23
 2291 0c88 0C       		.uleb128 0xc
 2292 0c89 06       		.uleb128 0x6
 2293 0c8a F4000000 		.4byte	.LASF215
 2294 0c8e 0C       		.byte	0xc
 2295 0c8f 76       		.byte	0x76
 2296 0c90 E20A0000 		.4byte	0xae2
 2297 0c94 02       		.byte	0x2
 2298 0c95 23       		.byte	0x23
 2299 0c96 10       		.uleb128 0x10
 2300 0c97 06       		.uleb128 0x6
 2301 0c98 C5030000 		.4byte	.LASF216
 2302 0c9c 0C       		.byte	0xc
 2303 0c9d 76       		.byte	0x76
 2304 0c9e FD0A0000 		.4byte	0xafd
 2305 0ca2 02       		.byte	0x2
 2306 0ca3 23       		.byte	0x23
 2307 0ca4 14       		.uleb128 0x14
 2308 0ca5 06       		.uleb128 0x6
 2309 0ca6 66000000 		.4byte	.LASF217
 2310 0caa 0C       		.byte	0xc
 2311 0cab 76       		.byte	0x76
 2312 0cac 220B0000 		.4byte	0xb22
 2313 0cb0 02       		.byte	0x2
 2314 0cb1 23       		.byte	0x23
 2315 0cb2 18       		.uleb128 0x18
 2316 0cb3 06       		.uleb128 0x6
 2317 0cb4 B9010000 		.4byte	.LASF218
 2318 0cb8 0C       		.byte	0xc
 2319 0cb9 76       		.byte	0x76
 2320 0cba 470B0000 		.4byte	0xb47
 2321 0cbe 02       		.byte	0x2
 2322 0cbf 23       		.byte	0x23
 2323 0cc0 1C       		.uleb128 0x1c
 2324 0cc1 00       		.byte	0
 2325 0cc2 09       		.uleb128 0x9
ARM GAS  C:\Users\DNIEL~1\AppData\Local\Temp\cciNsdV0.s 			page 42


 2326 0cc3 04       		.byte	0x4
 2327 0cc4 C80C0000 		.4byte	0xcc8
 2328 0cc8 10       		.uleb128 0x10
 2329 0cc9 450C0000 		.4byte	0xc45
 2330 0ccd 16       		.uleb128 0x16
 2331 0cce 49000000 		.4byte	0x49
 2332 0cd2 DD0C0000 		.4byte	0xcdd
 2333 0cd6 17       		.uleb128 0x17
 2334 0cd7 54030000 		.4byte	0x354
 2335 0cdb 0F       		.byte	0xf
 2336 0cdc 00       		.byte	0
 2337 0cdd 09       		.uleb128 0x9
 2338 0cde 04       		.byte	0x4
 2339 0cdf BC0A0000 		.4byte	0xabc
 2340 0ce3 09       		.uleb128 0x9
 2341 0ce4 04       		.byte	0x4
 2342 0ce5 43050000 		.4byte	0x543
 2343 0ce9 1C       		.uleb128 0x1c
 2344 0cea 38050000 		.4byte	.LASF219
 2345 0cee 01       		.byte	0x1
 2346 0cef F1       		.byte	0xf1
 2347 0cf0 01       		.byte	0x1
 2348 0cf1 01       		.byte	0x1
 2349 0cf2 000D0000 		.4byte	0xd00
 2350 0cf6 1D       		.uleb128 0x1d
 2351 0cf7 7500     		.ascii	"u\000"
 2352 0cf9 01       		.byte	0x1
 2353 0cfa F1       		.byte	0xf1
 2354 0cfb DD0C0000 		.4byte	0xcdd
 2355 0cff 00       		.byte	0
 2356 0d00 1C       		.uleb128 0x1c
 2357 0d01 73010000 		.4byte	.LASF220
 2358 0d05 01       		.byte	0x1
 2359 0d06 FE       		.byte	0xfe
 2360 0d07 01       		.byte	0x1
 2361 0d08 01       		.byte	0x1
 2362 0d09 4E0D0000 		.4byte	0xd4e
 2363 0d0d 1D       		.uleb128 0x1d
 2364 0d0e 73647000 		.ascii	"sdp\000"
 2365 0d12 01       		.byte	0x1
 2366 0d13 FE       		.byte	0xfe
 2367 0d14 4E0D0000 		.4byte	0xd4e
 2368 0d18 1D       		.uleb128 0x1d
 2369 0d19 737200   		.ascii	"sr\000"
 2370 0d1c 01       		.byte	0x1
 2371 0d1d FE       		.byte	0xfe
 2372 0d1e 62000000 		.4byte	0x62
 2373 0d22 1E       		.uleb128 0x1e
 2374 0d23 73747300 		.ascii	"sts\000"
 2375 0d27 01       		.byte	0x1
 2376 0d28 FF       		.byte	0xff
 2377 0d29 F3000000 		.4byte	0xf3
 2378 0d2d 1F       		.uleb128 0x1f
 2379 0d2e 3F0D0000 		.4byte	0xd3f
 2380 0d32 20       		.uleb128 0x20
 2381 0d33 746D7000 		.ascii	"tmp\000"
 2382 0d37 01       		.byte	0x1
ARM GAS  C:\Users\DNIEL~1\AppData\Local\Temp\cciNsdV0.s 			page 43


 2383 0d38 0901     		.2byte	0x109
 2384 0d3a 86000000 		.4byte	0x86
 2385 0d3e 00       		.byte	0
 2386 0d3f 21       		.uleb128 0x21
 2387 0d40 20       		.uleb128 0x20
 2388 0d41 746D7000 		.ascii	"tmp\000"
 2389 0d45 01       		.byte	0x1
 2390 0d46 0B01     		.2byte	0x10b
 2391 0d48 86000000 		.4byte	0x86
 2392 0d4c 00       		.byte	0
 2393 0d4d 00       		.byte	0
 2394 0d4e 09       		.uleb128 0x9
 2395 0d4f 04       		.byte	0x4
 2396 0d50 730B0000 		.4byte	0xb73
 2397 0d54 22       		.uleb128 0x22
 2398 0d55 03010000 		.4byte	.LASF221
 2399 0d59 01       		.byte	0x1
 2400 0d5a 1301     		.2byte	0x113
 2401 0d5c 01       		.byte	0x1
 2402 0d5d 01       		.byte	0x1
 2403 0d5e 330E0000 		.4byte	0xe33
 2404 0d62 23       		.uleb128 0x23
 2405 0d63 73647000 		.ascii	"sdp\000"
 2406 0d67 01       		.byte	0x1
 2407 0d68 1301     		.2byte	0x113
 2408 0d6a 4E0D0000 		.4byte	0xd4e
 2409 0d6e 20       		.uleb128 0x20
 2410 0d6f 7500     		.ascii	"u\000"
 2411 0d71 01       		.byte	0x1
 2412 0d72 1401     		.2byte	0x114
 2413 0d74 DD0C0000 		.4byte	0xcdd
 2414 0d78 20       		.uleb128 0x20
 2415 0d79 63723100 		.ascii	"cr1\000"
 2416 0d7d 01       		.byte	0x1
 2417 0d7e 1501     		.2byte	0x115
 2418 0d80 62000000 		.4byte	0x62
 2419 0d84 20       		.uleb128 0x20
 2420 0d85 737200   		.ascii	"sr\000"
 2421 0d88 01       		.byte	0x1
 2422 0d89 1601     		.2byte	0x116
 2423 0d8b 62000000 		.4byte	0x62
 2424 0d8f 20       		.uleb128 0x20
 2425 0d90 647200   		.ascii	"dr\000"
 2426 0d93 01       		.byte	0x1
 2427 0d94 1701     		.2byte	0x117
 2428 0d96 62000000 		.4byte	0x62
 2429 0d9a 1F       		.uleb128 0x1f
 2430 0d9b AC0D0000 		.4byte	0xdac
 2431 0d9f 20       		.uleb128 0x20
 2432 0da0 746D7000 		.ascii	"tmp\000"
 2433 0da4 01       		.byte	0x1
 2434 0da5 1E01     		.2byte	0x11e
 2435 0da7 86000000 		.4byte	0x86
 2436 0dab 00       		.byte	0
 2437 0dac 1F       		.uleb128 0x1f
 2438 0dad BE0D0000 		.4byte	0xdbe
 2439 0db1 20       		.uleb128 0x20
ARM GAS  C:\Users\DNIEL~1\AppData\Local\Temp\cciNsdV0.s 			page 44


 2440 0db2 746D7000 		.ascii	"tmp\000"
 2441 0db6 01       		.byte	0x1
 2442 0db7 2001     		.2byte	0x120
 2443 0db9 86000000 		.4byte	0x86
 2444 0dbd 00       		.byte	0
 2445 0dbe 1F       		.uleb128 0x1f
 2446 0dbf D00D0000 		.4byte	0xdd0
 2447 0dc3 20       		.uleb128 0x20
 2448 0dc4 746D7000 		.ascii	"tmp\000"
 2449 0dc8 01       		.byte	0x1
 2450 0dc9 2501     		.2byte	0x125
 2451 0dcb 86000000 		.4byte	0x86
 2452 0dcf 00       		.byte	0
 2453 0dd0 1F       		.uleb128 0x1f
 2454 0dd1 E20D0000 		.4byte	0xde2
 2455 0dd5 20       		.uleb128 0x20
 2456 0dd6 746D7000 		.ascii	"tmp\000"
 2457 0dda 01       		.byte	0x1
 2458 0ddb 2701     		.2byte	0x127
 2459 0ddd 86000000 		.4byte	0x86
 2460 0de1 00       		.byte	0
 2461 0de2 1F       		.uleb128 0x1f
 2462 0de3 120E0000 		.4byte	0xe12
 2463 0de7 20       		.uleb128 0x20
 2464 0de8 6200     		.ascii	"b\000"
 2465 0dea 01       		.byte	0x1
 2466 0deb 2B01     		.2byte	0x12b
 2467 0ded DD000000 		.4byte	0xdd
 2468 0df1 1F       		.uleb128 0x1f
 2469 0df2 030E0000 		.4byte	0xe03
 2470 0df6 20       		.uleb128 0x20
 2471 0df7 746D7000 		.ascii	"tmp\000"
 2472 0dfb 01       		.byte	0x1
 2473 0dfc 2C01     		.2byte	0x12c
 2474 0dfe 86000000 		.4byte	0x86
 2475 0e02 00       		.byte	0
 2476 0e03 21       		.uleb128 0x21
 2477 0e04 20       		.uleb128 0x20
 2478 0e05 746D7000 		.ascii	"tmp\000"
 2479 0e09 01       		.byte	0x1
 2480 0e0a 3401     		.2byte	0x134
 2481 0e0c 86000000 		.4byte	0x86
 2482 0e10 00       		.byte	0
 2483 0e11 00       		.byte	0
 2484 0e12 1F       		.uleb128 0x1f
 2485 0e13 240E0000 		.4byte	0xe24
 2486 0e17 20       		.uleb128 0x20
 2487 0e18 746D7000 		.ascii	"tmp\000"
 2488 0e1c 01       		.byte	0x1
 2489 0e1d 3801     		.2byte	0x138
 2490 0e1f 86000000 		.4byte	0x86
 2491 0e23 00       		.byte	0
 2492 0e24 21       		.uleb128 0x21
 2493 0e25 20       		.uleb128 0x20
 2494 0e26 746D7000 		.ascii	"tmp\000"
 2495 0e2a 01       		.byte	0x1
 2496 0e2b 3A01     		.2byte	0x13a
ARM GAS  C:\Users\DNIEL~1\AppData\Local\Temp\cciNsdV0.s 			page 45


 2497 0e2d 86000000 		.4byte	0x86
 2498 0e31 00       		.byte	0
 2499 0e32 00       		.byte	0
 2500 0e33 24       		.uleb128 0x24
 2501 0e34 71090000 		.4byte	.LASF237
 2502 0e38 01       		.byte	0x1
 2503 0e39 4301     		.2byte	0x143
 2504 0e3b 01       		.byte	0x1
 2505 0e3c 00000000 		.4byte	.LFB122
 2506 0e40 14000000 		.4byte	.LFE122
 2507 0e44 02       		.byte	0x2
 2508 0e45 7D       		.byte	0x7d
 2509 0e46 00       		.sleb128 0
 2510 0e47 01       		.byte	0x1
 2511 0e48 5C0E0000 		.4byte	0xe5c
 2512 0e4c 25       		.uleb128 0x25
 2513 0e4d 717000   		.ascii	"qp\000"
 2514 0e50 01       		.byte	0x1
 2515 0e51 4301     		.2byte	0x143
 2516 0e53 2C050000 		.4byte	0x52c
 2517 0e57 00000000 		.4byte	.LLST0
 2518 0e5b 00       		.byte	0
 2519 0e5c 26       		.uleb128 0x26
 2520 0e5d 01       		.byte	0x1
 2521 0e5e 2A0A0000 		.4byte	.LASF222
 2522 0e62 01       		.byte	0x1
 2523 0e63 7F01     		.2byte	0x17f
 2524 0e65 01       		.byte	0x1
 2525 0e66 00000000 		.4byte	.LFB123
 2526 0e6a 2C010000 		.4byte	.LFE123
 2527 0e6e 21000000 		.4byte	.LLST1
 2528 0e72 01       		.byte	0x1
 2529 0e73 95100000 		.4byte	0x1095
 2530 0e77 27       		.uleb128 0x27
 2531 0e78 540D0000 		.4byte	0xd54
 2532 0e7c 02000000 		.4byte	.LBB30
 2533 0e80 00000000 		.4byte	.Ldebug_ranges0+0
 2534 0e84 01       		.byte	0x1
 2535 0e85 8301     		.2byte	0x183
 2536 0e87 8A100000 		.4byte	0x108a
 2537 0e8b 28       		.uleb128 0x28
 2538 0e8c 18000000 		.4byte	.Ldebug_ranges0+0x18
 2539 0e90 29       		.uleb128 0x29
 2540 0e91 6E0D0000 		.4byte	0xd6e
 2541 0e95 01       		.byte	0x1
 2542 0e96 55       		.byte	0x55
 2543 0e97 29       		.uleb128 0x29
 2544 0e98 780D0000 		.4byte	0xd78
 2545 0e9c 01       		.byte	0x1
 2546 0e9d 56       		.byte	0x56
 2547 0e9e 2A       		.uleb128 0x2a
 2548 0e9f 840D0000 		.4byte	0xd84
 2549 0ea3 41000000 		.4byte	.LLST2
 2550 0ea7 2A       		.uleb128 0x2a
 2551 0ea8 8F0D0000 		.4byte	0xd8f
 2552 0eac 5F000000 		.4byte	.LLST3
 2553 0eb0 2B       		.uleb128 0x2b
ARM GAS  C:\Users\DNIEL~1\AppData\Local\Temp\cciNsdV0.s 			page 46


 2554 0eb1 620D0000 		.4byte	0xd62
 2555 0eb5 06       		.byte	0x6
 2556 0eb6 03       		.byte	0x3
 2557 0eb7 00000000 		.4byte	SD1
 2558 0ebb 9F       		.byte	0x9f
 2559 0ebc 2C       		.uleb128 0x2c
 2560 0ebd 44000000 		.4byte	.LBB32
 2561 0ec1 4A000000 		.4byte	.LBE32
 2562 0ec5 D30E0000 		.4byte	0xed3
 2563 0ec9 2A       		.uleb128 0x2a
 2564 0eca 170E0000 		.4byte	0xe17
 2565 0ece 93000000 		.4byte	.LLST4
 2566 0ed2 00       		.byte	0
 2567 0ed3 2C       		.uleb128 0x2c
 2568 0ed4 52000000 		.4byte	.LBB33
 2569 0ed8 58000000 		.4byte	.LBE33
 2570 0edc EA0E0000 		.4byte	0xeea
 2571 0ee0 2A       		.uleb128 0x2a
 2572 0ee1 250E0000 		.4byte	0xe25
 2573 0ee5 A6000000 		.4byte	.LLST5
 2574 0ee9 00       		.byte	0
 2575 0eea 2C       		.uleb128 0x2c
 2576 0eeb 74000000 		.4byte	.LBB34
 2577 0eef 7A000000 		.4byte	.LBE34
 2578 0ef3 010F0000 		.4byte	0xf01
 2579 0ef7 2A       		.uleb128 0x2a
 2580 0ef8 C30D0000 		.4byte	0xdc3
 2581 0efc B9000000 		.4byte	.LLST6
 2582 0f00 00       		.byte	0
 2583 0f01 2C       		.uleb128 0x2c
 2584 0f02 82000000 		.4byte	.LBB35
 2585 0f06 8A000000 		.4byte	.LBE35
 2586 0f0a 180F0000 		.4byte	0xf18
 2587 0f0e 2A       		.uleb128 0x2a
 2588 0f0f D50D0000 		.4byte	0xdd5
 2589 0f13 CC000000 		.4byte	.LLST7
 2590 0f17 00       		.byte	0
 2591 0f18 2C       		.uleb128 0x2c
 2592 0f19 8A000000 		.4byte	.LBB36
 2593 0f1d 90000000 		.4byte	.LBE36
 2594 0f21 2F0F0000 		.4byte	0xf2f
 2595 0f25 2A       		.uleb128 0x2a
 2596 0f26 9F0D0000 		.4byte	0xd9f
 2597 0f2a 00010000 		.4byte	.LLST8
 2598 0f2e 00       		.byte	0
 2599 0f2f 2C       		.uleb128 0x2c
 2600 0f30 9A000000 		.4byte	.LBB37
 2601 0f34 A0000000 		.4byte	.LBE37
 2602 0f38 460F0000 		.4byte	0xf46
 2603 0f3c 2A       		.uleb128 0x2a
 2604 0f3d B10D0000 		.4byte	0xdb1
 2605 0f41 13010000 		.4byte	.LLST9
 2606 0f45 00       		.byte	0
 2607 0f46 2D       		.uleb128 0x2d
 2608 0f47 000D0000 		.4byte	0xd00
 2609 0f4b AE000000 		.4byte	.LBB38
 2610 0f4f F0000000 		.4byte	.LBE38
ARM GAS  C:\Users\DNIEL~1\AppData\Local\Temp\cciNsdV0.s 			page 47


 2611 0f53 01       		.byte	0x1
 2612 0f54 1B01     		.2byte	0x11b
 2613 0f56 C10F0000 		.4byte	0xfc1
 2614 0f5a 2E       		.uleb128 0x2e
 2615 0f5b 180D0000 		.4byte	0xd18
 2616 0f5f 26010000 		.4byte	.LLST10
 2617 0f63 2F       		.uleb128 0x2f
 2618 0f64 AE000000 		.4byte	.LBB39
 2619 0f68 F0000000 		.4byte	.LBE39
 2620 0f6c 2A       		.uleb128 0x2a
 2621 0f6d 220D0000 		.4byte	0xd22
 2622 0f71 39010000 		.4byte	.LLST11
 2623 0f75 2E       		.uleb128 0x2e
 2624 0f76 0D0D0000 		.4byte	0xd0d
 2625 0f7a 58010000 		.4byte	.LLST12
 2626 0f7e 2C       		.uleb128 0x2c
 2627 0f7f DC000000 		.4byte	.LBB40
 2628 0f83 E2000000 		.4byte	.LBE40
 2629 0f87 950F0000 		.4byte	0xf95
 2630 0f8b 2A       		.uleb128 0x2a
 2631 0f8c 320D0000 		.4byte	0xd32
 2632 0f90 70010000 		.4byte	.LLST13
 2633 0f94 00       		.byte	0
 2634 0f95 2C       		.uleb128 0x2c
 2635 0f96 E8000000 		.4byte	.LBB41
 2636 0f9a F0000000 		.4byte	.LBE41
 2637 0f9e AC0F0000 		.4byte	0xfac
 2638 0fa2 2A       		.uleb128 0x2a
 2639 0fa3 400D0000 		.4byte	0xd40
 2640 0fa7 83010000 		.4byte	.LLST14
 2641 0fab 00       		.byte	0
 2642 0fac 30       		.uleb128 0x30
 2643 0fad E8000000 		.4byte	.LVL38
 2644 0fb1 16120000 		.4byte	0x1216
 2645 0fb5 31       		.uleb128 0x31
 2646 0fb6 01       		.byte	0x1
 2647 0fb7 50       		.byte	0x50
 2648 0fb8 05       		.byte	0x5
 2649 0fb9 03       		.byte	0x3
 2650 0fba 04000000 		.4byte	.LANCHOR0+4
 2651 0fbe 00       		.byte	0
 2652 0fbf 00       		.byte	0
 2653 0fc0 00       		.byte	0
 2654 0fc1 2C       		.uleb128 0x2c
 2655 0fc2 F0000000 		.4byte	.LBB42
 2656 0fc6 2C010000 		.4byte	.LBE42
 2657 0fca 35100000 		.4byte	0x1035
 2658 0fce 2A       		.uleb128 0x2a
 2659 0fcf E70D0000 		.4byte	0xde7
 2660 0fd3 AC010000 		.4byte	.LLST15
 2661 0fd7 2C       		.uleb128 0x2c
 2662 0fd8 F0000000 		.4byte	.LBB43
 2663 0fdc F6000000 		.4byte	.LBE43
 2664 0fe0 EE0F0000 		.4byte	0xfee
 2665 0fe4 2A       		.uleb128 0x2a
 2666 0fe5 F60D0000 		.4byte	0xdf6
 2667 0fe9 CA010000 		.4byte	.LLST16
ARM GAS  C:\Users\DNIEL~1\AppData\Local\Temp\cciNsdV0.s 			page 48


 2668 0fed 00       		.byte	0
 2669 0fee 2C       		.uleb128 0x2c
 2670 0fef 04010000 		.4byte	.LBB44
 2671 0ff3 0C010000 		.4byte	.LBE44
 2672 0ff7 05100000 		.4byte	0x1005
 2673 0ffb 2A       		.uleb128 0x2a
 2674 0ffc 040E0000 		.4byte	0xe04
 2675 1000 DD010000 		.4byte	.LLST17
 2676 1004 00       		.byte	0
 2677 1005 32       		.uleb128 0x32
 2678 1006 FC000000 		.4byte	.LVL43
 2679 100a 35120000 		.4byte	0x1235
 2680 100e 1C100000 		.4byte	0x101c
 2681 1012 31       		.uleb128 0x31
 2682 1013 01       		.byte	0x1
 2683 1014 50       		.byte	0x50
 2684 1015 05       		.byte	0x5
 2685 1016 03       		.byte	0x3
 2686 1017 30000000 		.4byte	.LANCHOR0+48
 2687 101b 00       		.byte	0
 2688 101c 30       		.uleb128 0x30
 2689 101d 14010000 		.4byte	.LVL48
 2690 1021 16120000 		.4byte	0x1216
 2691 1025 31       		.uleb128 0x31
 2692 1026 01       		.byte	0x1
 2693 1027 51       		.byte	0x51
 2694 1028 01       		.byte	0x1
 2695 1029 38       		.byte	0x38
 2696 102a 31       		.uleb128 0x31
 2697 102b 01       		.byte	0x1
 2698 102c 50       		.byte	0x50
 2699 102d 05       		.byte	0x5
 2700 102e 03       		.byte	0x3
 2701 102f 04000000 		.4byte	.LANCHOR0+4
 2702 1033 00       		.byte	0
 2703 1034 00       		.byte	0
 2704 1035 32       		.uleb128 0x32
 2705 1036 52000000 		.4byte	.LVL14
 2706 103a 16120000 		.4byte	0x1216
 2707 103e 51100000 		.4byte	0x1051
 2708 1042 31       		.uleb128 0x31
 2709 1043 01       		.byte	0x1
 2710 1044 51       		.byte	0x51
 2711 1045 01       		.byte	0x1
 2712 1046 40       		.byte	0x40
 2713 1047 31       		.uleb128 0x31
 2714 1048 01       		.byte	0x1
 2715 1049 50       		.byte	0x50
 2716 104a 05       		.byte	0x5
 2717 104b 03       		.byte	0x3
 2718 104c 04000000 		.4byte	.LANCHOR0+4
 2719 1050 00       		.byte	0
 2720 1051 32       		.uleb128 0x32
 2721 1052 82000000 		.4byte	.LVL22
 2722 1056 4E120000 		.4byte	0x124e
 2723 105a 6E100000 		.4byte	0x106e
 2724 105e 31       		.uleb128 0x31
ARM GAS  C:\Users\DNIEL~1\AppData\Local\Temp\cciNsdV0.s 			page 49


 2725 105f 01       		.byte	0x1
 2726 1060 51       		.byte	0x51
 2727 1061 02       		.byte	0x2
 2728 1062 77       		.byte	0x77
 2729 1063 00       		.sleb128 0
 2730 1064 31       		.uleb128 0x31
 2731 1065 01       		.byte	0x1
 2732 1066 50       		.byte	0x50
 2733 1067 05       		.byte	0x5
 2734 1068 03       		.byte	0x3
 2735 1069 00000000 		.4byte	.LANCHOR0
 2736 106d 00       		.byte	0
 2737 106e 30       		.uleb128 0x30
 2738 106f 9A000000 		.4byte	.LVL27
 2739 1073 16120000 		.4byte	0x1216
 2740 1077 31       		.uleb128 0x31
 2741 1078 01       		.byte	0x1
 2742 1079 51       		.byte	0x51
 2743 107a 03       		.byte	0x3
 2744 107b 0A       		.byte	0xa
 2745 107c 0002     		.2byte	0x200
 2746 107e 31       		.uleb128 0x31
 2747 107f 01       		.byte	0x1
 2748 1080 50       		.byte	0x50
 2749 1081 05       		.byte	0x5
 2750 1082 03       		.byte	0x3
 2751 1083 04000000 		.4byte	.LANCHOR0+4
 2752 1087 00       		.byte	0
 2753 1088 00       		.byte	0
 2754 1089 00       		.byte	0
 2755 108a 33       		.uleb128 0x33
 2756 108b 74000000 		.4byte	.LVL19
 2757 108f 01       		.byte	0x1
 2758 1090 68120000 		.4byte	0x1268
 2759 1094 00       		.byte	0
 2760 1095 26       		.uleb128 0x26
 2761 1096 01       		.byte	0x1
 2762 1097 60050000 		.4byte	.LASF223
 2763 109b 01       		.byte	0x1
 2764 109c F101     		.2byte	0x1f1
 2765 109e 01       		.byte	0x1
 2766 109f 00000000 		.4byte	.LFB124
 2767 10a3 26000000 		.4byte	.LFE124
 2768 10a7 06020000 		.4byte	.LLST18
 2769 10ab 01       		.byte	0x1
 2770 10ac CF100000 		.4byte	0x10cf
 2771 10b0 30       		.uleb128 0x30
 2772 10b1 1A000000 		.4byte	.LVL49
 2773 10b5 73120000 		.4byte	0x1273
 2774 10b9 31       		.uleb128 0x31
 2775 10ba 01       		.byte	0x1
 2776 10bb 52       		.byte	0x52
 2777 10bc 05       		.byte	0x5
 2778 10bd 03       		.byte	0x3
 2779 10be 00000000 		.4byte	notify1
 2780 10c2 31       		.uleb128 0x31
 2781 10c3 01       		.byte	0x1
ARM GAS  C:\Users\DNIEL~1\AppData\Local\Temp\cciNsdV0.s 			page 50


 2782 10c4 51       		.byte	0x51
 2783 10c5 01       		.byte	0x1
 2784 10c6 30       		.byte	0x30
 2785 10c7 31       		.uleb128 0x31
 2786 10c8 01       		.byte	0x1
 2787 10c9 50       		.byte	0x50
 2788 10ca 02       		.byte	0x2
 2789 10cb 74       		.byte	0x74
 2790 10cc 00       		.sleb128 0
 2791 10cd 00       		.byte	0
 2792 10ce 00       		.byte	0
 2793 10cf 1C       		.uleb128 0x1c
 2794 10d0 0C080000 		.4byte	.LASF224
 2795 10d4 01       		.byte	0x1
 2796 10d5 D3       		.byte	0xd3
 2797 10d6 01       		.byte	0x1
 2798 10d7 01       		.byte	0x1
 2799 10d8 FC100000 		.4byte	0x10fc
 2800 10dc 1D       		.uleb128 0x1d
 2801 10dd 73647000 		.ascii	"sdp\000"
 2802 10e1 01       		.byte	0x1
 2803 10e2 D3       		.byte	0xd3
 2804 10e3 4E0D0000 		.4byte	0xd4e
 2805 10e7 34       		.uleb128 0x34
 2806 10e8 E7000000 		.4byte	.LASF225
 2807 10ec 01       		.byte	0x1
 2808 10ed D3       		.byte	0xd3
 2809 10ee FC100000 		.4byte	0x10fc
 2810 10f2 1E       		.uleb128 0x1e
 2811 10f3 7500     		.ascii	"u\000"
 2812 10f5 01       		.byte	0x1
 2813 10f6 D4       		.byte	0xd4
 2814 10f7 DD0C0000 		.4byte	0xcdd
 2815 10fb 00       		.byte	0
 2816 10fc 09       		.uleb128 0x9
 2817 10fd 04       		.byte	0x4
 2818 10fe 02110000 		.4byte	0x1102
 2819 1102 10       		.uleb128 0x10
 2820 1103 3A0C0000 		.4byte	0xc3a
 2821 1107 26       		.uleb128 0x26
 2822 1108 01       		.byte	0x1
 2823 1109 BF010000 		.4byte	.LASF226
 2824 110d 01       		.byte	0x1
 2825 110e 1C02     		.2byte	0x21c
 2826 1110 01       		.byte	0x1
 2827 1111 00000000 		.4byte	.LFB125
 2828 1115 A4000000 		.4byte	.LFE125
 2829 1119 26020000 		.4byte	.LLST19
 2830 111d 01       		.byte	0x1
 2831 111e 8B110000 		.4byte	0x118b
 2832 1122 25       		.uleb128 0x25
 2833 1123 73647000 		.ascii	"sdp\000"
 2834 1127 01       		.byte	0x1
 2835 1128 1C02     		.2byte	0x21c
 2836 112a 4E0D0000 		.4byte	0xd4e
 2837 112e 46020000 		.4byte	.LLST20
 2838 1132 35       		.uleb128 0x35
ARM GAS  C:\Users\DNIEL~1\AppData\Local\Temp\cciNsdV0.s 			page 51


 2839 1133 E7000000 		.4byte	.LASF225
 2840 1137 01       		.byte	0x1
 2841 1138 1C02     		.2byte	0x21c
 2842 113a FC100000 		.4byte	0x10fc
 2843 113e 7A020000 		.4byte	.LLST21
 2844 1142 27       		.uleb128 0x27
 2845 1143 CF100000 		.4byte	0x10cf
 2846 1147 12000000 		.4byte	.LBB49
 2847 114b 30000000 		.4byte	.Ldebug_ranges0+0x30
 2848 114f 01       		.byte	0x1
 2849 1150 4D02     		.2byte	0x24d
 2850 1152 74110000 		.4byte	0x1174
 2851 1156 36       		.uleb128 0x36
 2852 1157 E7100000 		.4byte	0x10e7
 2853 115b 2E       		.uleb128 0x2e
 2854 115c DC100000 		.4byte	0x10dc
 2855 1160 B4020000 		.4byte	.LLST22
 2856 1164 28       		.uleb128 0x28
 2857 1165 48000000 		.4byte	.Ldebug_ranges0+0x48
 2858 1169 2A       		.uleb128 0x2a
 2859 116a F2100000 		.4byte	0x10f2
 2860 116e D2020000 		.4byte	.LLST23
 2861 1172 00       		.byte	0
 2862 1173 00       		.byte	0
 2863 1174 30       		.uleb128 0x30
 2864 1175 88000000 		.4byte	.LVL57
 2865 1179 92120000 		.4byte	0x1292
 2866 117d 31       		.uleb128 0x31
 2867 117e 01       		.byte	0x1
 2868 117f 51       		.byte	0x51
 2869 1180 02       		.byte	0x2
 2870 1181 08       		.byte	0x8
 2871 1182 C0       		.byte	0xc0
 2872 1183 31       		.uleb128 0x31
 2873 1184 01       		.byte	0x1
 2874 1185 50       		.byte	0x50
 2875 1186 02       		.byte	0x2
 2876 1187 08       		.byte	0x8
 2877 1188 25       		.byte	0x25
 2878 1189 00       		.byte	0
 2879 118a 00       		.byte	0
 2880 118b 37       		.uleb128 0x37
 2881 118c 01       		.byte	0x1
 2882 118d 800A0000 		.4byte	.LASF227
 2883 1191 01       		.byte	0x1
 2884 1192 5902     		.2byte	0x259
 2885 1194 01       		.byte	0x1
 2886 1195 00000000 		.4byte	.LFB126
 2887 1199 34000000 		.4byte	.LFE126
 2888 119d 02       		.byte	0x2
 2889 119e 7D       		.byte	0x7d
 2890 119f 00       		.sleb128 0
 2891 11a0 01       		.byte	0x1
 2892 11a1 E5110000 		.4byte	0x11e5
 2893 11a5 25       		.uleb128 0x25
 2894 11a6 73647000 		.ascii	"sdp\000"
 2895 11aa 01       		.byte	0x1
ARM GAS  C:\Users\DNIEL~1\AppData\Local\Temp\cciNsdV0.s 			page 52


 2896 11ab 5902     		.2byte	0x259
 2897 11ad 4E0D0000 		.4byte	0xd4e
 2898 11b1 FD020000 		.4byte	.LLST24
 2899 11b5 27       		.uleb128 0x27
 2900 11b6 E90C0000 		.4byte	0xce9
 2901 11ba 0C000000 		.4byte	.LBB53
 2902 11be 60000000 		.4byte	.Ldebug_ranges0+0x60
 2903 11c2 01       		.byte	0x1
 2904 11c3 5C02     		.2byte	0x25c
 2905 11c5 D3110000 		.4byte	0x11d3
 2906 11c9 2E       		.uleb128 0x2e
 2907 11ca F60C0000 		.4byte	0xcf6
 2908 11ce 1E030000 		.4byte	.LLST25
 2909 11d2 00       		.byte	0
 2910 11d3 38       		.uleb128 0x38
 2911 11d4 2E000000 		.4byte	.LVL63
 2912 11d8 01       		.byte	0x1
 2913 11d9 AC120000 		.4byte	0x12ac
 2914 11dd 31       		.uleb128 0x31
 2915 11de 01       		.byte	0x1
 2916 11df 50       		.byte	0x50
 2917 11e0 02       		.byte	0x2
 2918 11e1 08       		.byte	0x8
 2919 11e2 25       		.byte	0x25
 2920 11e3 00       		.byte	0
 2921 11e4 00       		.byte	0
 2922 11e5 39       		.uleb128 0x39
 2923 11e6 12020000 		.4byte	.LASF238
 2924 11ea 01       		.byte	0x1
 2925 11eb 49       		.byte	0x49
 2926 11ec 02110000 		.4byte	0x1102
 2927 11f0 05       		.byte	0x5
 2928 11f1 03       		.byte	0x3
 2929 11f2 00000000 		.4byte	default_config
 2930 11f6 3A       		.uleb128 0x3a
 2931 11f7 CB090000 		.4byte	.LASF228
 2932 11fb 0F       		.byte	0xf
 2933 11fc 9806     		.2byte	0x698
 2934 11fe 04080000 		.4byte	0x804
 2935 1202 01       		.byte	0x1
 2936 1203 01       		.byte	0x1
 2937 1204 3B       		.uleb128 0x3b
 2938 1205 53443100 		.ascii	"SD1\000"
 2939 1209 01       		.byte	0x1
 2940 120a 28       		.byte	0x28
 2941 120b 730B0000 		.4byte	0xb73
 2942 120f 01       		.byte	0x1
 2943 1210 05       		.byte	0x5
 2944 1211 03       		.byte	0x3
 2945 1212 00000000 		.4byte	SD1
 2946 1216 3C       		.uleb128 0x3c
 2947 1217 01       		.byte	0x1
 2948 1218 A4070000 		.4byte	.LASF229
 2949 121c 09       		.byte	0x9
 2950 121d B3       		.byte	0xb3
 2951 121e 01       		.byte	0x1
 2952 121f 01       		.byte	0x1
ARM GAS  C:\Users\DNIEL~1\AppData\Local\Temp\cciNsdV0.s 			page 53


 2953 1220 2F120000 		.4byte	0x122f
 2954 1224 12       		.uleb128 0x12
 2955 1225 2F120000 		.4byte	0x122f
 2956 1229 12       		.uleb128 0x12
 2957 122a F3000000 		.4byte	0xf3
 2958 122e 00       		.byte	0
 2959 122f 09       		.uleb128 0x9
 2960 1230 04       		.byte	0x4
 2961 1231 19040000 		.4byte	0x419
 2962 1235 3D       		.uleb128 0x3d
 2963 1236 01       		.byte	0x1
 2964 1237 C5060000 		.4byte	.LASF239
 2965 123b 0A       		.byte	0xa
 2966 123c 6701     		.2byte	0x167
 2967 123e 01       		.byte	0x1
 2968 123f DD000000 		.4byte	0xdd
 2969 1243 01       		.byte	0x1
 2970 1244 4E120000 		.4byte	0x124e
 2971 1248 12       		.uleb128 0x12
 2972 1249 E30C0000 		.4byte	0xce3
 2973 124d 00       		.byte	0
 2974 124e 3E       		.uleb128 0x3e
 2975 124f 01       		.byte	0x1
 2976 1250 AD050000 		.4byte	.LASF230
 2977 1254 0C       		.byte	0xc
 2978 1255 3401     		.2byte	0x134
 2979 1257 01       		.byte	0x1
 2980 1258 01       		.byte	0x1
 2981 1259 68120000 		.4byte	0x1268
 2982 125d 12       		.uleb128 0x12
 2983 125e 4E0D0000 		.4byte	0xd4e
 2984 1262 12       		.uleb128 0x12
 2985 1263 49000000 		.4byte	0x49
 2986 1267 00       		.byte	0
 2987 1268 3F       		.uleb128 0x3f
 2988 1269 01       		.byte	0x1
 2989 126a D7060000 		.4byte	.LASF240
 2990 126e 07       		.byte	0x7
 2991 126f FC01     		.2byte	0x1fc
 2992 1271 01       		.byte	0x1
 2993 1272 01       		.byte	0x1
 2994 1273 3E       		.uleb128 0x3e
 2995 1274 01       		.byte	0x1
 2996 1275 DE010000 		.4byte	.LASF231
 2997 1279 0C       		.byte	0xc
 2998 127a 3101     		.2byte	0x131
 2999 127c 01       		.byte	0x1
 3000 127d 01       		.byte	0x1
 3001 127e 92120000 		.4byte	0x1292
 3002 1282 12       		.uleb128 0x12
 3003 1283 4E0D0000 		.4byte	0xd4e
 3004 1287 12       		.uleb128 0x12
 3005 1288 0F050000 		.4byte	0x50f
 3006 128c 12       		.uleb128 0x12
 3007 128d 0F050000 		.4byte	0x50f
 3008 1291 00       		.byte	0
 3009 1292 3E       		.uleb128 0x3e
ARM GAS  C:\Users\DNIEL~1\AppData\Local\Temp\cciNsdV0.s 			page 54


 3010 1293 01       		.byte	0x1
 3011 1294 100A0000 		.4byte	.LASF232
 3012 1298 0E       		.byte	0xe
 3013 1299 1C01     		.2byte	0x11c
 3014 129b 01       		.byte	0x1
 3015 129c 01       		.byte	0x1
 3016 129d AC120000 		.4byte	0x12ac
 3017 12a1 12       		.uleb128 0x12
 3018 12a2 86000000 		.4byte	0x86
 3019 12a6 12       		.uleb128 0x12
 3020 12a7 86000000 		.4byte	0x86
 3021 12ab 00       		.byte	0
 3022 12ac 40       		.uleb128 0x40
 3023 12ad 01       		.byte	0x1
 3024 12ae C2070000 		.4byte	.LASF241
 3025 12b2 0E       		.byte	0xe
 3026 12b3 1D01     		.2byte	0x11d
 3027 12b5 01       		.byte	0x1
 3028 12b6 01       		.byte	0x1
 3029 12b7 12       		.uleb128 0x12
 3030 12b8 86000000 		.4byte	0x86
 3031 12bc 00       		.byte	0
 3032 12bd 00       		.byte	0
 3033              		.section	.debug_abbrev,"",%progbits
 3034              	.Ldebug_abbrev0:
 3035 0000 01       		.uleb128 0x1
 3036 0001 11       		.uleb128 0x11
 3037 0002 01       		.byte	0x1
 3038 0003 25       		.uleb128 0x25
 3039 0004 0E       		.uleb128 0xe
 3040 0005 13       		.uleb128 0x13
 3041 0006 0B       		.uleb128 0xb
 3042 0007 03       		.uleb128 0x3
 3043 0008 0E       		.uleb128 0xe
 3044 0009 1B       		.uleb128 0x1b
 3045 000a 0E       		.uleb128 0xe
 3046 000b 55       		.uleb128 0x55
 3047 000c 06       		.uleb128 0x6
 3048 000d 11       		.uleb128 0x11
 3049 000e 01       		.uleb128 0x1
 3050 000f 52       		.uleb128 0x52
 3051 0010 01       		.uleb128 0x1
 3052 0011 10       		.uleb128 0x10
 3053 0012 06       		.uleb128 0x6
 3054 0013 00       		.byte	0
 3055 0014 00       		.byte	0
 3056 0015 02       		.uleb128 0x2
 3057 0016 24       		.uleb128 0x24
 3058 0017 00       		.byte	0
 3059 0018 0B       		.uleb128 0xb
 3060 0019 0B       		.uleb128 0xb
 3061 001a 3E       		.uleb128 0x3e
 3062 001b 0B       		.uleb128 0xb
 3063 001c 03       		.uleb128 0x3
 3064 001d 08       		.uleb128 0x8
 3065 001e 00       		.byte	0
 3066 001f 00       		.byte	0
ARM GAS  C:\Users\DNIEL~1\AppData\Local\Temp\cciNsdV0.s 			page 55


 3067 0020 03       		.uleb128 0x3
 3068 0021 16       		.uleb128 0x16
 3069 0022 00       		.byte	0
 3070 0023 03       		.uleb128 0x3
 3071 0024 0E       		.uleb128 0xe
 3072 0025 3A       		.uleb128 0x3a
 3073 0026 0B       		.uleb128 0xb
 3074 0027 3B       		.uleb128 0x3b
 3075 0028 0B       		.uleb128 0xb
 3076 0029 49       		.uleb128 0x49
 3077 002a 13       		.uleb128 0x13
 3078 002b 00       		.byte	0
 3079 002c 00       		.byte	0
 3080 002d 04       		.uleb128 0x4
 3081 002e 24       		.uleb128 0x24
 3082 002f 00       		.byte	0
 3083 0030 0B       		.uleb128 0xb
 3084 0031 0B       		.uleb128 0xb
 3085 0032 3E       		.uleb128 0x3e
 3086 0033 0B       		.uleb128 0xb
 3087 0034 03       		.uleb128 0x3
 3088 0035 0E       		.uleb128 0xe
 3089 0036 00       		.byte	0
 3090 0037 00       		.byte	0
 3091 0038 05       		.uleb128 0x5
 3092 0039 13       		.uleb128 0x13
 3093 003a 01       		.byte	0x1
 3094 003b 03       		.uleb128 0x3
 3095 003c 0E       		.uleb128 0xe
 3096 003d 0B       		.uleb128 0xb
 3097 003e 0B       		.uleb128 0xb
 3098 003f 3A       		.uleb128 0x3a
 3099 0040 0B       		.uleb128 0xb
 3100 0041 3B       		.uleb128 0x3b
 3101 0042 0B       		.uleb128 0xb
 3102 0043 01       		.uleb128 0x1
 3103 0044 13       		.uleb128 0x13
 3104 0045 00       		.byte	0
 3105 0046 00       		.byte	0
 3106 0047 06       		.uleb128 0x6
 3107 0048 0D       		.uleb128 0xd
 3108 0049 00       		.byte	0
 3109 004a 03       		.uleb128 0x3
 3110 004b 0E       		.uleb128 0xe
 3111 004c 3A       		.uleb128 0x3a
 3112 004d 0B       		.uleb128 0xb
 3113 004e 3B       		.uleb128 0x3b
 3114 004f 0B       		.uleb128 0xb
 3115 0050 49       		.uleb128 0x49
 3116 0051 13       		.uleb128 0x13
 3117 0052 38       		.uleb128 0x38
 3118 0053 0A       		.uleb128 0xa
 3119 0054 00       		.byte	0
 3120 0055 00       		.byte	0
 3121 0056 07       		.uleb128 0x7
 3122 0057 0D       		.uleb128 0xd
 3123 0058 00       		.byte	0
ARM GAS  C:\Users\DNIEL~1\AppData\Local\Temp\cciNsdV0.s 			page 56


 3124 0059 03       		.uleb128 0x3
 3125 005a 08       		.uleb128 0x8
 3126 005b 3A       		.uleb128 0x3a
 3127 005c 0B       		.uleb128 0xb
 3128 005d 3B       		.uleb128 0x3b
 3129 005e 0B       		.uleb128 0xb
 3130 005f 49       		.uleb128 0x49
 3131 0060 13       		.uleb128 0x13
 3132 0061 38       		.uleb128 0x38
 3133 0062 0A       		.uleb128 0xa
 3134 0063 00       		.byte	0
 3135 0064 00       		.byte	0
 3136 0065 08       		.uleb128 0x8
 3137 0066 13       		.uleb128 0x13
 3138 0067 01       		.byte	0x1
 3139 0068 0B       		.uleb128 0xb
 3140 0069 0B       		.uleb128 0xb
 3141 006a 3A       		.uleb128 0x3a
 3142 006b 0B       		.uleb128 0xb
 3143 006c 3B       		.uleb128 0x3b
 3144 006d 0B       		.uleb128 0xb
 3145 006e 01       		.uleb128 0x1
 3146 006f 13       		.uleb128 0x13
 3147 0070 00       		.byte	0
 3148 0071 00       		.byte	0
 3149 0072 09       		.uleb128 0x9
 3150 0073 0F       		.uleb128 0xf
 3151 0074 00       		.byte	0
 3152 0075 0B       		.uleb128 0xb
 3153 0076 0B       		.uleb128 0xb
 3154 0077 49       		.uleb128 0x49
 3155 0078 13       		.uleb128 0x13
 3156 0079 00       		.byte	0
 3157 007a 00       		.byte	0
 3158 007b 0A       		.uleb128 0xa
 3159 007c 0F       		.uleb128 0xf
 3160 007d 00       		.byte	0
 3161 007e 0B       		.uleb128 0xb
 3162 007f 0B       		.uleb128 0xb
 3163 0080 00       		.byte	0
 3164 0081 00       		.byte	0
 3165 0082 0B       		.uleb128 0xb
 3166 0083 13       		.uleb128 0x13
 3167 0084 01       		.byte	0x1
 3168 0085 03       		.uleb128 0x3
 3169 0086 0E       		.uleb128 0xe
 3170 0087 0B       		.uleb128 0xb
 3171 0088 0B       		.uleb128 0xb
 3172 0089 3A       		.uleb128 0x3a
 3173 008a 0B       		.uleb128 0xb
 3174 008b 3B       		.uleb128 0x3b
 3175 008c 05       		.uleb128 0x5
 3176 008d 01       		.uleb128 0x1
 3177 008e 13       		.uleb128 0x13
 3178 008f 00       		.byte	0
 3179 0090 00       		.byte	0
 3180 0091 0C       		.uleb128 0xc
ARM GAS  C:\Users\DNIEL~1\AppData\Local\Temp\cciNsdV0.s 			page 57


 3181 0092 0D       		.uleb128 0xd
 3182 0093 00       		.byte	0
 3183 0094 03       		.uleb128 0x3
 3184 0095 08       		.uleb128 0x8
 3185 0096 3A       		.uleb128 0x3a
 3186 0097 0B       		.uleb128 0xb
 3187 0098 3B       		.uleb128 0x3b
 3188 0099 05       		.uleb128 0x5
 3189 009a 49       		.uleb128 0x49
 3190 009b 13       		.uleb128 0x13
 3191 009c 38       		.uleb128 0x38
 3192 009d 0A       		.uleb128 0xa
 3193 009e 00       		.byte	0
 3194 009f 00       		.byte	0
 3195 00a0 0D       		.uleb128 0xd
 3196 00a1 35       		.uleb128 0x35
 3197 00a2 00       		.byte	0
 3198 00a3 49       		.uleb128 0x49
 3199 00a4 13       		.uleb128 0x13
 3200 00a5 00       		.byte	0
 3201 00a6 00       		.byte	0
 3202 00a7 0E       		.uleb128 0xe
 3203 00a8 17       		.uleb128 0x17
 3204 00a9 01       		.byte	0x1
 3205 00aa 0B       		.uleb128 0xb
 3206 00ab 0B       		.uleb128 0xb
 3207 00ac 3A       		.uleb128 0x3a
 3208 00ad 0B       		.uleb128 0xb
 3209 00ae 3B       		.uleb128 0x3b
 3210 00af 0B       		.uleb128 0xb
 3211 00b0 01       		.uleb128 0x1
 3212 00b1 13       		.uleb128 0x13
 3213 00b2 00       		.byte	0
 3214 00b3 00       		.byte	0
 3215 00b4 0F       		.uleb128 0xf
 3216 00b5 0D       		.uleb128 0xd
 3217 00b6 00       		.byte	0
 3218 00b7 03       		.uleb128 0x3
 3219 00b8 0E       		.uleb128 0xe
 3220 00b9 3A       		.uleb128 0x3a
 3221 00ba 0B       		.uleb128 0xb
 3222 00bb 3B       		.uleb128 0x3b
 3223 00bc 0B       		.uleb128 0xb
 3224 00bd 49       		.uleb128 0x49
 3225 00be 13       		.uleb128 0x13
 3226 00bf 00       		.byte	0
 3227 00c0 00       		.byte	0
 3228 00c1 10       		.uleb128 0x10
 3229 00c2 26       		.uleb128 0x26
 3230 00c3 00       		.byte	0
 3231 00c4 49       		.uleb128 0x49
 3232 00c5 13       		.uleb128 0x13
 3233 00c6 00       		.byte	0
 3234 00c7 00       		.byte	0
 3235 00c8 11       		.uleb128 0x11
 3236 00c9 15       		.uleb128 0x15
 3237 00ca 01       		.byte	0x1
ARM GAS  C:\Users\DNIEL~1\AppData\Local\Temp\cciNsdV0.s 			page 58


 3238 00cb 27       		.uleb128 0x27
 3239 00cc 0C       		.uleb128 0xc
 3240 00cd 49       		.uleb128 0x49
 3241 00ce 13       		.uleb128 0x13
 3242 00cf 01       		.uleb128 0x1
 3243 00d0 13       		.uleb128 0x13
 3244 00d1 00       		.byte	0
 3245 00d2 00       		.byte	0
 3246 00d3 12       		.uleb128 0x12
 3247 00d4 05       		.uleb128 0x5
 3248 00d5 00       		.byte	0
 3249 00d6 49       		.uleb128 0x49
 3250 00d7 13       		.uleb128 0x13
 3251 00d8 00       		.byte	0
 3252 00d9 00       		.byte	0
 3253 00da 13       		.uleb128 0x13
 3254 00db 15       		.uleb128 0x15
 3255 00dc 01       		.byte	0x1
 3256 00dd 27       		.uleb128 0x27
 3257 00de 0C       		.uleb128 0xc
 3258 00df 01       		.uleb128 0x1
 3259 00e0 13       		.uleb128 0x13
 3260 00e1 00       		.byte	0
 3261 00e2 00       		.byte	0
 3262 00e3 14       		.uleb128 0x14
 3263 00e4 04       		.uleb128 0x4
 3264 00e5 01       		.byte	0x1
 3265 00e6 03       		.uleb128 0x3
 3266 00e7 0E       		.uleb128 0xe
 3267 00e8 0B       		.uleb128 0xb
 3268 00e9 0B       		.uleb128 0xb
 3269 00ea 3A       		.uleb128 0x3a
 3270 00eb 0B       		.uleb128 0xb
 3271 00ec 3B       		.uleb128 0x3b
 3272 00ed 0B       		.uleb128 0xb
 3273 00ee 01       		.uleb128 0x1
 3274 00ef 13       		.uleb128 0x13
 3275 00f0 00       		.byte	0
 3276 00f1 00       		.byte	0
 3277 00f2 15       		.uleb128 0x15
 3278 00f3 28       		.uleb128 0x28
 3279 00f4 00       		.byte	0
 3280 00f5 03       		.uleb128 0x3
 3281 00f6 0E       		.uleb128 0xe
 3282 00f7 1C       		.uleb128 0x1c
 3283 00f8 0D       		.uleb128 0xd
 3284 00f9 00       		.byte	0
 3285 00fa 00       		.byte	0
 3286 00fb 16       		.uleb128 0x16
 3287 00fc 01       		.uleb128 0x1
 3288 00fd 01       		.byte	0x1
 3289 00fe 49       		.uleb128 0x49
 3290 00ff 13       		.uleb128 0x13
 3291 0100 01       		.uleb128 0x1
 3292 0101 13       		.uleb128 0x13
 3293 0102 00       		.byte	0
 3294 0103 00       		.byte	0
ARM GAS  C:\Users\DNIEL~1\AppData\Local\Temp\cciNsdV0.s 			page 59


 3295 0104 17       		.uleb128 0x17
 3296 0105 21       		.uleb128 0x21
 3297 0106 00       		.byte	0
 3298 0107 49       		.uleb128 0x49
 3299 0108 13       		.uleb128 0x13
 3300 0109 2F       		.uleb128 0x2f
 3301 010a 0B       		.uleb128 0xb
 3302 010b 00       		.byte	0
 3303 010c 00       		.byte	0
 3304 010d 18       		.uleb128 0x18
 3305 010e 13       		.uleb128 0x13
 3306 010f 01       		.byte	0x1
 3307 0110 0B       		.uleb128 0xb
 3308 0111 0B       		.uleb128 0xb
 3309 0112 3A       		.uleb128 0x3a
 3310 0113 0B       		.uleb128 0xb
 3311 0114 3B       		.uleb128 0x3b
 3312 0115 05       		.uleb128 0x5
 3313 0116 01       		.uleb128 0x1
 3314 0117 13       		.uleb128 0x13
 3315 0118 00       		.byte	0
 3316 0119 00       		.byte	0
 3317 011a 19       		.uleb128 0x19
 3318 011b 0D       		.uleb128 0xd
 3319 011c 00       		.byte	0
 3320 011d 03       		.uleb128 0x3
 3321 011e 0E       		.uleb128 0xe
 3322 011f 3A       		.uleb128 0x3a
 3323 0120 0B       		.uleb128 0xb
 3324 0121 3B       		.uleb128 0x3b
 3325 0122 05       		.uleb128 0x5
 3326 0123 49       		.uleb128 0x49
 3327 0124 13       		.uleb128 0x13
 3328 0125 38       		.uleb128 0x38
 3329 0126 0A       		.uleb128 0xa
 3330 0127 00       		.byte	0
 3331 0128 00       		.byte	0
 3332 0129 1A       		.uleb128 0x1a
 3333 012a 16       		.uleb128 0x16
 3334 012b 00       		.byte	0
 3335 012c 03       		.uleb128 0x3
 3336 012d 0E       		.uleb128 0xe
 3337 012e 3A       		.uleb128 0x3a
 3338 012f 0B       		.uleb128 0xb
 3339 0130 3B       		.uleb128 0x3b
 3340 0131 05       		.uleb128 0x5
 3341 0132 49       		.uleb128 0x49
 3342 0133 13       		.uleb128 0x13
 3343 0134 00       		.byte	0
 3344 0135 00       		.byte	0
 3345 0136 1B       		.uleb128 0x1b
 3346 0137 04       		.uleb128 0x4
 3347 0138 01       		.byte	0x1
 3348 0139 0B       		.uleb128 0xb
 3349 013a 0B       		.uleb128 0xb
 3350 013b 3A       		.uleb128 0x3a
 3351 013c 0B       		.uleb128 0xb
ARM GAS  C:\Users\DNIEL~1\AppData\Local\Temp\cciNsdV0.s 			page 60


 3352 013d 3B       		.uleb128 0x3b
 3353 013e 0B       		.uleb128 0xb
 3354 013f 01       		.uleb128 0x1
 3355 0140 13       		.uleb128 0x13
 3356 0141 00       		.byte	0
 3357 0142 00       		.byte	0
 3358 0143 1C       		.uleb128 0x1c
 3359 0144 2E       		.uleb128 0x2e
 3360 0145 01       		.byte	0x1
 3361 0146 03       		.uleb128 0x3
 3362 0147 0E       		.uleb128 0xe
 3363 0148 3A       		.uleb128 0x3a
 3364 0149 0B       		.uleb128 0xb
 3365 014a 3B       		.uleb128 0x3b
 3366 014b 0B       		.uleb128 0xb
 3367 014c 27       		.uleb128 0x27
 3368 014d 0C       		.uleb128 0xc
 3369 014e 20       		.uleb128 0x20
 3370 014f 0B       		.uleb128 0xb
 3371 0150 01       		.uleb128 0x1
 3372 0151 13       		.uleb128 0x13
 3373 0152 00       		.byte	0
 3374 0153 00       		.byte	0
 3375 0154 1D       		.uleb128 0x1d
 3376 0155 05       		.uleb128 0x5
 3377 0156 00       		.byte	0
 3378 0157 03       		.uleb128 0x3
 3379 0158 08       		.uleb128 0x8
 3380 0159 3A       		.uleb128 0x3a
 3381 015a 0B       		.uleb128 0xb
 3382 015b 3B       		.uleb128 0x3b
 3383 015c 0B       		.uleb128 0xb
 3384 015d 49       		.uleb128 0x49
 3385 015e 13       		.uleb128 0x13
 3386 015f 00       		.byte	0
 3387 0160 00       		.byte	0
 3388 0161 1E       		.uleb128 0x1e
 3389 0162 34       		.uleb128 0x34
 3390 0163 00       		.byte	0
 3391 0164 03       		.uleb128 0x3
 3392 0165 08       		.uleb128 0x8
 3393 0166 3A       		.uleb128 0x3a
 3394 0167 0B       		.uleb128 0xb
 3395 0168 3B       		.uleb128 0x3b
 3396 0169 0B       		.uleb128 0xb
 3397 016a 49       		.uleb128 0x49
 3398 016b 13       		.uleb128 0x13
 3399 016c 00       		.byte	0
 3400 016d 00       		.byte	0
 3401 016e 1F       		.uleb128 0x1f
 3402 016f 0B       		.uleb128 0xb
 3403 0170 01       		.byte	0x1
 3404 0171 01       		.uleb128 0x1
 3405 0172 13       		.uleb128 0x13
 3406 0173 00       		.byte	0
 3407 0174 00       		.byte	0
 3408 0175 20       		.uleb128 0x20
ARM GAS  C:\Users\DNIEL~1\AppData\Local\Temp\cciNsdV0.s 			page 61


 3409 0176 34       		.uleb128 0x34
 3410 0177 00       		.byte	0
 3411 0178 03       		.uleb128 0x3
 3412 0179 08       		.uleb128 0x8
 3413 017a 3A       		.uleb128 0x3a
 3414 017b 0B       		.uleb128 0xb
 3415 017c 3B       		.uleb128 0x3b
 3416 017d 05       		.uleb128 0x5
 3417 017e 49       		.uleb128 0x49
 3418 017f 13       		.uleb128 0x13
 3419 0180 00       		.byte	0
 3420 0181 00       		.byte	0
 3421 0182 21       		.uleb128 0x21
 3422 0183 0B       		.uleb128 0xb
 3423 0184 01       		.byte	0x1
 3424 0185 00       		.byte	0
 3425 0186 00       		.byte	0
 3426 0187 22       		.uleb128 0x22
 3427 0188 2E       		.uleb128 0x2e
 3428 0189 01       		.byte	0x1
 3429 018a 03       		.uleb128 0x3
 3430 018b 0E       		.uleb128 0xe
 3431 018c 3A       		.uleb128 0x3a
 3432 018d 0B       		.uleb128 0xb
 3433 018e 3B       		.uleb128 0x3b
 3434 018f 05       		.uleb128 0x5
 3435 0190 27       		.uleb128 0x27
 3436 0191 0C       		.uleb128 0xc
 3437 0192 20       		.uleb128 0x20
 3438 0193 0B       		.uleb128 0xb
 3439 0194 01       		.uleb128 0x1
 3440 0195 13       		.uleb128 0x13
 3441 0196 00       		.byte	0
 3442 0197 00       		.byte	0
 3443 0198 23       		.uleb128 0x23
 3444 0199 05       		.uleb128 0x5
 3445 019a 00       		.byte	0
 3446 019b 03       		.uleb128 0x3
 3447 019c 08       		.uleb128 0x8
 3448 019d 3A       		.uleb128 0x3a
 3449 019e 0B       		.uleb128 0xb
 3450 019f 3B       		.uleb128 0x3b
 3451 01a0 05       		.uleb128 0x5
 3452 01a1 49       		.uleb128 0x49
 3453 01a2 13       		.uleb128 0x13
 3454 01a3 00       		.byte	0
 3455 01a4 00       		.byte	0
 3456 01a5 24       		.uleb128 0x24
 3457 01a6 2E       		.uleb128 0x2e
 3458 01a7 01       		.byte	0x1
 3459 01a8 03       		.uleb128 0x3
 3460 01a9 0E       		.uleb128 0xe
 3461 01aa 3A       		.uleb128 0x3a
 3462 01ab 0B       		.uleb128 0xb
 3463 01ac 3B       		.uleb128 0x3b
 3464 01ad 05       		.uleb128 0x5
 3465 01ae 27       		.uleb128 0x27
ARM GAS  C:\Users\DNIEL~1\AppData\Local\Temp\cciNsdV0.s 			page 62


 3466 01af 0C       		.uleb128 0xc
 3467 01b0 11       		.uleb128 0x11
 3468 01b1 01       		.uleb128 0x1
 3469 01b2 12       		.uleb128 0x12
 3470 01b3 01       		.uleb128 0x1
 3471 01b4 40       		.uleb128 0x40
 3472 01b5 0A       		.uleb128 0xa
 3473 01b6 9742     		.uleb128 0x2117
 3474 01b8 0C       		.uleb128 0xc
 3475 01b9 01       		.uleb128 0x1
 3476 01ba 13       		.uleb128 0x13
 3477 01bb 00       		.byte	0
 3478 01bc 00       		.byte	0
 3479 01bd 25       		.uleb128 0x25
 3480 01be 05       		.uleb128 0x5
 3481 01bf 00       		.byte	0
 3482 01c0 03       		.uleb128 0x3
 3483 01c1 08       		.uleb128 0x8
 3484 01c2 3A       		.uleb128 0x3a
 3485 01c3 0B       		.uleb128 0xb
 3486 01c4 3B       		.uleb128 0x3b
 3487 01c5 05       		.uleb128 0x5
 3488 01c6 49       		.uleb128 0x49
 3489 01c7 13       		.uleb128 0x13
 3490 01c8 02       		.uleb128 0x2
 3491 01c9 06       		.uleb128 0x6
 3492 01ca 00       		.byte	0
 3493 01cb 00       		.byte	0
 3494 01cc 26       		.uleb128 0x26
 3495 01cd 2E       		.uleb128 0x2e
 3496 01ce 01       		.byte	0x1
 3497 01cf 3F       		.uleb128 0x3f
 3498 01d0 0C       		.uleb128 0xc
 3499 01d1 03       		.uleb128 0x3
 3500 01d2 0E       		.uleb128 0xe
 3501 01d3 3A       		.uleb128 0x3a
 3502 01d4 0B       		.uleb128 0xb
 3503 01d5 3B       		.uleb128 0x3b
 3504 01d6 05       		.uleb128 0x5
 3505 01d7 27       		.uleb128 0x27
 3506 01d8 0C       		.uleb128 0xc
 3507 01d9 11       		.uleb128 0x11
 3508 01da 01       		.uleb128 0x1
 3509 01db 12       		.uleb128 0x12
 3510 01dc 01       		.uleb128 0x1
 3511 01dd 40       		.uleb128 0x40
 3512 01de 06       		.uleb128 0x6
 3513 01df 9742     		.uleb128 0x2117
 3514 01e1 0C       		.uleb128 0xc
 3515 01e2 01       		.uleb128 0x1
 3516 01e3 13       		.uleb128 0x13
 3517 01e4 00       		.byte	0
 3518 01e5 00       		.byte	0
 3519 01e6 27       		.uleb128 0x27
 3520 01e7 1D       		.uleb128 0x1d
 3521 01e8 01       		.byte	0x1
 3522 01e9 31       		.uleb128 0x31
ARM GAS  C:\Users\DNIEL~1\AppData\Local\Temp\cciNsdV0.s 			page 63


 3523 01ea 13       		.uleb128 0x13
 3524 01eb 52       		.uleb128 0x52
 3525 01ec 01       		.uleb128 0x1
 3526 01ed 55       		.uleb128 0x55
 3527 01ee 06       		.uleb128 0x6
 3528 01ef 58       		.uleb128 0x58
 3529 01f0 0B       		.uleb128 0xb
 3530 01f1 59       		.uleb128 0x59
 3531 01f2 05       		.uleb128 0x5
 3532 01f3 01       		.uleb128 0x1
 3533 01f4 13       		.uleb128 0x13
 3534 01f5 00       		.byte	0
 3535 01f6 00       		.byte	0
 3536 01f7 28       		.uleb128 0x28
 3537 01f8 0B       		.uleb128 0xb
 3538 01f9 01       		.byte	0x1
 3539 01fa 55       		.uleb128 0x55
 3540 01fb 06       		.uleb128 0x6
 3541 01fc 00       		.byte	0
 3542 01fd 00       		.byte	0
 3543 01fe 29       		.uleb128 0x29
 3544 01ff 34       		.uleb128 0x34
 3545 0200 00       		.byte	0
 3546 0201 31       		.uleb128 0x31
 3547 0202 13       		.uleb128 0x13
 3548 0203 02       		.uleb128 0x2
 3549 0204 0A       		.uleb128 0xa
 3550 0205 00       		.byte	0
 3551 0206 00       		.byte	0
 3552 0207 2A       		.uleb128 0x2a
 3553 0208 34       		.uleb128 0x34
 3554 0209 00       		.byte	0
 3555 020a 31       		.uleb128 0x31
 3556 020b 13       		.uleb128 0x13
 3557 020c 02       		.uleb128 0x2
 3558 020d 06       		.uleb128 0x6
 3559 020e 00       		.byte	0
 3560 020f 00       		.byte	0
 3561 0210 2B       		.uleb128 0x2b
 3562 0211 05       		.uleb128 0x5
 3563 0212 00       		.byte	0
 3564 0213 31       		.uleb128 0x31
 3565 0214 13       		.uleb128 0x13
 3566 0215 02       		.uleb128 0x2
 3567 0216 0A       		.uleb128 0xa
 3568 0217 00       		.byte	0
 3569 0218 00       		.byte	0
 3570 0219 2C       		.uleb128 0x2c
 3571 021a 0B       		.uleb128 0xb
 3572 021b 01       		.byte	0x1
 3573 021c 11       		.uleb128 0x11
 3574 021d 01       		.uleb128 0x1
 3575 021e 12       		.uleb128 0x12
 3576 021f 01       		.uleb128 0x1
 3577 0220 01       		.uleb128 0x1
 3578 0221 13       		.uleb128 0x13
 3579 0222 00       		.byte	0
ARM GAS  C:\Users\DNIEL~1\AppData\Local\Temp\cciNsdV0.s 			page 64


 3580 0223 00       		.byte	0
 3581 0224 2D       		.uleb128 0x2d
 3582 0225 1D       		.uleb128 0x1d
 3583 0226 01       		.byte	0x1
 3584 0227 31       		.uleb128 0x31
 3585 0228 13       		.uleb128 0x13
 3586 0229 11       		.uleb128 0x11
 3587 022a 01       		.uleb128 0x1
 3588 022b 12       		.uleb128 0x12
 3589 022c 01       		.uleb128 0x1
 3590 022d 58       		.uleb128 0x58
 3591 022e 0B       		.uleb128 0xb
 3592 022f 59       		.uleb128 0x59
 3593 0230 05       		.uleb128 0x5
 3594 0231 01       		.uleb128 0x1
 3595 0232 13       		.uleb128 0x13
 3596 0233 00       		.byte	0
 3597 0234 00       		.byte	0
 3598 0235 2E       		.uleb128 0x2e
 3599 0236 05       		.uleb128 0x5
 3600 0237 00       		.byte	0
 3601 0238 31       		.uleb128 0x31
 3602 0239 13       		.uleb128 0x13
 3603 023a 02       		.uleb128 0x2
 3604 023b 06       		.uleb128 0x6
 3605 023c 00       		.byte	0
 3606 023d 00       		.byte	0
 3607 023e 2F       		.uleb128 0x2f
 3608 023f 0B       		.uleb128 0xb
 3609 0240 01       		.byte	0x1
 3610 0241 11       		.uleb128 0x11
 3611 0242 01       		.uleb128 0x1
 3612 0243 12       		.uleb128 0x12
 3613 0244 01       		.uleb128 0x1
 3614 0245 00       		.byte	0
 3615 0246 00       		.byte	0
 3616 0247 30       		.uleb128 0x30
 3617 0248 898201   		.uleb128 0x4109
 3618 024b 01       		.byte	0x1
 3619 024c 11       		.uleb128 0x11
 3620 024d 01       		.uleb128 0x1
 3621 024e 31       		.uleb128 0x31
 3622 024f 13       		.uleb128 0x13
 3623 0250 00       		.byte	0
 3624 0251 00       		.byte	0
 3625 0252 31       		.uleb128 0x31
 3626 0253 8A8201   		.uleb128 0x410a
 3627 0256 00       		.byte	0
 3628 0257 02       		.uleb128 0x2
 3629 0258 0A       		.uleb128 0xa
 3630 0259 9142     		.uleb128 0x2111
 3631 025b 0A       		.uleb128 0xa
 3632 025c 00       		.byte	0
 3633 025d 00       		.byte	0
 3634 025e 32       		.uleb128 0x32
 3635 025f 898201   		.uleb128 0x4109
 3636 0262 01       		.byte	0x1
ARM GAS  C:\Users\DNIEL~1\AppData\Local\Temp\cciNsdV0.s 			page 65


 3637 0263 11       		.uleb128 0x11
 3638 0264 01       		.uleb128 0x1
 3639 0265 31       		.uleb128 0x31
 3640 0266 13       		.uleb128 0x13
 3641 0267 01       		.uleb128 0x1
 3642 0268 13       		.uleb128 0x13
 3643 0269 00       		.byte	0
 3644 026a 00       		.byte	0
 3645 026b 33       		.uleb128 0x33
 3646 026c 898201   		.uleb128 0x4109
 3647 026f 00       		.byte	0
 3648 0270 11       		.uleb128 0x11
 3649 0271 01       		.uleb128 0x1
 3650 0272 9542     		.uleb128 0x2115
 3651 0274 0C       		.uleb128 0xc
 3652 0275 31       		.uleb128 0x31
 3653 0276 13       		.uleb128 0x13
 3654 0277 00       		.byte	0
 3655 0278 00       		.byte	0
 3656 0279 34       		.uleb128 0x34
 3657 027a 05       		.uleb128 0x5
 3658 027b 00       		.byte	0
 3659 027c 03       		.uleb128 0x3
 3660 027d 0E       		.uleb128 0xe
 3661 027e 3A       		.uleb128 0x3a
 3662 027f 0B       		.uleb128 0xb
 3663 0280 3B       		.uleb128 0x3b
 3664 0281 0B       		.uleb128 0xb
 3665 0282 49       		.uleb128 0x49
 3666 0283 13       		.uleb128 0x13
 3667 0284 00       		.byte	0
 3668 0285 00       		.byte	0
 3669 0286 35       		.uleb128 0x35
 3670 0287 05       		.uleb128 0x5
 3671 0288 00       		.byte	0
 3672 0289 03       		.uleb128 0x3
 3673 028a 0E       		.uleb128 0xe
 3674 028b 3A       		.uleb128 0x3a
 3675 028c 0B       		.uleb128 0xb
 3676 028d 3B       		.uleb128 0x3b
 3677 028e 05       		.uleb128 0x5
 3678 028f 49       		.uleb128 0x49
 3679 0290 13       		.uleb128 0x13
 3680 0291 02       		.uleb128 0x2
 3681 0292 06       		.uleb128 0x6
 3682 0293 00       		.byte	0
 3683 0294 00       		.byte	0
 3684 0295 36       		.uleb128 0x36
 3685 0296 05       		.uleb128 0x5
 3686 0297 00       		.byte	0
 3687 0298 31       		.uleb128 0x31
 3688 0299 13       		.uleb128 0x13
 3689 029a 00       		.byte	0
 3690 029b 00       		.byte	0
 3691 029c 37       		.uleb128 0x37
 3692 029d 2E       		.uleb128 0x2e
 3693 029e 01       		.byte	0x1
ARM GAS  C:\Users\DNIEL~1\AppData\Local\Temp\cciNsdV0.s 			page 66


 3694 029f 3F       		.uleb128 0x3f
 3695 02a0 0C       		.uleb128 0xc
 3696 02a1 03       		.uleb128 0x3
 3697 02a2 0E       		.uleb128 0xe
 3698 02a3 3A       		.uleb128 0x3a
 3699 02a4 0B       		.uleb128 0xb
 3700 02a5 3B       		.uleb128 0x3b
 3701 02a6 05       		.uleb128 0x5
 3702 02a7 27       		.uleb128 0x27
 3703 02a8 0C       		.uleb128 0xc
 3704 02a9 11       		.uleb128 0x11
 3705 02aa 01       		.uleb128 0x1
 3706 02ab 12       		.uleb128 0x12
 3707 02ac 01       		.uleb128 0x1
 3708 02ad 40       		.uleb128 0x40
 3709 02ae 0A       		.uleb128 0xa
 3710 02af 9742     		.uleb128 0x2117
 3711 02b1 0C       		.uleb128 0xc
 3712 02b2 01       		.uleb128 0x1
 3713 02b3 13       		.uleb128 0x13
 3714 02b4 00       		.byte	0
 3715 02b5 00       		.byte	0
 3716 02b6 38       		.uleb128 0x38
 3717 02b7 898201   		.uleb128 0x4109
 3718 02ba 01       		.byte	0x1
 3719 02bb 11       		.uleb128 0x11
 3720 02bc 01       		.uleb128 0x1
 3721 02bd 9542     		.uleb128 0x2115
 3722 02bf 0C       		.uleb128 0xc
 3723 02c0 31       		.uleb128 0x31
 3724 02c1 13       		.uleb128 0x13
 3725 02c2 00       		.byte	0
 3726 02c3 00       		.byte	0
 3727 02c4 39       		.uleb128 0x39
 3728 02c5 34       		.uleb128 0x34
 3729 02c6 00       		.byte	0
 3730 02c7 03       		.uleb128 0x3
 3731 02c8 0E       		.uleb128 0xe
 3732 02c9 3A       		.uleb128 0x3a
 3733 02ca 0B       		.uleb128 0xb
 3734 02cb 3B       		.uleb128 0x3b
 3735 02cc 0B       		.uleb128 0xb
 3736 02cd 49       		.uleb128 0x49
 3737 02ce 13       		.uleb128 0x13
 3738 02cf 02       		.uleb128 0x2
 3739 02d0 0A       		.uleb128 0xa
 3740 02d1 00       		.byte	0
 3741 02d2 00       		.byte	0
 3742 02d3 3A       		.uleb128 0x3a
 3743 02d4 34       		.uleb128 0x34
 3744 02d5 00       		.byte	0
 3745 02d6 03       		.uleb128 0x3
 3746 02d7 0E       		.uleb128 0xe
 3747 02d8 3A       		.uleb128 0x3a
 3748 02d9 0B       		.uleb128 0xb
 3749 02da 3B       		.uleb128 0x3b
 3750 02db 05       		.uleb128 0x5
ARM GAS  C:\Users\DNIEL~1\AppData\Local\Temp\cciNsdV0.s 			page 67


 3751 02dc 49       		.uleb128 0x49
 3752 02dd 13       		.uleb128 0x13
 3753 02de 3F       		.uleb128 0x3f
 3754 02df 0C       		.uleb128 0xc
 3755 02e0 3C       		.uleb128 0x3c
 3756 02e1 0C       		.uleb128 0xc
 3757 02e2 00       		.byte	0
 3758 02e3 00       		.byte	0
 3759 02e4 3B       		.uleb128 0x3b
 3760 02e5 34       		.uleb128 0x34
 3761 02e6 00       		.byte	0
 3762 02e7 03       		.uleb128 0x3
 3763 02e8 08       		.uleb128 0x8
 3764 02e9 3A       		.uleb128 0x3a
 3765 02ea 0B       		.uleb128 0xb
 3766 02eb 3B       		.uleb128 0x3b
 3767 02ec 0B       		.uleb128 0xb
 3768 02ed 49       		.uleb128 0x49
 3769 02ee 13       		.uleb128 0x13
 3770 02ef 3F       		.uleb128 0x3f
 3771 02f0 0C       		.uleb128 0xc
 3772 02f1 02       		.uleb128 0x2
 3773 02f2 0A       		.uleb128 0xa
 3774 02f3 00       		.byte	0
 3775 02f4 00       		.byte	0
 3776 02f5 3C       		.uleb128 0x3c
 3777 02f6 2E       		.uleb128 0x2e
 3778 02f7 01       		.byte	0x1
 3779 02f8 3F       		.uleb128 0x3f
 3780 02f9 0C       		.uleb128 0xc
 3781 02fa 03       		.uleb128 0x3
 3782 02fb 0E       		.uleb128 0xe
 3783 02fc 3A       		.uleb128 0x3a
 3784 02fd 0B       		.uleb128 0xb
 3785 02fe 3B       		.uleb128 0x3b
 3786 02ff 0B       		.uleb128 0xb
 3787 0300 27       		.uleb128 0x27
 3788 0301 0C       		.uleb128 0xc
 3789 0302 3C       		.uleb128 0x3c
 3790 0303 0C       		.uleb128 0xc
 3791 0304 01       		.uleb128 0x1
 3792 0305 13       		.uleb128 0x13
 3793 0306 00       		.byte	0
 3794 0307 00       		.byte	0
 3795 0308 3D       		.uleb128 0x3d
 3796 0309 2E       		.uleb128 0x2e
 3797 030a 01       		.byte	0x1
 3798 030b 3F       		.uleb128 0x3f
 3799 030c 0C       		.uleb128 0xc
 3800 030d 03       		.uleb128 0x3
 3801 030e 0E       		.uleb128 0xe
 3802 030f 3A       		.uleb128 0x3a
 3803 0310 0B       		.uleb128 0xb
 3804 0311 3B       		.uleb128 0x3b
 3805 0312 05       		.uleb128 0x5
 3806 0313 27       		.uleb128 0x27
 3807 0314 0C       		.uleb128 0xc
ARM GAS  C:\Users\DNIEL~1\AppData\Local\Temp\cciNsdV0.s 			page 68


 3808 0315 49       		.uleb128 0x49
 3809 0316 13       		.uleb128 0x13
 3810 0317 3C       		.uleb128 0x3c
 3811 0318 0C       		.uleb128 0xc
 3812 0319 01       		.uleb128 0x1
 3813 031a 13       		.uleb128 0x13
 3814 031b 00       		.byte	0
 3815 031c 00       		.byte	0
 3816 031d 3E       		.uleb128 0x3e
 3817 031e 2E       		.uleb128 0x2e
 3818 031f 01       		.byte	0x1
 3819 0320 3F       		.uleb128 0x3f
 3820 0321 0C       		.uleb128 0xc
 3821 0322 03       		.uleb128 0x3
 3822 0323 0E       		.uleb128 0xe
 3823 0324 3A       		.uleb128 0x3a
 3824 0325 0B       		.uleb128 0xb
 3825 0326 3B       		.uleb128 0x3b
 3826 0327 05       		.uleb128 0x5
 3827 0328 27       		.uleb128 0x27
 3828 0329 0C       		.uleb128 0xc
 3829 032a 3C       		.uleb128 0x3c
 3830 032b 0C       		.uleb128 0xc
 3831 032c 01       		.uleb128 0x1
 3832 032d 13       		.uleb128 0x13
 3833 032e 00       		.byte	0
 3834 032f 00       		.byte	0
 3835 0330 3F       		.uleb128 0x3f
 3836 0331 2E       		.uleb128 0x2e
 3837 0332 00       		.byte	0
 3838 0333 3F       		.uleb128 0x3f
 3839 0334 0C       		.uleb128 0xc
 3840 0335 03       		.uleb128 0x3
 3841 0336 0E       		.uleb128 0xe
 3842 0337 3A       		.uleb128 0x3a
 3843 0338 0B       		.uleb128 0xb
 3844 0339 3B       		.uleb128 0x3b
 3845 033a 05       		.uleb128 0x5
 3846 033b 27       		.uleb128 0x27
 3847 033c 0C       		.uleb128 0xc
 3848 033d 3C       		.uleb128 0x3c
 3849 033e 0C       		.uleb128 0xc
 3850 033f 00       		.byte	0
 3851 0340 00       		.byte	0
 3852 0341 40       		.uleb128 0x40
 3853 0342 2E       		.uleb128 0x2e
 3854 0343 01       		.byte	0x1
 3855 0344 3F       		.uleb128 0x3f
 3856 0345 0C       		.uleb128 0xc
 3857 0346 03       		.uleb128 0x3
 3858 0347 0E       		.uleb128 0xe
 3859 0348 3A       		.uleb128 0x3a
 3860 0349 0B       		.uleb128 0xb
 3861 034a 3B       		.uleb128 0x3b
 3862 034b 05       		.uleb128 0x5
 3863 034c 27       		.uleb128 0x27
 3864 034d 0C       		.uleb128 0xc
ARM GAS  C:\Users\DNIEL~1\AppData\Local\Temp\cciNsdV0.s 			page 69


 3865 034e 3C       		.uleb128 0x3c
 3866 034f 0C       		.uleb128 0xc
 3867 0350 00       		.byte	0
 3868 0351 00       		.byte	0
 3869 0352 00       		.byte	0
 3870              		.section	.debug_loc,"",%progbits
 3871              	.Ldebug_loc0:
 3872              	.LLST0:
 3873 0000 00000000 		.4byte	.LVL0
 3874 0004 0C000000 		.4byte	.LVL1
 3875 0008 0100     		.2byte	0x1
 3876 000a 50       		.byte	0x50
 3877 000b 0C000000 		.4byte	.LVL1
 3878 000f 14000000 		.4byte	.LFE122
 3879 0013 0400     		.2byte	0x4
 3880 0015 F3       		.byte	0xf3
 3881 0016 01       		.uleb128 0x1
 3882 0017 50       		.byte	0x50
 3883 0018 9F       		.byte	0x9f
 3884 0019 00000000 		.4byte	0
 3885 001d 00000000 		.4byte	0
 3886              	.LLST1:
 3887 0021 00000000 		.4byte	.LFB123
 3888 0025 02000000 		.4byte	.LCFI0
 3889 0029 0200     		.2byte	0x2
 3890 002b 7D       		.byte	0x7d
 3891 002c 00       		.sleb128 0
 3892 002d 02000000 		.4byte	.LCFI0
 3893 0031 2C010000 		.4byte	.LFE123
 3894 0035 0200     		.2byte	0x2
 3895 0037 7D       		.byte	0x7d
 3896 0038 18       		.sleb128 24
 3897 0039 00000000 		.4byte	0
 3898 003d 00000000 		.4byte	0
 3899              	.LLST2:
 3900 0041 12000000 		.4byte	.LVL4
 3901 0045 40000000 		.4byte	.LVL11
 3902 0049 0100     		.2byte	0x1
 3903 004b 54       		.byte	0x54
 3904 004c 74000000 		.4byte	.LVL19
 3905 0050 2C010000 		.4byte	.LFE123
 3906 0054 0100     		.2byte	0x1
 3907 0056 54       		.byte	0x54
 3908 0057 00000000 		.4byte	0
 3909 005b 00000000 		.4byte	0
 3910              	.LLST3:
 3911 005f 14000000 		.4byte	.LVL5
 3912 0063 16000000 		.4byte	.LVL6
 3913 0067 0100     		.2byte	0x1
 3914 0069 51       		.byte	0x51
 3915 006a 16000000 		.4byte	.LVL6
 3916 006e AE000000 		.4byte	.LVL31
 3917 0072 0100     		.2byte	0x1
 3918 0074 57       		.byte	0x57
 3919 0075 AE000000 		.4byte	.LVL31
 3920 0079 BC000000 		.4byte	.LVL32
 3921 007d 0100     		.2byte	0x1
ARM GAS  C:\Users\DNIEL~1\AppData\Local\Temp\cciNsdV0.s 			page 70


 3922 007f 51       		.byte	0x51
 3923 0080 BC000000 		.4byte	.LVL32
 3924 0084 2C010000 		.4byte	.LFE123
 3925 0088 0100     		.2byte	0x1
 3926 008a 57       		.byte	0x57
 3927 008b 00000000 		.4byte	0
 3928 008f 00000000 		.4byte	0
 3929              	.LLST4:
 3930 0093 4A000000 		.4byte	.LVL13
 3931 0097 51000000 		.4byte	.LVL14-1
 3932 009b 0100     		.2byte	0x1
 3933 009d 53       		.byte	0x53
 3934 009e 00000000 		.4byte	0
 3935 00a2 00000000 		.4byte	0
 3936              	.LLST5:
 3937 00a6 58000000 		.4byte	.LVL16
 3938 00aa 5C000000 		.4byte	.LVL17
 3939 00ae 0100     		.2byte	0x1
 3940 00b0 53       		.byte	0x53
 3941 00b1 00000000 		.4byte	0
 3942 00b5 00000000 		.4byte	0
 3943              	.LLST6:
 3944 00b9 7A000000 		.4byte	.LVL21
 3945 00bd 81000000 		.4byte	.LVL22-1
 3946 00c1 0100     		.2byte	0x1
 3947 00c3 53       		.byte	0x53
 3948 00c4 00000000 		.4byte	0
 3949 00c8 00000000 		.4byte	0
 3950              	.LLST7:
 3951 00cc 2A000000 		.4byte	.LVL8
 3952 00d0 38000000 		.4byte	.LVL9
 3953 00d4 0100     		.2byte	0x1
 3954 00d6 53       		.byte	0x53
 3955 00d7 3C000000 		.4byte	.LVL10
 3956 00db 46000000 		.4byte	.LVL12
 3957 00df 0100     		.2byte	0x1
 3958 00e1 53       		.byte	0x53
 3959 00e2 6C000000 		.4byte	.LVL18
 3960 00e6 73000000 		.4byte	.LVL19-1
 3961 00ea 0100     		.2byte	0x1
 3962 00ec 53       		.byte	0x53
 3963 00ed 88000000 		.4byte	.LVL23
 3964 00f1 8A000000 		.4byte	.LVL24
 3965 00f5 0100     		.2byte	0x1
 3966 00f7 53       		.byte	0x53
 3967 00f8 00000000 		.4byte	0
 3968 00fc 00000000 		.4byte	0
 3969              	.LLST8:
 3970 0100 90000000 		.4byte	.LVL26
 3971 0104 99000000 		.4byte	.LVL27-1
 3972 0108 0100     		.2byte	0x1
 3973 010a 53       		.byte	0x53
 3974 010b 00000000 		.4byte	0
 3975 010f 00000000 		.4byte	0
 3976              	.LLST9:
 3977 0113 A0000000 		.4byte	.LVL29
 3978 0117 A6000000 		.4byte	.LVL30
ARM GAS  C:\Users\DNIEL~1\AppData\Local\Temp\cciNsdV0.s 			page 71


 3979 011b 0100     		.2byte	0x1
 3980 011d 53       		.byte	0x53
 3981 011e 00000000 		.4byte	0
 3982 0122 00000000 		.4byte	0
 3983              	.LLST10:
 3984 0126 AE000000 		.4byte	.LVL31
 3985 012a F0000000 		.4byte	.LVL40
 3986 012e 0100     		.2byte	0x1
 3987 0130 54       		.byte	0x54
 3988 0131 00000000 		.4byte	0
 3989 0135 00000000 		.4byte	0
 3990              	.LLST11:
 3991 0139 AE000000 		.4byte	.LVL31
 3992 013d BC000000 		.4byte	.LVL32
 3993 0141 0200     		.2byte	0x2
 3994 0143 30       		.byte	0x30
 3995 0144 9F       		.byte	0x9f
 3996 0145 BC000000 		.4byte	.LVL32
 3997 0149 E7000000 		.4byte	.LVL38-1
 3998 014d 0100     		.2byte	0x1
 3999 014f 51       		.byte	0x51
 4000 0150 00000000 		.4byte	0
 4001 0154 00000000 		.4byte	0
 4002              	.LLST12:
 4003 0158 AE000000 		.4byte	.LVL31
 4004 015c F0000000 		.4byte	.LVL40
 4005 0160 0600     		.2byte	0x6
 4006 0162 03       		.byte	0x3
 4007 0163 00000000 		.4byte	SD1
 4008 0167 9F       		.byte	0x9f
 4009 0168 00000000 		.4byte	0
 4010 016c 00000000 		.4byte	0
 4011              	.LLST13:
 4012 0170 E2000000 		.4byte	.LVL37
 4013 0174 E7000000 		.4byte	.LVL38-1
 4014 0178 0100     		.2byte	0x1
 4015 017a 53       		.byte	0x53
 4016 017b 00000000 		.4byte	0
 4017 017f 00000000 		.4byte	0
 4018              	.LLST14:
 4019 0183 16000000 		.4byte	.LVL6
 4020 0187 26000000 		.4byte	.LVL7
 4021 018b 0100     		.2byte	0x1
 4022 018d 53       		.byte	0x53
 4023 018e 8A000000 		.4byte	.LVL24
 4024 0192 8C000000 		.4byte	.LVL25
 4025 0196 0100     		.2byte	0x1
 4026 0198 53       		.byte	0x53
 4027 0199 EE000000 		.4byte	.LVL39
 4028 019d F0000000 		.4byte	.LVL40
 4029 01a1 0100     		.2byte	0x1
 4030 01a3 53       		.byte	0x53
 4031 01a4 00000000 		.4byte	0
 4032 01a8 00000000 		.4byte	0
 4033              	.LLST15:
 4034 01ac FC000000 		.4byte	.LVL43
 4035 01b0 04010000 		.4byte	.LVL44
ARM GAS  C:\Users\DNIEL~1\AppData\Local\Temp\cciNsdV0.s 			page 72


 4036 01b4 0100     		.2byte	0x1
 4037 01b6 50       		.byte	0x50
 4038 01b7 0C010000 		.4byte	.LVL46
 4039 01bb 0E010000 		.4byte	.LVL47
 4040 01bf 0100     		.2byte	0x1
 4041 01c1 50       		.byte	0x50
 4042 01c2 00000000 		.4byte	0
 4043 01c6 00000000 		.4byte	0
 4044              	.LLST16:
 4045 01ca F6000000 		.4byte	.LVL42
 4046 01ce FB000000 		.4byte	.LVL43-1
 4047 01d2 0100     		.2byte	0x1
 4048 01d4 53       		.byte	0x53
 4049 01d5 00000000 		.4byte	0
 4050 01d9 00000000 		.4byte	0
 4051              	.LLST17:
 4052 01dd 3C000000 		.4byte	.LVL10
 4053 01e1 46000000 		.4byte	.LVL12
 4054 01e5 0100     		.2byte	0x1
 4055 01e7 53       		.byte	0x53
 4056 01e8 6C000000 		.4byte	.LVL18
 4057 01ec 73000000 		.4byte	.LVL19-1
 4058 01f0 0100     		.2byte	0x1
 4059 01f2 53       		.byte	0x53
 4060 01f3 0A010000 		.4byte	.LVL45
 4061 01f7 0C010000 		.4byte	.LVL46
 4062 01fb 0100     		.2byte	0x1
 4063 01fd 53       		.byte	0x53
 4064 01fe 00000000 		.4byte	0
 4065 0202 00000000 		.4byte	0
 4066              	.LLST18:
 4067 0206 00000000 		.4byte	.LFB124
 4068 020a 02000000 		.4byte	.LCFI1
 4069 020e 0200     		.2byte	0x2
 4070 0210 7D       		.byte	0x7d
 4071 0211 00       		.sleb128 0
 4072 0212 02000000 		.4byte	.LCFI1
 4073 0216 26000000 		.4byte	.LFE124
 4074 021a 0200     		.2byte	0x2
 4075 021c 7D       		.byte	0x7d
 4076 021d 08       		.sleb128 8
 4077 021e 00000000 		.4byte	0
 4078 0222 00000000 		.4byte	0
 4079              	.LLST19:
 4080 0226 00000000 		.4byte	.LFB125
 4081 022a 02000000 		.4byte	.LCFI2
 4082 022e 0200     		.2byte	0x2
 4083 0230 7D       		.byte	0x7d
 4084 0231 00       		.sleb128 0
 4085 0232 02000000 		.4byte	.LCFI2
 4086 0236 A4000000 		.4byte	.LFE125
 4087 023a 0200     		.2byte	0x2
 4088 023c 7D       		.byte	0x7d
 4089 023d 10       		.sleb128 16
 4090 023e 00000000 		.4byte	0
 4091 0242 00000000 		.4byte	0
 4092              	.LLST20:
ARM GAS  C:\Users\DNIEL~1\AppData\Local\Temp\cciNsdV0.s 			page 73


 4093 0246 00000000 		.4byte	.LVL50
 4094 024a 12000000 		.4byte	.LVL51
 4095 024e 0100     		.2byte	0x1
 4096 0250 50       		.byte	0x50
 4097 0251 12000000 		.4byte	.LVL51
 4098 0255 6A000000 		.4byte	.LVL54
 4099 0259 0100     		.2byte	0x1
 4100 025b 55       		.byte	0x55
 4101 025c 6A000000 		.4byte	.LVL54
 4102 0260 6C000000 		.4byte	.LVL55
 4103 0264 0100     		.2byte	0x1
 4104 0266 50       		.byte	0x50
 4105 0267 6C000000 		.4byte	.LVL55
 4106 026b A4000000 		.4byte	.LFE125
 4107 026f 0100     		.2byte	0x1
 4108 0271 55       		.byte	0x55
 4109 0272 00000000 		.4byte	0
 4110 0276 00000000 		.4byte	0
 4111              	.LLST21:
 4112 027a 00000000 		.4byte	.LVL50
 4113 027e 12000000 		.4byte	.LVL51
 4114 0282 0100     		.2byte	0x1
 4115 0284 51       		.byte	0x51
 4116 0285 12000000 		.4byte	.LVL51
 4117 0289 6A000000 		.4byte	.LVL54
 4118 028d 0400     		.2byte	0x4
 4119 028f F3       		.byte	0xf3
 4120 0290 01       		.uleb128 0x1
 4121 0291 51       		.byte	0x51
 4122 0292 9F       		.byte	0x9f
 4123 0293 6A000000 		.4byte	.LVL54
 4124 0297 74000000 		.4byte	.LVL56
 4125 029b 0100     		.2byte	0x1
 4126 029d 51       		.byte	0x51
 4127 029e 74000000 		.4byte	.LVL56
 4128 02a2 A4000000 		.4byte	.LFE125
 4129 02a6 0400     		.2byte	0x4
 4130 02a8 F3       		.byte	0xf3
 4131 02a9 01       		.uleb128 0x1
 4132 02aa 51       		.byte	0x51
 4133 02ab 9F       		.byte	0x9f
 4134 02ac 00000000 		.4byte	0
 4135 02b0 00000000 		.4byte	0
 4136              	.LLST22:
 4137 02b4 12000000 		.4byte	.LVL51
 4138 02b8 6A000000 		.4byte	.LVL54
 4139 02bc 0100     		.2byte	0x1
 4140 02be 55       		.byte	0x55
 4141 02bf 8A000000 		.4byte	.LVL58
 4142 02c3 A4000000 		.4byte	.LFE125
 4143 02c7 0100     		.2byte	0x1
 4144 02c9 55       		.byte	0x55
 4145 02ca 00000000 		.4byte	0
 4146 02ce 00000000 		.4byte	0
 4147              	.LLST23:
 4148 02d2 18000000 		.4byte	.LVL52
 4149 02d6 68000000 		.4byte	.LVL53
ARM GAS  C:\Users\DNIEL~1\AppData\Local\Temp\cciNsdV0.s 			page 74


 4150 02da 0100     		.2byte	0x1
 4151 02dc 53       		.byte	0x53
 4152 02dd 68000000 		.4byte	.LVL53
 4153 02e1 6A000000 		.4byte	.LVL54
 4154 02e5 0300     		.2byte	0x3
 4155 02e7 75       		.byte	0x75
 4156 02e8 F400     		.sleb128 116
 4157 02ea 8A000000 		.4byte	.LVL58
 4158 02ee A4000000 		.4byte	.LFE125
 4159 02f2 0100     		.2byte	0x1
 4160 02f4 53       		.byte	0x53
 4161 02f5 00000000 		.4byte	0
 4162 02f9 00000000 		.4byte	0
 4163              	.LLST24:
 4164 02fd 00000000 		.4byte	.LVL59
 4165 0301 22000000 		.4byte	.LVL62
 4166 0305 0100     		.2byte	0x1
 4167 0307 50       		.byte	0x50
 4168 0308 22000000 		.4byte	.LVL62
 4169 030c 34000000 		.4byte	.LFE126
 4170 0310 0400     		.2byte	0x4
 4171 0312 F3       		.byte	0xf3
 4172 0313 01       		.uleb128 0x1
 4173 0314 50       		.byte	0x50
 4174 0315 9F       		.byte	0x9f
 4175 0316 00000000 		.4byte	0
 4176 031a 00000000 		.4byte	0
 4177              	.LLST25:
 4178 031e 0C000000 		.4byte	.LVL60
 4179 0322 1C000000 		.4byte	.LVL61
 4180 0326 0100     		.2byte	0x1
 4181 0328 51       		.byte	0x51
 4182 0329 1C000000 		.4byte	.LVL61
 4183 032d 22000000 		.4byte	.LVL62
 4184 0331 0300     		.2byte	0x3
 4185 0333 70       		.byte	0x70
 4186 0334 F400     		.sleb128 116
 4187 0336 22000000 		.4byte	.LVL62
 4188 033a 2D000000 		.4byte	.LVL63-1
 4189 033e 0500     		.2byte	0x5
 4190 0340 F3       		.byte	0xf3
 4191 0341 01       		.uleb128 0x1
 4192 0342 50       		.byte	0x50
 4193 0343 23       		.byte	0x23
 4194 0344 74       		.uleb128 0x74
 4195 0345 00000000 		.4byte	0
 4196 0349 00000000 		.4byte	0
 4197              		.section	.debug_aranges,"",%progbits
 4198 0000 3C000000 		.4byte	0x3c
 4199 0004 0200     		.2byte	0x2
 4200 0006 00000000 		.4byte	.Ldebug_info0
 4201 000a 04       		.byte	0x4
 4202 000b 00       		.byte	0
 4203 000c 0000     		.2byte	0
 4204 000e 0000     		.2byte	0
 4205 0010 00000000 		.4byte	.LFB122
 4206 0014 14000000 		.4byte	.LFE122-.LFB122
ARM GAS  C:\Users\DNIEL~1\AppData\Local\Temp\cciNsdV0.s 			page 75


 4207 0018 00000000 		.4byte	.LFB123
 4208 001c 2C010000 		.4byte	.LFE123-.LFB123
 4209 0020 00000000 		.4byte	.LFB124
 4210 0024 26000000 		.4byte	.LFE124-.LFB124
 4211 0028 00000000 		.4byte	.LFB125
 4212 002c A4000000 		.4byte	.LFE125-.LFB125
 4213 0030 00000000 		.4byte	.LFB126
 4214 0034 34000000 		.4byte	.LFE126-.LFB126
 4215 0038 00000000 		.4byte	0
 4216 003c 00000000 		.4byte	0
 4217              		.section	.debug_ranges,"",%progbits
 4218              	.Ldebug_ranges0:
 4219 0000 02000000 		.4byte	.LBB30
 4220 0004 6C000000 		.4byte	.LBE30
 4221 0008 74000000 		.4byte	.LBB46
 4222 000c 2C010000 		.4byte	.LBE46
 4223 0010 00000000 		.4byte	0
 4224 0014 00000000 		.4byte	0
 4225 0018 02000000 		.4byte	.LBB31
 4226 001c 6C000000 		.4byte	.LBE31
 4227 0020 74000000 		.4byte	.LBB45
 4228 0024 2C010000 		.4byte	.LBE45
 4229 0028 00000000 		.4byte	0
 4230 002c 00000000 		.4byte	0
 4231 0030 12000000 		.4byte	.LBB49
 4232 0034 6A000000 		.4byte	.LBE49
 4233 0038 8A000000 		.4byte	.LBB52
 4234 003c A4000000 		.4byte	.LBE52
 4235 0040 00000000 		.4byte	0
 4236 0044 00000000 		.4byte	0
 4237 0048 12000000 		.4byte	.LBB50
 4238 004c 6A000000 		.4byte	.LBE50
 4239 0050 8A000000 		.4byte	.LBB51
 4240 0054 A4000000 		.4byte	.LBE51
 4241 0058 00000000 		.4byte	0
 4242 005c 00000000 		.4byte	0
 4243 0060 0C000000 		.4byte	.LBB53
 4244 0064 0E000000 		.4byte	.LBE53
 4245 0068 10000000 		.4byte	.LBB56
 4246 006c 16000000 		.4byte	.LBE56
 4247 0070 00000000 		.4byte	0
 4248 0074 00000000 		.4byte	0
 4249 0078 00000000 		.4byte	.LFB122
 4250 007c 14000000 		.4byte	.LFE122
 4251 0080 00000000 		.4byte	.LFB123
 4252 0084 2C010000 		.4byte	.LFE123
 4253 0088 00000000 		.4byte	.LFB124
 4254 008c 26000000 		.4byte	.LFE124
 4255 0090 00000000 		.4byte	.LFB125
 4256 0094 A4000000 		.4byte	.LFE125
 4257 0098 00000000 		.4byte	.LFB126
 4258 009c 34000000 		.4byte	.LFE126
 4259 00a0 00000000 		.4byte	0
 4260 00a4 00000000 		.4byte	0
 4261              		.section	.debug_line,"",%progbits
 4262              	.Ldebug_line0:
 4263 0000 B4030000 		.section	.debug_str,"MS",%progbits,1
ARM GAS  C:\Users\DNIEL~1\AppData\Local\Temp\cciNsdV0.s 			page 76


 4263      0200D602 
 4263      00000201 
 4263      FB0E0D00 
 4263      01010101 
 4264              	.LASF2:
 4265 0000 73697A65 		.ascii	"size_t\000"
 4265      5F7400
 4266              	.LASF129:
 4267 0007 54494D38 		.ascii	"TIM8_UP_TIM13_IRQn\000"
 4267      5F55505F 
 4267      54494D31 
 4267      335F4952 
 4267      516E00
 4268              	.LASF48:
 4269 001a 73697A65 		.ascii	"sizetype\000"
 4269      74797065 
 4269      00
 4270              	.LASF22:
 4271 0023 73797374 		.ascii	"systime_t\000"
 4271      696D655F 
 4271      7400
 4272              	.LASF193:
 4273 002d 504C4C49 		.ascii	"PLLI2SCFGR\000"
 4273      32534346 
 4273      475200
 4274              	.LASF27:
 4275 0038 705F6374 		.ascii	"p_ctx\000"
 4275      7800
 4276              	.LASF18:
 4277 003e 74707269 		.ascii	"tprio_t\000"
 4277      6F5F7400 
 4278              	.LASF37:
 4279 0046 705F6D73 		.ascii	"p_msgqueue\000"
 4279      67717565 
 4279      756500
 4280              	.LASF8:
 4281 0051 696E7433 		.ascii	"int32_t\000"
 4281      325F7400 
 4282              	.LASF211:
 4283 0059 53657269 		.ascii	"SerialConfig\000"
 4283      616C436F 
 4283      6E666967 
 4283      00
 4284              	.LASF217:
 4285 0066 77726974 		.ascii	"writet\000"
 4285      657400
 4286              	.LASF195:
 4287 006d 47545052 		.ascii	"GTPR\000"
 4287      00
 4288              	.LASF234:
 4289 0072 2E2E2F2E 		.ascii	"../../../ChibiOS/os/hal/platforms/STM32/serial_lld."
 4289      2E2F2E2E 
 4289      2F436869 
 4289      62694F53 
 4289      2F6F732F 
 4290 00a5 6300     		.ascii	"c\000"
 4291              	.LASF213:
ARM GAS  C:\Users\DNIEL~1\AppData\Local\Temp\cciNsdV0.s 			page 77


 4292 00a7 77726974 		.ascii	"write\000"
 4292      6500
 4293              	.LASF142:
 4294 00ad 444D4132 		.ascii	"DMA2_Stream1_IRQn\000"
 4294      5F537472 
 4294      65616D31 
 4294      5F495251 
 4294      6E00
 4295              	.LASF136:
 4296 00bf 53504933 		.ascii	"SPI3_IRQn\000"
 4296      5F495251 
 4296      6E00
 4297              	.LASF89:
 4298 00c9 464C4153 		.ascii	"FLASH_IRQn\000"
 4298      485F4952 
 4298      516E00
 4299              	.LASF163:
 4300 00d4 44434D49 		.ascii	"DCMI_IRQn\000"
 4300      5F495251 
 4300      6E00
 4301              	.LASF57:
 4302 00de 656C5F66 		.ascii	"el_flags\000"
 4302      6C616773 
 4302      00
 4303              	.LASF225:
 4304 00e7 636F6E66 		.ascii	"config\000"
 4304      696700
 4305              	.LASF203:
 4306 00ee 73746174 		.ascii	"state\000"
 4306      6500
 4307              	.LASF215:
 4308 00f4 70757474 		.ascii	"putt\000"
 4308      00
 4309              	.LASF113:
 4310 00f9 54494D32 		.ascii	"TIM2_IRQn\000"
 4310      5F495251 
 4310      6E00
 4311              	.LASF221:
 4312 0103 73657276 		.ascii	"serve_interrupt\000"
 4312      655F696E 
 4312      74657272 
 4312      75707400 
 4313              	.LASF235:
 4314 0113 433A5C55 		.ascii	"C:\\Users\\D\341niel\\git\\Smarty\\Smarty_v7\\smart"
 4314      73657273 
 4314      5C44E16E 
 4314      69656C5C 
 4314      6769745C 
 4315 013d 795C6669 		.ascii	"y\\firmware\000"
 4315      726D7761 
 4315      726500
 4316              	.LASF149:
 4317 0148 43414E32 		.ascii	"CAN2_RX0_IRQn\000"
 4317      5F525830 
 4317      5F495251 
 4317      6E00
 4318              	.LASF156:
ARM GAS  C:\Users\DNIEL~1\AppData\Local\Temp\cciNsdV0.s 			page 78


 4319 0156 55534152 		.ascii	"USART6_IRQn\000"
 4319      54365F49 
 4319      52516E00 
 4320              	.LASF51:
 4321 0162 6D5F6F77 		.ascii	"m_owner\000"
 4321      6E657200 
 4322              	.LASF61:
 4323 016a 65786974 		.ascii	"exitcode\000"
 4323      636F6465 
 4323      00
 4324              	.LASF220:
 4325 0173 7365745F 		.ascii	"set_error\000"
 4325      6572726F 
 4325      7200
 4326              	.LASF161:
 4327 017d 4F54475F 		.ascii	"OTG_HS_WKUP_IRQn\000"
 4327      48535F57 
 4327      4B55505F 
 4327      4952516E 
 4327      00
 4328              	.LASF69:
 4329 018e 715F746F 		.ascii	"q_top\000"
 4329      7000
 4330              	.LASF63:
 4331 0194 65776D61 		.ascii	"ewmask\000"
 4331      736B00
 4332              	.LASF128:
 4333 019b 54494D38 		.ascii	"TIM8_BRK_TIM12_IRQn\000"
 4333      5F42524B 
 4333      5F54494D 
 4333      31325F49 
 4333      52516E00 
 4334              	.LASF184:
 4335 01af 41484232 		.ascii	"AHB2LPENR\000"
 4335      4C50454E 
 4335      5200
 4336              	.LASF218:
 4337 01b9 72656164 		.ascii	"readt\000"
 4337      7400
 4338              	.LASF226:
 4339 01bf 73645F6C 		.ascii	"sd_lld_start\000"
 4339      6C645F73 
 4339      74617274 
 4339      00
 4340              	.LASF68:
 4341 01cc 715F6275 		.ascii	"q_buffer\000"
 4341      66666572 
 4341      00
 4342              	.LASF72:
 4343 01d5 715F6E6F 		.ascii	"q_notify\000"
 4343      74696679 
 4343      00
 4344              	.LASF231:
 4345 01de 73644F62 		.ascii	"sdObjectInit\000"
 4345      6A656374 
 4345      496E6974 
 4345      00
ARM GAS  C:\Users\DNIEL~1\AppData\Local\Temp\cciNsdV0.s 			page 79


 4346              	.LASF28:
 4347 01eb 705F6E65 		.ascii	"p_newer\000"
 4347      77657200 
 4348              	.LASF9:
 4349 01f3 6C6F6E67 		.ascii	"long int\000"
 4349      20696E74 
 4349      00
 4350              	.LASF24:
 4351 01fc 705F6E65 		.ascii	"p_next\000"
 4351      787400
 4352              	.LASF71:
 4353 0203 715F7264 		.ascii	"q_rdptr\000"
 4353      70747200 
 4354              	.LASF25:
 4355 020b 705F7072 		.ascii	"p_prev\000"
 4355      657600
 4356              	.LASF238:
 4357 0212 64656661 		.ascii	"default_config\000"
 4357      756C745F 
 4357      636F6E66 
 4357      696700
 4358              	.LASF153:
 4359 0221 444D4132 		.ascii	"DMA2_Stream5_IRQn\000"
 4359      5F537472 
 4359      65616D35 
 4359      5F495251 
 4359      6E00
 4360              	.LASF15:
 4361 0233 74737461 		.ascii	"tstate_t\000"
 4361      74655F74 
 4361      00
 4362              	.LASF40:
 4363 023c 705F6D74 		.ascii	"p_mtxlist\000"
 4363      786C6973 
 4363      7400
 4364              	.LASF111:
 4365 0246 54494D31 		.ascii	"TIM1_TRG_COM_TIM11_IRQn\000"
 4365      5F545247 
 4365      5F434F4D 
 4365      5F54494D 
 4365      31315F49 
 4366              	.LASF205:
 4367 025e 6F717565 		.ascii	"oqueue\000"
 4367      756500
 4368              	.LASF45:
 4369 0265 72656761 		.ascii	"regarm_t\000"
 4369      726D5F74 
 4369      00
 4370              	.LASF181:
 4371 026e 41504232 		.ascii	"APB2ENR\000"
 4371      454E5200 
 4372              	.LASF183:
 4373 0276 41484231 		.ascii	"AHB1LPENR\000"
 4373      4C50454E 
 4373      5200
 4374              	.LASF84:
 4375 0280 53797354 		.ascii	"SysTick_IRQn\000"
ARM GAS  C:\Users\DNIEL~1\AppData\Local\Temp\cciNsdV0.s 			page 80


 4375      69636B5F 
 4375      4952516E 
 4375      00
 4376              	.LASF124:
 4377 028d 55534152 		.ascii	"USART3_IRQn\000"
 4377      54335F49 
 4377      52516E00 
 4378              	.LASF206:
 4379 0299 75736172 		.ascii	"usart\000"
 4379      7400
 4380              	.LASF1:
 4381 029f 7369676E 		.ascii	"signed char\000"
 4381      65642063 
 4381      68617200 
 4382              	.LASF34:
 4383 02ab 705F7072 		.ascii	"p_preempt\000"
 4383      65656D70 
 4383      7400
 4384              	.LASF3:
 4385 02b5 75696E74 		.ascii	"uint8_t\000"
 4385      385F7400 
 4386              	.LASF20:
 4387 02bd 6576656E 		.ascii	"eventmask_t\000"
 4387      746D6173 
 4387      6B5F7400 
 4388              	.LASF47:
 4389 02c9 636F6E74 		.ascii	"context\000"
 4389      65787400 
 4390              	.LASF98:
 4391 02d1 444D4131 		.ascii	"DMA1_Stream2_IRQn\000"
 4391      5F537472 
 4391      65616D32 
 4391      5F495251 
 4391      6E00
 4392              	.LASF172:
 4393 02e3 52455345 		.ascii	"RESERVED0\000"
 4393      52564544 
 4393      3000
 4394              	.LASF175:
 4395 02ed 52455345 		.ascii	"RESERVED1\000"
 4395      52564544 
 4395      3100
 4396              	.LASF4:
 4397 02f7 756E7369 		.ascii	"unsigned char\000"
 4397      676E6564 
 4397      20636861 
 4397      7200
 4398              	.LASF145:
 4399 0305 444D4132 		.ascii	"DMA2_Stream4_IRQn\000"
 4399      5F537472 
 4399      65616D34 
 4399      5F495251 
 4399      6E00
 4400              	.LASF186:
 4401 0317 52455345 		.ascii	"RESERVED4\000"
 4401      52564544 
 4401      3400
ARM GAS  C:\Users\DNIEL~1\AppData\Local\Temp\cciNsdV0.s 			page 81


 4402              	.LASF73:
 4403 0321 715F6C69 		.ascii	"q_link\000"
 4403      6E6B00
 4404              	.LASF191:
 4405 0328 52455345 		.ascii	"RESERVED6\000"
 4405      52564544 
 4405      3600
 4406              	.LASF117:
 4407 0332 49324331 		.ascii	"I2C1_ER_IRQn\000"
 4407      5F45525F 
 4407      4952516E 
 4407      00
 4408              	.LASF151:
 4409 033f 43414E32 		.ascii	"CAN2_SCE_IRQn\000"
 4409      5F534345 
 4409      5F495251 
 4409      6E00
 4410              	.LASF197:
 4411 034d 53445F55 		.ascii	"SD_UNINIT\000"
 4411      4E494E49 
 4411      5400
 4412              	.LASF179:
 4413 0357 52455345 		.ascii	"RESERVED2\000"
 4413      52564544 
 4413      3200
 4414              	.LASF182:
 4415 0361 52455345 		.ascii	"RESERVED3\000"
 4415      52564544 
 4415      3300
 4416              	.LASF135:
 4417 036b 54494D35 		.ascii	"TIM5_IRQn\000"
 4417      5F495251 
 4417      6E00
 4418              	.LASF189:
 4419 0375 52455345 		.ascii	"RESERVED5\000"
 4419      52564544 
 4419      3500
 4420              	.LASF80:
 4421 037f 55736167 		.ascii	"UsageFault_IRQn\000"
 4421      65466175 
 4421      6C745F49 
 4421      52516E00 
 4422              	.LASF64:
 4423 038f 63686172 		.ascii	"char\000"
 4423      00
 4424              	.LASF26:
 4425 0394 705F7072 		.ascii	"p_prio\000"
 4425      696F00
 4426              	.LASF177:
 4427 039b 41484232 		.ascii	"AHB2ENR\000"
 4427      454E5200 
 4428              	.LASF65:
 4429 03a3 47656E65 		.ascii	"GenericQueue\000"
 4429      72696351 
 4429      75657565 
 4429      00
 4430              	.LASF62:
ARM GAS  C:\Users\DNIEL~1\AppData\Local\Temp\cciNsdV0.s 			page 82


 4431 03b0 77746F62 		.ascii	"wtobjp\000"
 4431      6A7000
 4432              	.LASF105:
 4433 03b7 43414E31 		.ascii	"CAN1_RX0_IRQn\000"
 4433      5F525830 
 4433      5F495251 
 4433      6E00
 4434              	.LASF216:
 4435 03c5 67657474 		.ascii	"gett\000"
 4435      00
 4436              	.LASF196:
 4437 03ca 55534152 		.ascii	"USART_TypeDef\000"
 4437      545F5479 
 4437      70654465 
 4437      6600
 4438              	.LASF76:
 4439 03d8 4F757470 		.ascii	"OutputQueue\000"
 4439      75745175 
 4439      65756500 
 4440              	.LASF115:
 4441 03e4 54494D34 		.ascii	"TIM4_IRQn\000"
 4441      5F495251 
 4441      6E00
 4442              	.LASF123:
 4443 03ee 55534152 		.ascii	"USART2_IRQn\000"
 4443      54325F49 
 4443      52516E00 
 4444              	.LASF190:
 4445 03fa 42444352 		.ascii	"BDCR\000"
 4445      00
 4446              	.LASF116:
 4447 03ff 49324331 		.ascii	"I2C1_EV_IRQn\000"
 4447      5F45565F 
 4447      4952516E 
 4447      00
 4448              	.LASF46:
 4449 040c 696E7463 		.ascii	"intctx\000"
 4449      747800
 4450              	.LASF39:
 4451 0413 705F6570 		.ascii	"p_epending\000"
 4451      656E6469 
 4451      6E6700
 4452              	.LASF168:
 4453 041e 43464752 		.ascii	"CFGR\000"
 4453      00
 4454              	.LASF112:
 4455 0423 54494D31 		.ascii	"TIM1_CC_IRQn\000"
 4455      5F43435F 
 4455      4952516E 
 4455      00
 4456              	.LASF165:
 4457 0430 48415348 		.ascii	"HASH_RNG_IRQn\000"
 4457      5F524E47 
 4457      5F495251 
 4457      6E00
 4458              	.LASF92:
 4459 043e 45585449 		.ascii	"EXTI1_IRQn\000"
ARM GAS  C:\Users\DNIEL~1\AppData\Local\Temp\cciNsdV0.s 			page 83


 4459      315F4952 
 4459      516E00
 4460              	.LASF104:
 4461 0449 43414E31 		.ascii	"CAN1_TX_IRQn\000"
 4461      5F54585F 
 4461      4952516E 
 4461      00
 4462              	.LASF101:
 4463 0456 444D4131 		.ascii	"DMA1_Stream5_IRQn\000"
 4463      5F537472 
 4463      65616D35 
 4463      5F495251 
 4463      6E00
 4464              	.LASF130:
 4465 0468 54494D38 		.ascii	"TIM8_TRG_COM_TIM14_IRQn\000"
 4465      5F545247 
 4465      5F434F4D 
 4465      5F54494D 
 4465      31345F49 
 4466              	.LASF59:
 4467 0480 65735F6E 		.ascii	"es_next\000"
 4467      65787400 
 4468              	.LASF67:
 4469 0488 715F636F 		.ascii	"q_counter\000"
 4469      756E7465 
 4469      7200
 4470              	.LASF152:
 4471 0492 4F54475F 		.ascii	"OTG_FS_IRQn\000"
 4471      46535F49 
 4471      52516E00 
 4472              	.LASF77:
 4473 049e 4E6F6E4D 		.ascii	"NonMaskableInt_IRQn\000"
 4473      61736B61 
 4473      626C6549 
 4473      6E745F49 
 4473      52516E00 
 4474              	.LASF133:
 4475 04b2 46534D43 		.ascii	"FSMC_IRQn\000"
 4475      5F495251 
 4475      6E00
 4476              	.LASF58:
 4477 04bc 4576656E 		.ascii	"EventSource\000"
 4477      74536F75 
 4477      72636500 
 4478              	.LASF85:
 4479 04c8 57574447 		.ascii	"WWDG_IRQn\000"
 4479      5F495251 
 4479      6E00
 4480              	.LASF11:
 4481 04d2 6C6F6E67 		.ascii	"long unsigned int\000"
 4481      20756E73 
 4481      69676E65 
 4481      6420696E 
 4481      7400
 4482              	.LASF78:
 4483 04e4 4D656D6F 		.ascii	"MemoryManagement_IRQn\000"
 4483      72794D61 
ARM GAS  C:\Users\DNIEL~1\AppData\Local\Temp\cciNsdV0.s 			page 84


 4483      6E616765 
 4483      6D656E74 
 4483      5F495251 
 4484              	.LASF87:
 4485 04fa 54414D50 		.ascii	"TAMP_STAMP_IRQn\000"
 4485      5F535441 
 4485      4D505F49 
 4485      52516E00 
 4486              	.LASF107:
 4487 050a 43414E31 		.ascii	"CAN1_SCE_IRQn\000"
 4487      5F534345 
 4487      5F495251 
 4487      6E00
 4488              	.LASF54:
 4489 0518 656C5F6E 		.ascii	"el_next\000"
 4489      65787400 
 4490              	.LASF70:
 4491 0520 715F7772 		.ascii	"q_wrptr\000"
 4491      70747200 
 4492              	.LASF212:
 4493 0528 53657269 		.ascii	"SerialDriverVMT\000"
 4493      616C4472 
 4493      69766572 
 4493      564D5400 
 4494              	.LASF219:
 4495 0538 75736172 		.ascii	"usart_deinit\000"
 4495      745F6465 
 4495      696E6974 
 4495      00
 4496              	.LASF119:
 4497 0545 49324332 		.ascii	"I2C2_ER_IRQn\000"
 4497      5F45525F 
 4497      4952516E 
 4497      00
 4498              	.LASF79:
 4499 0552 42757346 		.ascii	"BusFault_IRQn\000"
 4499      61756C74 
 4499      5F495251 
 4499      6E00
 4500              	.LASF223:
 4501 0560 73645F6C 		.ascii	"sd_lld_init\000"
 4501      6C645F69 
 4501      6E697400 
 4502              	.LASF167:
 4503 056c 504C4C43 		.ascii	"PLLCFGR\000"
 4503      46475200 
 4504              	.LASF138:
 4505 0574 55415254 		.ascii	"UART5_IRQn\000"
 4505      355F4952 
 4505      516E00
 4506              	.LASF109:
 4507 057f 54494D31 		.ascii	"TIM1_BRK_TIM9_IRQn\000"
 4507      5F42524B 
 4507      5F54494D 
 4507      395F4952 
 4507      516E00
 4508              	.LASF208:
ARM GAS  C:\Users\DNIEL~1\AppData\Local\Temp\cciNsdV0.s 			page 85


 4509 0592 73635F63 		.ascii	"sc_cr1\000"
 4509      723100
 4510              	.LASF209:
 4511 0599 73635F63 		.ascii	"sc_cr2\000"
 4511      723200
 4512              	.LASF210:
 4513 05a0 73635F63 		.ascii	"sc_cr3\000"
 4513      723300
 4514              	.LASF49:
 4515 05a7 4D757465 		.ascii	"Mutex\000"
 4515      7800
 4516              	.LASF230:
 4517 05ad 7364496E 		.ascii	"sdIncomingDataI\000"
 4517      636F6D69 
 4517      6E674461 
 4517      74614900 
 4518              	.LASF140:
 4519 05bd 54494D37 		.ascii	"TIM7_IRQn\000"
 4519      5F495251 
 4519      6E00
 4520              	.LASF12:
 4521 05c7 6C6F6E67 		.ascii	"long long int\000"
 4521      206C6F6E 
 4521      6720696E 
 4521      7400
 4522              	.LASF147:
 4523 05d5 4554485F 		.ascii	"ETH_WKUP_IRQn\000"
 4523      574B5550 
 4523      5F495251 
 4523      6E00
 4524              	.LASF121:
 4525 05e3 53504932 		.ascii	"SPI2_IRQn\000"
 4525      5F495251 
 4525      6E00
 4526              	.LASF162:
 4527 05ed 4F54475F 		.ascii	"OTG_HS_IRQn\000"
 4527      48535F49 
 4527      52516E00 
 4528              	.LASF50:
 4529 05f9 6D5F7175 		.ascii	"m_queue\000"
 4529      65756500 
 4530              	.LASF192:
 4531 0601 53534347 		.ascii	"SSCGR\000"
 4531      5200
 4532              	.LASF120:
 4533 0607 53504931 		.ascii	"SPI1_IRQn\000"
 4533      5F495251 
 4533      6E00
 4534              	.LASF81:
 4535 0611 53564361 		.ascii	"SVCall_IRQn\000"
 4535      6C6C5F49 
 4535      52516E00 
 4536              	.LASF174:
 4537 061d 41504232 		.ascii	"APB2RSTR\000"
 4537      52535452 
 4537      00
 4538              	.LASF166:
ARM GAS  C:\Users\DNIEL~1\AppData\Local\Temp\cciNsdV0.s 			page 86


 4539 0626 4650555F 		.ascii	"FPU_IRQn\000"
 4539      4952516E 
 4539      00
 4540              	.LASF137:
 4541 062f 55415254 		.ascii	"UART4_IRQn\000"
 4541      345F4952 
 4541      516E00
 4542              	.LASF188:
 4543 063a 41504232 		.ascii	"APB2LPENR\000"
 4543      4C50454E 
 4543      5200
 4544              	.LASF74:
 4545 0644 716E6F74 		.ascii	"qnotify_t\000"
 4545      6966795F 
 4545      7400
 4546              	.LASF36:
 4547 064e 705F7761 		.ascii	"p_waiting\000"
 4547      6974696E 
 4547      6700
 4548              	.LASF141:
 4549 0658 444D4132 		.ascii	"DMA2_Stream0_IRQn\000"
 4549      5F537472 
 4549      65616D30 
 4549      5F495251 
 4549      6E00
 4550              	.LASF202:
 4551 066a 6576656E 		.ascii	"event\000"
 4551      7400
 4552              	.LASF127:
 4553 0670 4F54475F 		.ascii	"OTG_FS_WKUP_IRQn\000"
 4553      46535F57 
 4553      4B55505F 
 4553      4952516E 
 4553      00
 4554              	.LASF32:
 4555 0681 705F666C 		.ascii	"p_flags\000"
 4555      61677300 
 4556              	.LASF214:
 4557 0689 72656164 		.ascii	"read\000"
 4557      00
 4558              	.LASF0:
 4559 068e 756E7369 		.ascii	"unsigned int\000"
 4559      676E6564 
 4559      20696E74 
 4559      00
 4560              	.LASF139:
 4561 069b 54494D36 		.ascii	"TIM6_DAC_IRQn\000"
 4561      5F444143 
 4561      5F495251 
 4561      6E00
 4562              	.LASF42:
 4563 06a9 705F6D70 		.ascii	"p_mpool\000"
 4563      6F6F6C00 
 4564              	.LASF118:
 4565 06b1 49324332 		.ascii	"I2C2_EV_IRQn\000"
 4565      5F45565F 
 4565      4952516E 
ARM GAS  C:\Users\DNIEL~1\AppData\Local\Temp\cciNsdV0.s 			page 87


 4565      00
 4566              	.LASF33:
 4567 06be 705F7265 		.ascii	"p_refs\000"
 4567      667300
 4568              	.LASF239:
 4569 06c5 63684F51 		.ascii	"chOQGetI\000"
 4569      47657449 
 4569      00
 4570              	.LASF207:
 4571 06ce 73635F73 		.ascii	"sc_speed\000"
 4571      70656564 
 4571      00
 4572              	.LASF240:
 4573 06d7 5F706F72 		.ascii	"_port_irq_epilogue\000"
 4573      745F6972 
 4573      715F6570 
 4573      696C6F67 
 4573      756500
 4574              	.LASF44:
 4575 06ea 54687265 		.ascii	"ThreadsList\000"
 4575      6164734C 
 4575      69737400 
 4576              	.LASF187:
 4577 06f6 41504231 		.ascii	"APB1LPENR\000"
 4577      4C50454E 
 4577      5200
 4578              	.LASF97:
 4579 0700 444D4131 		.ascii	"DMA1_Stream1_IRQn\000"
 4579      5F537472 
 4579      65616D31 
 4579      5F495251 
 4579      6E00
 4580              	.LASF21:
 4581 0712 666C6167 		.ascii	"flagsmask_t\000"
 4581      736D6173 
 4581      6B5F7400 
 4582              	.LASF144:
 4583 071e 444D4132 		.ascii	"DMA2_Stream3_IRQn\000"
 4583      5F537472 
 4583      65616D33 
 4583      5F495251 
 4583      6E00
 4584              	.LASF148:
 4585 0730 43414E32 		.ascii	"CAN2_TX_IRQn\000"
 4585      5F54585F 
 4585      4952516E 
 4585      00
 4586              	.LASF35:
 4587 073d 705F7469 		.ascii	"p_time\000"
 4587      6D6500
 4588              	.LASF236:
 4589 0744 4952516E 		.ascii	"IRQn\000"
 4589      00
 4590              	.LASF102:
 4591 0749 444D4131 		.ascii	"DMA1_Stream6_IRQn\000"
 4591      5F537472 
 4591      65616D36 
ARM GAS  C:\Users\DNIEL~1\AppData\Local\Temp\cciNsdV0.s 			page 88


 4591      5F495251 
 4591      6E00
 4592              	.LASF233:
 4593 075b 474E5520 		.ascii	"GNU C 4.7.4 20140401 (release) [ARM/embedded-4_7-br"
 4593      4320342E 
 4593      372E3420 
 4593      32303134 
 4593      30343031 
 4594 078e 616E6368 		.ascii	"anch revision 209195]\000"
 4594      20726576 
 4594      6973696F 
 4594      6E203230 
 4594      39313935 
 4595              	.LASF229:
 4596 07a4 63684576 		.ascii	"chEvtBroadcastFlagsI\000"
 4596      7442726F 
 4596      61646361 
 4596      7374466C 
 4596      61677349 
 4597              	.LASF171:
 4598 07b9 41484233 		.ascii	"AHB3RSTR\000"
 4598      52535452 
 4598      00
 4599              	.LASF241:
 4600 07c2 6E766963 		.ascii	"nvicDisableVector\000"
 4600      44697361 
 4600      626C6556 
 4600      6563746F 
 4600      7200
 4601              	.LASF41:
 4602 07d4 705F7265 		.ascii	"p_realprio\000"
 4602      616C7072 
 4602      696F00
 4603              	.LASF155:
 4604 07df 444D4132 		.ascii	"DMA2_Stream7_IRQn\000"
 4604      5F537472 
 4604      65616D37 
 4604      5F495251 
 4604      6E00
 4605              	.LASF96:
 4606 07f1 444D4131 		.ascii	"DMA1_Stream0_IRQn\000"
 4606      5F537472 
 4606      65616D30 
 4606      5F495251 
 4606      6E00
 4607              	.LASF173:
 4608 0803 41504231 		.ascii	"APB1RSTR\000"
 4608      52535452 
 4608      00
 4609              	.LASF224:
 4610 080c 75736172 		.ascii	"usart_init\000"
 4610      745F696E 
 4610      697400
 4611              	.LASF126:
 4612 0817 5254435F 		.ascii	"RTC_Alarm_IRQn\000"
 4612      416C6172 
 4612      6D5F4952 
ARM GAS  C:\Users\DNIEL~1\AppData\Local\Temp\cciNsdV0.s 			page 89


 4612      516E00
 4613              	.LASF180:
 4614 0826 41504231 		.ascii	"APB1ENR\000"
 4614      454E5200 
 4615              	.LASF158:
 4616 082e 49324333 		.ascii	"I2C3_ER_IRQn\000"
 4616      5F45525F 
 4616      4952516E 
 4616      00
 4617              	.LASF164:
 4618 083b 43525950 		.ascii	"CRYP_IRQn\000"
 4618      5F495251 
 4618      6E00
 4619              	.LASF125:
 4620 0845 45585449 		.ascii	"EXTI15_10_IRQn\000"
 4620      31355F31 
 4620      305F4952 
 4620      516E00
 4621              	.LASF13:
 4622 0854 6C6F6E67 		.ascii	"long long unsigned int\000"
 4622      206C6F6E 
 4622      6720756E 
 4622      7369676E 
 4622      65642069 
 4623              	.LASF29:
 4624 086b 705F6F6C 		.ascii	"p_older\000"
 4624      64657200 
 4625              	.LASF6:
 4626 0873 75696E74 		.ascii	"uint16_t\000"
 4626      31365F74 
 4626      00
 4627              	.LASF19:
 4628 087c 6D73675F 		.ascii	"msg_t\000"
 4628      7400
 4629              	.LASF114:
 4630 0882 54494D33 		.ascii	"TIM3_IRQn\000"
 4630      5F495251 
 4630      6E00
 4631              	.LASF122:
 4632 088c 55534152 		.ascii	"USART1_IRQn\000"
 4632      54315F49 
 4632      52516E00 
 4633              	.LASF17:
 4634 0898 74736C69 		.ascii	"tslices_t\000"
 4634      6365735F 
 4634      7400
 4635              	.LASF93:
 4636 08a2 45585449 		.ascii	"EXTI2_IRQn\000"
 4636      325F4952 
 4636      516E00
 4637              	.LASF150:
 4638 08ad 43414E32 		.ascii	"CAN2_RX1_IRQn\000"
 4638      5F525831 
 4638      5F495251 
 4638      6E00
 4639              	.LASF103:
 4640 08bb 4144435F 		.ascii	"ADC_IRQn\000"
ARM GAS  C:\Users\DNIEL~1\AppData\Local\Temp\cciNsdV0.s 			page 90


 4640      4952516E 
 4640      00
 4641              	.LASF185:
 4642 08c4 41484233 		.ascii	"AHB3LPENR\000"
 4642      4C50454E 
 4642      5200
 4643              	.LASF86:
 4644 08ce 5056445F 		.ascii	"PVD_IRQn\000"
 4644      4952516E 
 4644      00
 4645              	.LASF201:
 4646 08d7 53657269 		.ascii	"SerialDriver\000"
 4646      616C4472 
 4646      69766572 
 4646      00
 4647              	.LASF66:
 4648 08e4 715F7761 		.ascii	"q_waiting\000"
 4648      6974696E 
 4648      6700
 4649              	.LASF91:
 4650 08ee 45585449 		.ascii	"EXTI0_IRQn\000"
 4650      305F4952 
 4650      516E00
 4651              	.LASF14:
 4652 08f9 746D6F64 		.ascii	"tmode_t\000"
 4652      655F7400 
 4653              	.LASF100:
 4654 0901 444D4131 		.ascii	"DMA1_Stream4_IRQn\000"
 4654      5F537472 
 4654      65616D34 
 4654      5F495251 
 4654      6E00
 4655              	.LASF200:
 4656 0913 73647374 		.ascii	"sdstate_t\000"
 4656      6174655F 
 4656      7400
 4657              	.LASF154:
 4658 091d 444D4132 		.ascii	"DMA2_Stream6_IRQn\000"
 4658      5F537472 
 4658      65616D36 
 4658      5F495251 
 4658      6E00
 4659              	.LASF176:
 4660 092f 41484231 		.ascii	"AHB1ENR\000"
 4660      454E5200 
 4661              	.LASF82:
 4662 0937 44656275 		.ascii	"DebugMonitor_IRQn\000"
 4662      674D6F6E 
 4662      69746F72 
 4662      5F495251 
 4662      6E00
 4663              	.LASF199:
 4664 0949 53445F52 		.ascii	"SD_READY\000"
 4664      45414459 
 4664      00
 4665              	.LASF157:
 4666 0952 49324333 		.ascii	"I2C3_EV_IRQn\000"
ARM GAS  C:\Users\DNIEL~1\AppData\Local\Temp\cciNsdV0.s 			page 91


 4666      5F45565F 
 4666      4952516E 
 4666      00
 4667              	.LASF170:
 4668 095f 41484232 		.ascii	"AHB2RSTR\000"
 4668      52535452 
 4668      00
 4669              	.LASF146:
 4670 0968 4554485F 		.ascii	"ETH_IRQn\000"
 4670      4952516E 
 4670      00
 4671              	.LASF237:
 4672 0971 6E6F7469 		.ascii	"notify1\000"
 4672      66793100 
 4673              	.LASF194:
 4674 0979 5243435F 		.ascii	"RCC_TypeDef\000"
 4674      54797065 
 4674      44656600 
 4675              	.LASF5:
 4676 0985 73686F72 		.ascii	"short int\000"
 4676      7420696E 
 4676      7400
 4677              	.LASF90:
 4678 098f 5243435F 		.ascii	"RCC_IRQn\000"
 4678      4952516E 
 4678      00
 4679              	.LASF204:
 4680 0998 69717565 		.ascii	"iqueue\000"
 4680      756500
 4681              	.LASF99:
 4682 099f 444D4131 		.ascii	"DMA1_Stream3_IRQn\000"
 4682      5F537472 
 4682      65616D33 
 4682      5F495251 
 4682      6E00
 4683              	.LASF23:
 4684 09b1 54687265 		.ascii	"Thread\000"
 4684      616400
 4685              	.LASF110:
 4686 09b8 54494D31 		.ascii	"TIM1_UP_TIM10_IRQn\000"
 4686      5F55505F 
 4686      54494D31 
 4686      305F4952 
 4686      516E00
 4687              	.LASF228:
 4688 09cb 49544D5F 		.ascii	"ITM_RxBuffer\000"
 4688      52784275 
 4688      66666572 
 4688      00
 4689              	.LASF16:
 4690 09d8 74726566 		.ascii	"trefs_t\000"
 4690      735F7400 
 4691              	.LASF159:
 4692 09e0 4F54475F 		.ascii	"OTG_HS_EP1_OUT_IRQn\000"
 4692      48535F45 
 4692      50315F4F 
 4692      55545F49 
ARM GAS  C:\Users\DNIEL~1\AppData\Local\Temp\cciNsdV0.s 			page 92


 4692      52516E00 
 4693              	.LASF88:
 4694 09f4 5254435F 		.ascii	"RTC_WKUP_IRQn\000"
 4694      574B5550 
 4694      5F495251 
 4694      6E00
 4695              	.LASF53:
 4696 0a02 4576656E 		.ascii	"EventListener\000"
 4696      744C6973 
 4696      74656E65 
 4696      7200
 4697              	.LASF232:
 4698 0a10 6E766963 		.ascii	"nvicEnableVector\000"
 4698      456E6162 
 4698      6C655665 
 4698      63746F72 
 4698      00
 4699              	.LASF10:
 4700 0a21 75696E74 		.ascii	"uint32_t\000"
 4700      33325F74 
 4700      00
 4701              	.LASF222:
 4702 0a2a 56656374 		.ascii	"VectorD4\000"
 4702      6F724434 
 4702      00
 4703              	.LASF106:
 4704 0a33 43414E31 		.ascii	"CAN1_RX1_IRQn\000"
 4704      5F525831 
 4704      5F495251 
 4704      6E00
 4705              	.LASF43:
 4706 0a41 54687265 		.ascii	"ThreadsQueue\000"
 4706      61647351 
 4706      75657565 
 4706      00
 4707              	.LASF108:
 4708 0a4e 45585449 		.ascii	"EXTI9_5_IRQn\000"
 4708      395F355F 
 4708      4952516E 
 4708      00
 4709              	.LASF60:
 4710 0a5b 7264796D 		.ascii	"rdymsg\000"
 4710      736700
 4711              	.LASF95:
 4712 0a62 45585449 		.ascii	"EXTI4_IRQn\000"
 4712      345F4952 
 4712      516E00
 4713              	.LASF7:
 4714 0a6d 73686F72 		.ascii	"short unsigned int\000"
 4714      7420756E 
 4714      7369676E 
 4714      65642069 
 4714      6E7400
 4715              	.LASF227:
 4716 0a80 73645F6C 		.ascii	"sd_lld_stop\000"
 4716      6C645F73 
 4716      746F7000 
ARM GAS  C:\Users\DNIEL~1\AppData\Local\Temp\cciNsdV0.s 			page 93


 4717              	.LASF131:
 4718 0a8c 54494D38 		.ascii	"TIM8_CC_IRQn\000"
 4718      5F43435F 
 4718      4952516E 
 4718      00
 4719              	.LASF134:
 4720 0a99 5344494F 		.ascii	"SDIO_IRQn\000"
 4720      5F495251 
 4720      6E00
 4721              	.LASF75:
 4722 0aa3 496E7075 		.ascii	"InputQueue\000"
 4722      74517565 
 4722      756500
 4723              	.LASF94:
 4724 0aae 45585449 		.ascii	"EXTI3_IRQn\000"
 4724      335F4952 
 4724      516E00
 4725              	.LASF83:
 4726 0ab9 50656E64 		.ascii	"PendSV_IRQn\000"
 4726      53565F49 
 4726      52516E00 
 4727              	.LASF160:
 4728 0ac5 4F54475F 		.ascii	"OTG_HS_EP1_IN_IRQn\000"
 4728      48535F45 
 4728      50315F49 
 4728      4E5F4952 
 4728      516E00
 4729              	.LASF132:
 4730 0ad8 444D4131 		.ascii	"DMA1_Stream7_IRQn\000"
 4730      5F537472 
 4730      65616D37 
 4730      5F495251 
 4730      6E00
 4731              	.LASF169:
 4732 0aea 41484231 		.ascii	"AHB1RSTR\000"
 4732      52535452 
 4732      00
 4733              	.LASF198:
 4734 0af3 53445F53 		.ascii	"SD_STOP\000"
 4734      544F5000 
 4735              	.LASF56:
 4736 0afb 656C5F6D 		.ascii	"el_mask\000"
 4736      61736B00 
 4737              	.LASF30:
 4738 0b03 705F6E61 		.ascii	"p_name\000"
 4738      6D6500
 4739              	.LASF52:
 4740 0b0a 6D5F6E65 		.ascii	"m_next\000"
 4740      787400
 4741              	.LASF178:
 4742 0b11 41484233 		.ascii	"AHB3ENR\000"
 4742      454E5200 
 4743              	.LASF143:
 4744 0b19 444D4132 		.ascii	"DMA2_Stream2_IRQn\000"
 4744      5F537472 
 4744      65616D32 
 4744      5F495251 
ARM GAS  C:\Users\DNIEL~1\AppData\Local\Temp\cciNsdV0.s 			page 94


 4744      6E00
 4745              	.LASF38:
 4746 0b2b 705F6D73 		.ascii	"p_msg\000"
 4746      6700
 4747              	.LASF55:
 4748 0b31 656C5F6C 		.ascii	"el_listener\000"
 4748      69737465 
 4748      6E657200 
 4749              	.LASF31:
 4750 0b3d 705F7374 		.ascii	"p_state\000"
 4750      61746500 
 4751              		.ident	"GCC: (GNU Tools for ARM Embedded Processors) 4.7.4 20140401 (release) [ARM/embedded-4_7-br
ARM GAS  C:\Users\DNIEL~1\AppData\Local\Temp\cciNsdV0.s 			page 95


DEFINED SYMBOLS
                            *ABS*:00000000 serial_lld.c
C:\Users\DNIEL~1\AppData\Local\Temp\cciNsdV0.s:19     .text.notify1:00000000 $t
C:\Users\DNIEL~1\AppData\Local\Temp\cciNsdV0.s:24     .text.notify1:00000000 notify1
C:\Users\DNIEL~1\AppData\Local\Temp\cciNsdV0.s:46     .text.VectorD4:00000000 $t
C:\Users\DNIEL~1\AppData\Local\Temp\cciNsdV0.s:52     .text.VectorD4:00000000 VectorD4
C:\Users\DNIEL~1\AppData\Local\Temp\cciNsdV0.s:345    .text.VectorD4:00000120 $d
C:\Users\DNIEL~1\AppData\Local\Temp\cciNsdV0.s:355    .text.sd_lld_init:00000000 $t
C:\Users\DNIEL~1\AppData\Local\Temp\cciNsdV0.s:361    .text.sd_lld_init:00000000 sd_lld_init
C:\Users\DNIEL~1\AppData\Local\Temp\cciNsdV0.s:611    .bss.SD1:00000000 .LANCHOR0
C:\Users\DNIEL~1\AppData\Local\Temp\cciNsdV0.s:390    .text.sd_lld_start:00000000 $t
C:\Users\DNIEL~1\AppData\Local\Temp\cciNsdV0.s:396    .text.sd_lld_start:00000000 sd_lld_start
C:\Users\DNIEL~1\AppData\Local\Temp\cciNsdV0.s:521    .text.sd_lld_start:0000009c $d
C:\Users\DNIEL~1\AppData\Local\Temp\cciNsdV0.s:529    .text.sd_lld_stop:00000000 $t
C:\Users\DNIEL~1\AppData\Local\Temp\cciNsdV0.s:535    .text.sd_lld_stop:00000000 sd_lld_stop
C:\Users\DNIEL~1\AppData\Local\Temp\cciNsdV0.s:593    .text.sd_lld_stop:00000030 $d
C:\Users\DNIEL~1\AppData\Local\Temp\cciNsdV0.s:614    .bss.SD1:00000000 SD1
C:\Users\DNIEL~1\AppData\Local\Temp\cciNsdV0.s:599    .rodata.default_config:00000000 $d
C:\Users\DNIEL~1\AppData\Local\Temp\cciNsdV0.s:603    .rodata.default_config:00000000 default_config
C:\Users\DNIEL~1\AppData\Local\Temp\cciNsdV0.s:610    .bss.SD1:00000000 $d
                     .debug_frame:00000010 $d
C:\Users\DNIEL~1\AppData\Local\Temp\cciNsdV0.s:354    .text.VectorD4:0000012c $t
C:\Users\DNIEL~1\AppData\Local\Temp\cciNsdV0.s:528    .text.sd_lld_start:000000a4 $t
C:\Users\DNIEL~1\AppData\Local\Temp\cciNsdV0.s:598    .text.sd_lld_stop:00000034 $t

UNDEFINED SYMBOLS
chEvtBroadcastFlagsI
_port_irq_epilogue
sdIncomingDataI
chOQGetI
sdObjectInit
nvicEnableVector
nvicDisableVector
