ARM GAS  C:\Users\DNIEL~1\AppData\Local\Temp\cciNsdV0.s 			page 1


   1              		.syntax unified
   2              		.cpu cortex-m4
   3              		.fpu softvfp
   4              		.eabi_attribute 20, 1
   5              		.eabi_attribute 21, 1
   6              		.eabi_attribute 23, 3
   7              		.eabi_attribute 24, 1
   8              		.eabi_attribute 25, 1
   9              		.eabi_attribute 26, 1
  10              		.eabi_attribute 30, 2
  11              		.eabi_attribute 34, 1
  12              		.eabi_attribute 18, 4
  13              		.thumb
  14              		.file	"serial_lld.c"
  15              		.text
  16              	.Ltext0:
  17              		.cfi_sections	.debug_frame
  18              		.section	.text.notify1,"ax",%progbits
  19              		.align	2
  20              		.p2align 4,,15
  21              		.thumb
  22              		.thumb_func
  23              		.type	notify1, %function
  24              	notify1:
  25              	.LFB122:
  26              		.file 1 "../../../ChibiOS/os/hal/platforms/STM32/serial_lld.c"
  27              		.loc 1 323 0
  28              		.cfi_startproc
  29              		@ args = 0, pretend = 0, frame = 0
  30              		@ frame_needed = 0, uses_anonymous_args = 0
  31              		@ link register save eliminated.
  32              	.LVL0:
  33              		.loc 1 326 0
  34 0000 4FF48053 		mov	r3, #4096
  35 0004 C4F20103 		movt	r3, 16385
  36 0008 9A89     		ldrh	r2, [r3, #12]
  37 000a 90B2     		uxth	r0, r2
  38              	.LVL1:
  39 000c 40F08001 		orr	r1, r0, #128
  40 0010 9981     		strh	r1, [r3, #12]	@ movhi
  41 0012 7047     		bx	lr
  42              		.cfi_endproc
  43              	.LFE122:
  44              		.size	notify1, .-notify1
  45 0014 AFF30080 		.section	.text.VectorD4,"ax",%progbits
  45      AFF30080 
  45      AFF30080 
  46              		.align	2
  47              		.p2align 4,,15
  48              		.global	VectorD4
  49              		.thumb
  50              		.thumb_func
  51              		.type	VectorD4, %function
  52              	VectorD4:
  53              	.LFB123:
  54              		.loc 1 383 0
  55              		.cfi_startproc
ARM GAS  C:\Users\DNIEL~1\AppData\Local\Temp\cciNsdV0.s 			page 2


  56              		@ args = 0, pretend = 0, frame = 0
  57              		@ frame_needed = 0, uses_anonymous_args = 0
  58              	.LVL2:
  59 0000 F8B5     		push	{r3, r4, r5, r6, r7, lr}
  60              	.LCFI0:
  61              		.cfi_def_cfa_offset 24
  62              		.cfi_offset 3, -24
  63              		.cfi_offset 4, -20
  64              		.cfi_offset 5, -16
  65              		.cfi_offset 6, -12
  66              		.cfi_offset 7, -8
  67              		.cfi_offset 14, -4
  68              	.LBB30:
  69              	.LBB31:
  70              		.loc 1 276 0
  71 0002 474B     		ldr	r3, .L48
  72 0004 5D6F     		ldr	r5, [r3, #116]
  73              	.LVL3:
  74              		.loc 1 277 0
  75 0006 AE89     		ldrh	r6, [r5, #12]
  76              		.loc 1 278 0
  77 0008 2C88     		ldrh	r4, [r5, #0]
  78              		.loc 1 279 0
  79 000a A988     		ldrh	r1, [r5, #4]
  80              		.loc 1 278 0
  81 000c A4B2     		uxth	r4, r4
  82              		.loc 1 282 0
  83 000e 2207     		lsls	r2, r4, #28
  84              		.loc 1 277 0
  85 0010 B6B2     		uxth	r6, r6
  86              	.LVL4:
  87              		.loc 1 279 0
  88 0012 8FB2     		uxth	r7, r1
  89              	.LVL5:
  90              		.loc 1 282 0
  91 0014 4BD1     		bne	.L43
  92              	.LVL6:
  93              	.L3:
  94              		.loc 1 285 0
  95 0016 04F48071 		and	r1, r4, #256
  96 001a 88B2     		uxth	r0, r1
  97 001c 0028     		cmp	r0, #0
  98 001e 34D1     		bne	.L44
  99              	.L8:
 100              		.loc 1 292 0
 101 0020 04F02002 		and	r2, r4, #32
 102 0024 93B2     		uxth	r3, r2
 103              	.LVL7:
 104 0026 002B     		cmp	r3, #0
 105 0028 24D1     		bne	.L45
 106              	.LVL8:
 107              	.L9:
 108              		.loc 1 298 0
 109 002a 06F08001 		and	r1, r6, #128
 110 002e 88B2     		uxth	r0, r1
 111 0030 20B1     		cbz	r0, .L10
 112 0032 04F08002 		and	r2, r4, #128
ARM GAS  C:\Users\DNIEL~1\AppData\Local\Temp\cciNsdV0.s 			page 3


 113 0036 93B2     		uxth	r3, r2
 114              	.LVL9:
 115 0038 002B     		cmp	r3, #0
 116 003a 59D1     		bne	.L46
 117              	.LVL10:
 118              	.L10:
 119              		.loc 1 311 0
 120 003c 04F04004 		and	r4, r4, #64
 121              	.LVL11:
 122 0040 A4B2     		uxth	r4, r4
 123 0042 9CB1     		cbz	r4, .L13
 124              	.LBB32:
 125              		.loc 1 312 0
 126 0044 2023     		movs	r3, #32
 127              	.LVL12:
 128              	@ 312 "../../../ChibiOS/os/hal/platforms/STM32/serial_lld.c" 1
 129 0046 83F31188 		msr     BASEPRI, r3
 130              	@ 0 "" 2
 131              	.LVL13:
 132              		.thumb
 133              	.LBE32:
 134              		.loc 1 313 0
 135 004a 3648     		ldr	r0, .L48+4
 136 004c 1021     		movs	r1, #16
 137 004e FFF7FEFF 		bl	chEvtBroadcastFlagsI
 138              	.LVL14:
 139              	.LBB33:
 140              		.loc 1 314 0
 141 0052 0023     		movs	r3, #0
 142              	.LVL15:
 143              	@ 314 "../../../ChibiOS/os/hal/platforms/STM32/serial_lld.c" 1
 144 0054 83F31188 		msr     BASEPRI, r3
 145              	@ 0 "" 2
 146              	.LVL16:
 147              		.thumb
 148              	.LBE33:
 149              		.loc 1 315 0
 150 0058 4FF6BF73 		movw	r3, #65471
 151              	.LVL17:
 152 005c 3340     		ands	r3, r3, r6
 153 005e AB81     		strh	r3, [r5, #12]	@ movhi
 154              		.loc 1 316 0
 155 0060 2988     		ldrh	r1, [r5, #0]
 156 0062 21F04000 		bic	r0, r1, #64
 157 0066 0204     		lsls	r2, r0, #16
 158 0068 130C     		lsrs	r3, r2, #16
 159 006a 2B80     		strh	r3, [r5, #0]	@ movhi
 160              	.LVL18:
 161              	.L13:
 162              	.LBE31:
 163              	.LBE30:
 164              		.loc 1 390 0
 165 006c BDE8F840 		pop	{r3, r4, r5, r6, r7, lr}
 166              		.loc 1 389 0
 167 0070 FFF7FEBF 		b	_port_irq_epilogue
 168              	.LVL19:
 169              	.L45:
ARM GAS  C:\Users\DNIEL~1\AppData\Local\Temp\cciNsdV0.s 			page 4


 170              	.LBB46:
 171              	.LBB45:
 172              	.LBB34:
 173              		.loc 1 293 0
 174 0074 2023     		movs	r3, #32
 175              	.LVL20:
 176              	@ 293 "../../../ChibiOS/os/hal/platforms/STM32/serial_lld.c" 1
 177 0076 83F31188 		msr     BASEPRI, r3
 178              	@ 0 "" 2
 179              	.LVL21:
 180              		.thumb
 181              	.LBE34:
 182              		.loc 1 294 0
 183 007a 2948     		ldr	r0, .L48
 184 007c F9B2     		uxtb	r1, r7
 185 007e FFF7FEFF 		bl	sdIncomingDataI
 186              	.LVL22:
 187              	.LBB35:
 188              		.loc 1 295 0
 189 0082 0023     		movs	r3, #0
 190              	@ 295 "../../../ChibiOS/os/hal/platforms/STM32/serial_lld.c" 1
 191 0084 83F31188 		msr     BASEPRI, r3
 192              	@ 0 "" 2
 193              	.LVL23:
 194              		.thumb
 195 0088 CFE7     		b	.L9
 196              	.LVL24:
 197              	.L44:
 198              	.LBE35:
 199              	.LBB36:
 200              		.loc 1 286 0
 201 008a 2023     		movs	r3, #32
 202              	.LVL25:
 203              	@ 286 "../../../ChibiOS/os/hal/platforms/STM32/serial_lld.c" 1
 204 008c 83F31188 		msr     BASEPRI, r3
 205              	@ 0 "" 2
 206              	.LVL26:
 207              		.thumb
 208              	.LBE36:
 209              		.loc 1 287 0
 210 0090 2448     		ldr	r0, .L48+4
 211 0092 4FF40071 		mov	r1, #512
 212 0096 FFF7FEFF 		bl	chEvtBroadcastFlagsI
 213              	.LVL27:
 214              	.LBB37:
 215              		.loc 1 288 0
 216 009a 0023     		movs	r3, #0
 217              	.LVL28:
 218              	@ 288 "../../../ChibiOS/os/hal/platforms/STM32/serial_lld.c" 1
 219 009c 83F31188 		msr     BASEPRI, r3
 220              	@ 0 "" 2
 221              	.LVL29:
 222              		.thumb
 223              	.LBE37:
 224              		.loc 1 289 0
 225 00a0 2A88     		ldrh	r2, [r5, #0]
 226 00a2 22F48073 		bic	r3, r2, #256
ARM GAS  C:\Users\DNIEL~1\AppData\Local\Temp\cciNsdV0.s 			page 5


 227              	.LVL30:
 228 00a6 1904     		lsls	r1, r3, #16
 229 00a8 080C     		lsrs	r0, r1, #16
 230 00aa 2880     		strh	r0, [r5, #0]	@ movhi
 231 00ac B8E7     		b	.L8
 232              	.LVL31:
 233              	.L43:
 234              	.LBB38:
 235              	.LBB39:
 236              		.loc 1 257 0
 237 00ae 04F00800 		and	r0, r4, #8
 238 00b2 82B2     		uxth	r2, r0
 239              		.loc 1 258 0
 240 00b4 002A     		cmp	r2, #0
 241 00b6 14BF     		ite	ne
 242 00b8 8021     		movne	r1, #128
 243 00ba 0021     		moveq	r1, #0
 244              	.LVL32:
 245              		.loc 1 259 0
 246 00bc E307     		lsls	r3, r4, #31
 247              		.loc 1 261 0
 248 00be 04F00203 		and	r3, r4, #2
 249 00c2 98B2     		uxth	r0, r3
 250              		.loc 1 260 0
 251 00c4 48BF     		it	mi
 252 00c6 41F02001 		orrmi	r1, r1, #32
 253              	.LVL33:
 254              		.loc 1 261 0
 255 00ca 08B1     		cbz	r0, .L6
 256              		.loc 1 262 0
 257 00cc 41F04001 		orr	r1, r1, #64
 258              	.LVL34:
 259              	.L6:
 260              		.loc 1 263 0
 261 00d0 04F00402 		and	r2, r4, #4
 262 00d4 93B2     		uxth	r3, r2
 263 00d6 0BB1     		cbz	r3, .L7
 264              		.loc 1 264 0
 265 00d8 41F48071 		orr	r1, r1, #256
 266              	.LVL35:
 267              	.L7:
 268              	.LBB40:
 269              		.loc 1 265 0
 270 00dc 2023     		movs	r3, #32
 271              	.LVL36:
 272              	@ 265 "../../../ChibiOS/os/hal/platforms/STM32/serial_lld.c" 1
 273 00de 83F31188 		msr     BASEPRI, r3
 274              	@ 0 "" 2
 275              	.LVL37:
 276              		.thumb
 277              	.LBE40:
 278              		.loc 1 266 0
 279 00e2 1048     		ldr	r0, .L48+4
 280 00e4 FFF7FEFF 		bl	chEvtBroadcastFlagsI
 281              	.LVL38:
 282              	.LBB41:
 283              		.loc 1 267 0
ARM GAS  C:\Users\DNIEL~1\AppData\Local\Temp\cciNsdV0.s 			page 6


 284 00e8 0023     		movs	r3, #0
 285              	@ 267 "../../../ChibiOS/os/hal/platforms/STM32/serial_lld.c" 1
 286 00ea 83F31188 		msr     BASEPRI, r3
 287              	@ 0 "" 2
 288              	.LVL39:
 289              		.thumb
 290 00ee 92E7     		b	.L3
 291              	.LVL40:
 292              	.L46:
 293              	.LBE41:
 294              	.LBE39:
 295              	.LBE38:
 296              	.LBB42:
 297              	.LBB43:
 298              		.loc 1 300 0
 299 00f0 2023     		movs	r3, #32
 300              	.LVL41:
 301              	@ 300 "../../../ChibiOS/os/hal/platforms/STM32/serial_lld.c" 1
 302 00f2 83F31188 		msr     BASEPRI, r3
 303              	@ 0 "" 2
 304              	.LVL42:
 305              		.thumb
 306              	.LBE43:
 307              		.loc 1 301 0
 308 00f6 0C48     		ldr	r0, .L48+8
 309 00f8 FFF7FEFF 		bl	chOQGetI
 310              	.LVL43:
 311              		.loc 1 302 0
 312 00fc 0028     		cmp	r0, #0
 313 00fe 05DB     		blt	.L47
 314              		.loc 1 307 0
 315 0100 81B2     		uxth	r1, r0
 316 0102 A980     		strh	r1, [r5, #4]	@ movhi
 317              	.LVL44:
 318              	.L12:
 319              	.LBB44:
 320              		.loc 1 308 0
 321 0104 0023     		movs	r3, #0
 322              	@ 308 "../../../ChibiOS/os/hal/platforms/STM32/serial_lld.c" 1
 323 0106 83F31188 		msr     BASEPRI, r3
 324              	@ 0 "" 2
 325              	.LVL45:
 326              		.thumb
 327 010a 97E7     		b	.L10
 328              	.LVL46:
 329              	.L47:
 330              	.LBE44:
 331              		.loc 1 303 0
 332 010c 0548     		ldr	r0, .L48+4
 333              	.LVL47:
 334 010e 0821     		movs	r1, #8
 335 0110 FFF7FEFF 		bl	chEvtBroadcastFlagsI
 336              	.LVL48:
 337              		.loc 1 304 0
 338 0114 26F0C000 		bic	r0, r6, #192
 339 0118 40F04002 		orr	r2, r0, #64
 340 011c AA81     		strh	r2, [r5, #12]	@ movhi
ARM GAS  C:\Users\DNIEL~1\AppData\Local\Temp\cciNsdV0.s 			page 7


 341 011e F1E7     		b	.L12
 342              	.L49:
 343              		.align	2
 344              	.L48:
 345 0120 00000000 		.word	.LANCHOR0
 346 0124 04000000 		.word	.LANCHOR0+4
 347 0128 30000000 		.word	.LANCHOR0+48
 348              	.LBE42:
 349              	.LBE45:
 350              	.LBE46:
 351              		.cfi_endproc
 352              	.LFE123:
 353              		.size	VectorD4, .-VectorD4
 354 012c AFF30080 		.section	.text.sd_lld_init,"ax",%progbits
 355              		.align	2
 356              		.p2align 4,,15
 357              		.global	sd_lld_init
 358              		.thumb
 359              		.thumb_func
 360              		.type	sd_lld_init, %function
 361              	sd_lld_init:
 362              	.LFB124:
 363              		.loc 1 497 0
 364              		.cfi_startproc
 365              		@ args = 0, pretend = 0, frame = 0
 366              		@ frame_needed = 0, uses_anonymous_args = 0
 367 0000 10B5     		push	{r4, lr}
 368              	.LCFI1:
 369              		.cfi_def_cfa_offset 8
 370              		.cfi_offset 4, -8
 371              		.cfi_offset 14, -4
 372              		.loc 1 500 0
 373 0002 40F20004 		movw	r4, #:lower16:.LANCHOR0
 374 0006 C0F20004 		movt	r4, #:upper16:.LANCHOR0
 375 000a 40F20002 		movw	r2, #:lower16:notify1
 376 000e 2046     		mov	r0, r4
 377 0010 0021     		movs	r1, #0
 378 0012 C0F20002 		movt	r2, #:upper16:notify1
 379 0016 FFF7FEFF 		bl	sdObjectInit
 380              	.LVL49:
 381              		.loc 1 501 0
 382 001a 4FF48053 		mov	r3, #4096
 383 001e C4F20103 		movt	r3, 16385
 384 0022 6367     		str	r3, [r4, #116]
 385 0024 10BD     		pop	{r4, pc}
 386              		.cfi_endproc
 387              	.LFE124:
 388              		.size	sd_lld_init, .-sd_lld_init
 389 0026 00BFAFF3 		.section	.text.sd_lld_start,"ax",%progbits
 389      0080AFF3 
 389      0080
 390              		.align	2
 391              		.p2align 4,,15
 392              		.global	sd_lld_start
 393              		.thumb
 394              		.thumb_func
 395              		.type	sd_lld_start, %function
ARM GAS  C:\Users\DNIEL~1\AppData\Local\Temp\cciNsdV0.s 			page 8


 396              	sd_lld_start:
 397              	.LFB125:
 398              		.loc 1 540 0
 399              		.cfi_startproc
 400              		@ args = 0, pretend = 0, frame = 0
 401              		@ frame_needed = 0, uses_anonymous_args = 0
 402              	.LVL50:
 403 0000 38B5     		push	{r3, r4, r5, lr}
 404              	.LCFI2:
 405              		.cfi_def_cfa_offset 16
 406              		.cfi_offset 3, -16
 407              		.cfi_offset 4, -12
 408              		.cfi_offset 5, -8
 409              		.cfi_offset 14, -4
 410              		.loc 1 545 0
 411 0002 037A     		ldrb	r3, [r0, #8]	@ zero_extendqisi2
 412              		.loc 1 543 0
 413 0004 254C     		ldr	r4, .L59
 414 0006 0029     		cmp	r1, #0
 415 0008 18BF     		it	ne
 416 000a 0C46     		movne	r4, r1
 417              		.loc 1 545 0
 418 000c 012B     		cmp	r3, #1
 419              		.loc 1 540 0
 420 000e 0546     		mov	r5, r0
 421              		.loc 1 545 0
 422 0010 2BD0     		beq	.L58
 423              	.LVL51:
 424              	.L53:
 425              	.LBB49:
 426              	.LBB50:
 427              		.loc 1 216 0
 428 0012 4FF48050 		mov	r0, #4096
 429              		.loc 1 212 0
 430 0016 6B6F     		ldr	r3, [r5, #116]
 431              	.LVL52:
 432              		.loc 1 220 0
 433 0018 2168     		ldr	r1, [r4, #0]
 434              		.loc 1 216 0
 435 001a C4F20100 		movt	r0, 16385
 436 001e 8342     		cmp	r3, r0
 437 0020 33D0     		beq	.L54
 438 0022 4FF4A052 		mov	r2, #5120
 439 0026 C4F20102 		movt	r2, 16385
 440 002a 9342     		cmp	r3, r2
 441 002c 2DD0     		beq	.L54
 442              		.loc 1 222 0
 443 002e 4DF68060 		movw	r0, #56960
 444 0032 C0F28020 		movt	r0, 640
 445 0036 B0FBF1F1 		udiv	r1, r0, r1
 446 003a 8AB2     		uxth	r2, r1
 447 003c 1A81     		strh	r2, [r3, #8]	@ movhi
 448              	.L56:
 449              		.loc 1 225 0
 450 003e A288     		ldrh	r2, [r4, #4]
 451              		.loc 1 228 0
 452 0040 E088     		ldrh	r0, [r4, #6]
ARM GAS  C:\Users\DNIEL~1\AppData\Local\Temp\cciNsdV0.s 			page 9


 453              		.loc 1 229 0
 454 0042 2189     		ldrh	r1, [r4, #8]
 455              		.loc 1 225 0
 456 0044 42F40452 		orr	r2, r2, #8448
 457 0048 42F02C02 		orr	r2, r2, #44
 458 004c 92B2     		uxth	r2, r2
 459              		.loc 1 228 0
 460 004e 40F04000 		orr	r0, r0, #64
 461              		.loc 1 229 0
 462 0052 41F00101 		orr	r1, r1, #1
 463              		.loc 1 225 0
 464 0056 9A81     		strh	r2, [r3, #12]	@ movhi
 465              		.loc 1 228 0
 466 0058 80B2     		uxth	r0, r0
 467              		.loc 1 230 0
 468 005a 0022     		movs	r2, #0
 469              		.loc 1 229 0
 470 005c 89B2     		uxth	r1, r1
 471              		.loc 1 228 0
 472 005e 1882     		strh	r0, [r3, #16]	@ movhi
 473              		.loc 1 229 0
 474 0060 9982     		strh	r1, [r3, #20]	@ movhi
 475              		.loc 1 230 0
 476 0062 1A80     		strh	r2, [r3, #0]	@ movhi
 477              		.loc 1 231 0
 478 0064 1A88     		ldrh	r2, [r3, #0]
 479              		.loc 1 232 0
 480 0066 9B88     		ldrh	r3, [r3, #4]
 481              	.LVL53:
 482 0068 38BD     		pop	{r3, r4, r5, pc}
 483              	.LVL54:
 484              	.L58:
 485              	.LBE50:
 486              	.LBE49:
 487              		.loc 1 547 0
 488 006a 0D48     		ldr	r0, .L59+4
 489              	.LVL55:
 490 006c 8542     		cmp	r5, r0
 491 006e D0D1     		bne	.L53
 492              		.loc 1 548 0
 493 0070 4FF46051 		mov	r1, #14336
 494              	.LVL56:
 495 0074 C4F20201 		movt	r1, 16386
 496              		.loc 1 549 0
 497 0078 2520     		movs	r0, #37
 498              		.loc 1 548 0
 499 007a 4A6C     		ldr	r2, [r1, #68]
 500 007c 42F01003 		orr	r3, r2, #16
 501 0080 4B64     		str	r3, [r1, #68]
 502              		.loc 1 549 0
 503 0082 C021     		movs	r1, #192
 504 0084 FFF7FEFF 		bl	nvicEnableVector
 505              	.LVL57:
 506 0088 C3E7     		b	.L53
 507              	.LVL58:
 508              	.L54:
 509              	.LBB52:
ARM GAS  C:\Users\DNIEL~1\AppData\Local\Temp\cciNsdV0.s 			page 10


 510              	.LBB51:
 511              		.loc 1 220 0
 512 008a 4FF43D40 		mov	r0, #48384
 513 008e C0F20150 		movt	r0, 1281
 514 0092 B0FBF1F1 		udiv	r1, r0, r1
 515 0096 8AB2     		uxth	r2, r1
 516 0098 1A81     		strh	r2, [r3, #8]	@ movhi
 517 009a D0E7     		b	.L56
 518              	.L60:
 519              		.align	2
 520              	.L59:
 521 009c 00000000 		.word	.LANCHOR1
 522 00a0 00000000 		.word	.LANCHOR0
 523              	.LBE51:
 524              	.LBE52:
 525              		.cfi_endproc
 526              	.LFE125:
 527              		.size	sd_lld_start, .-sd_lld_start
 528 00a4 AFF30080 		.section	.text.sd_lld_stop,"ax",%progbits
 528      AFF30080 
 528      AFF30080 
 529              		.align	2
 530              		.p2align 4,,15
 531              		.global	sd_lld_stop
 532              		.thumb
 533              		.thumb_func
 534              		.type	sd_lld_stop, %function
 535              	sd_lld_stop:
 536              	.LFB126:
 537              		.loc 1 601 0
 538              		.cfi_startproc
 539              		@ args = 0, pretend = 0, frame = 0
 540              		@ frame_needed = 0, uses_anonymous_args = 0
 541              		@ link register save eliminated.
 542              	.LVL59:
 543              		.loc 1 603 0
 544 0000 037A     		ldrb	r3, [r0, #8]	@ zero_extendqisi2
 545 0002 022B     		cmp	r3, #2
 546 0004 00D0     		beq	.L65
 547              	.L61:
 548 0006 7047     		bx	lr
 549              	.L65:
 550              		.loc 1 606 0
 551 0008 094B     		ldr	r3, .L66
 552              		.loc 1 604 0
 553 000a 416F     		ldr	r1, [r0, #116]
 554              	.LVL60:
 555              	.LBB53:
 556              	.LBB54:
 557              		.loc 1 243 0
 558 000c 0022     		movs	r2, #0
 559              	.LBE54:
 560              	.LBE53:
 561              		.loc 1 606 0
 562 000e 9842     		cmp	r0, r3
 563              	.LBB56:
 564              	.LBB55:
ARM GAS  C:\Users\DNIEL~1\AppData\Local\Temp\cciNsdV0.s 			page 11


 565              		.loc 1 243 0
 566 0010 8A81     		strh	r2, [r1, #12]	@ movhi
 567              		.loc 1 244 0
 568 0012 0A82     		strh	r2, [r1, #16]	@ movhi
 569              		.loc 1 245 0
 570 0014 8A82     		strh	r2, [r1, #20]	@ movhi
 571              	.LBE55:
 572              	.LBE56:
 573              		.loc 1 606 0
 574 0016 F6D1     		bne	.L61
 575              		.loc 1 607 0
 576 0018 4FF46051 		mov	r1, #14336
 577              	.LVL61:
 578 001c C4F20201 		movt	r1, 16386
 579              		.loc 1 608 0
 580 0020 2520     		movs	r0, #37
 581              	.LVL62:
 582              		.loc 1 607 0
 583 0022 4A6C     		ldr	r2, [r1, #68]
 584 0024 22F01003 		bic	r3, r2, #16
 585 0028 4B64     		str	r3, [r1, #68]
 586              		.loc 1 648 0
 587              		.loc 1 608 0
 588 002a FFF7FEBF 		b	nvicDisableVector
 589              	.LVL63:
 590              	.L67:
 591 002e 00BF     		.align	2
 592              	.L66:
 593 0030 00000000 		.word	.LANCHOR0
 594              		.cfi_endproc
 595              	.LFE126:
 596              		.size	sd_lld_stop, .-sd_lld_stop
 597              		.global	SD1
 598 0034 AFF30080 		.section	.rodata.default_config,"a",%progbits
 598      AFF30080 
 598      AFF30080 
 599              		.align	2
 600              		.set	.LANCHOR1,. + 0
 601              		.type	default_config, %object
 602              		.size	default_config, 12
 603              	default_config:
 604 0000 00960000 		.word	38400
 605 0004 0000     		.short	0
 606 0006 0040     		.short	16384
 607 0008 0000     		.short	0
 608 000a 0000     		.space	2
 609              		.section	.bss.SD1,"aw",%nobits
 610              		.align	2
 611              		.set	.LANCHOR0,. + 0
 612              		.type	SD1, %object
 613              		.size	SD1, 120
 614              	SD1:
 615 0000 00000000 		.space	120
 615      00000000 
 615      00000000 
 615      00000000 
 615      00000000 
ARM GAS  C:\Users\DNIEL~1\AppData\Local\Temp\cciNsdV0.s 			page 12


 616              		.text
 617              	.Letext0:
 618              		.file 2 "c:\\chibistudio\\tools\\gnu tools arm embedded\\4.7 2014q2\\bin\\../lib/gcc/arm-none-eabi
 619              		.file 3 "c:\\chibistudio\\tools\\gnu tools arm embedded\\4.7 2014q2\\bin\\../lib/gcc/arm-none-eabi
 620              		.file 4 "../../../ChibiOS/os/ports/GCC/ARMCMx/chtypes.h"
 621              		.file 5 "../../../ChibiOS/os/kernel/include/chlists.h"
 622              		.file 6 "../../../ChibiOS/os/kernel/include/chthreads.h"
 623              		.file 7 "../../../ChibiOS/os/ports/GCC/ARMCMx/chcore_v7m.h"
 624              		.file 8 "../../../ChibiOS/os/kernel/include/chmtx.h"
 625              		.file 9 "../../../ChibiOS/os/kernel/include/chevents.h"
 626              		.file 10 "../../../ChibiOS/os/kernel/include/chqueues.h"
 627              		.file 11 "../../../ChibiOS/os/hal/platforms/STM32F4xx/stm32f4xx.h"
 628              		.file 12 "../../../ChibiOS/os/hal/include/serial.h"
 629              		.file 13 "../../../ChibiOS/os/hal/platforms/STM32/serial_lld.h"
 630              		.file 14 "../../../ChibiOS/os/ports/common/ARMCMx/nvic.h"
 631              		.file 15 "../../../ChibiOS/os/ports/common/ARMCMx/CMSIS/include/core_cm4.h"